(lp0
(lp1
(lp2
F38.18934763293732
aF-4.690048226009438
aF-2.3102643116948625
aF2.4740360852380325
aF-2.1628110354966856
aF-0.4830877507645287
aF0.3128536641603912
aF-0.8651972842460787
aF-0.14185297083302473
aF0.90435179192227
aF0.3238221517895464
aF-0.19871134361543677
aF13.600364416942805
aa(lp3
F39.62931089428131
aF2.1313934329219295
aF2.4575178798445205
aF2.3155665073665457
aF-0.4003664780698637
aF0.9474250119002546
aF0.7030294636036356
aF0.339207153387328
aF-0.5114132848957492
aF-2.3252499951883827
aF0.3469539737350112
aF-0.05508903250951866
aF18.979210991065337
aa(lp4
F45.767108940644476
aF2.464305006464013
aF-4.32092503812047
aF2.7751857165344513
aF0.6397289333454594
aF-5.8714376069536796
aF-2.6978098780867916
aF-0.26125779243055697
aF-0.6685836094590096
aF3.0092815940715614
aF-1.9964874794202778
aF-1.8025812083948531
aF21.786256056419248
aa(lp5
F51.62075370006411
aF-0.13425303966297952
aF-6.9040400445295536
aF1.1007363459059598
aF-1.0018680300069005
aF-0.7449467488403074
aF1.4182039187193711
aF0.9091856656648047
aF1.548572254865532
aF1.4190001876649958
aF0.05399591646280966
aF-0.7741481444194932
aF19.50105351971527
aa(lp6
F42.434076802494666
aF-1.2912357087408801
aF-2.0262462032294812
aF1.4502925687379167
aF-3.1784280536155984
aF1.5413243519815727
aF-0.40303109841114637
aF0.8617774632674887
aF-0.4690891778380063
aF-0.6490587217251965
aF0.6168354225673174
aF-2.9100239936772514
aF16.725558467524124
aa(lp7
F44.59311371830139
aF1.4084219627658263
aF-4.38352719078452
aF0.5823503613164169
aF0.4187112061143079
aF-0.41698563527623594
aF1.3761246153970093
aF0.1552123457345802
aF-0.6291202522974078
aF0.6050424022035109
aF-0.6881037378600345
aF-0.21176351364981982
aF18.977136816171477
aa(lp8
F45.68281133424322
aF0.5879807830012891
aF-3.932487177451043
aF0.4941842822188024
aF-0.5630096584889993
aF-0.762414487663696
aF-0.032677725953548564
aF0.35870227789380915
aF-0.06311470117177329
aF0.20925858594358504
aF-0.16612659137093996
aF-0.9307898709364095
aF18.644060905890072
aa(lp9
F45.88885504912534
aF1.5051875894697062
aF-4.112204447876967
aF0.6936983776662075
aF-1.3963315199516215
aF-0.8949739748253362
aF-0.06292269181504795
aF-0.16706540455995336
aF-0.5158168162137788
aF1.1611143442609686
aF-0.227573502053346
aF-1.5614254383599018
aF18.87590353548671
aa(lp10
F43.32852028739475
aF0.1747353548028856
aF-1.722086233190351
aF1.5736998646840084
aF-1.2258887641739564
aF-0.5899209046609972
aF-1.4096949502621405
aF-1.1207627562962705
aF0.3203345947380419
aF-0.866278564880237
aF0.5285396554298704
aF-0.10810682806142646
aF19.330007864930742
aa(lp11
F34.42232320231452
aF0.24497891994123
aF1.7636278190159032
aF0.5885458529664347
aF1.238389004794119
aF1.4724797397462654
aF-0.8548967087026085
aF-0.9463273209772461
aF-0.8100544155554664
aF0.2779445916119996
aF-0.9450154332691905
aF-0.5523579306280351
aF16.603722979879254
aa(lp12
F26.49289283848136
aF-8.721360537649007
aF-0.36355361477933545
aF-0.21125307304195096
aF-0.1478670076137663
aF-0.17289272342280543
aF1.7109275435941298
aF1.3179674570636426
aF-0.1478805503150565
aF-0.2821579384932479
aF-0.4641867325761063
aF-0.09111384703355724
aF6.219861282313838
aa(lp13
F37.1764382103642
aF-0.9418892024156285
aF-0.48695691204584185
aF-0.27378237136263145
aF-2.678187703656934
aF-0.5839387842823767
aF-0.06596503877667048
aF0.9097925872672236
aF1.0710202949352845
aF1.7826246573849778
aF1.1344348509403446
aF0.7178649394566305
aF14.067159105018787
aa(lp14
F33.51236819034401
aF-4.169779363440456
aF-3.5268231991342596
aF-0.2785937842761962
aF0.8169434695531628
aF-0.8804023394528037
aF-2.272912271611171
aF-1.5246205566093538
aF-1.5973620449458301
aF-1.7740245207167318
aF-1.832265555342118
aF-0.25744730295852447
aF12.918496547875524
aa(lp15
F34.714964500968776
aF-1.0659831351378042
aF0.7627733582405982
aF2.2228251681785234
aF0.07483259120659641
aF1.238204137085222
aF1.0877060769677707
aF0.7089649528658752
aF-0.2945812120670465
aF0.27687671189300544
aF1.0874039123775412
aF2.2757101391299943
aF13.706299281751072
aa(lp16
F32.97351620844628
aF-3.1392968634657756
aF-1.8533611367176377
aF-1.6549049590313052
aF-0.5396704609703439
aF1.017009291237702
aF0.5242021104565866
aF0.8536950659729889
aF0.2222694677298792
aF0.6986405867293002
aF0.43236891102208935
aF-2.309617350907652
aF11.462872231269554
aa(lp17
F34.55387975688415
aF-5.81300786966295
aF-0.7505840988136093
aF0.9208920457491723
aF0.5632501425486018
aF0.23905106208291504
aF-1.292180655298396
aF-0.9608122334668447
aF0.7938682891228261
aF-1.0549685918082274
aF-2.1477736881290594
aF0.6328935557709392
aF11.761618768777442
aa(lp18
F44.42505994156659
aF-2.573255877181914
aF-2.711033073631344
aF3.182354487597529
aF-3.4593258684544885
aF3.8107510588232687
aF-0.7949677925944536
aF-0.3397568315728155
aF1.4276174499754128
aF-1.0386026981261423
aF1.8531805574097593
aF-0.2726345116548462
aF16.70755957162516
aa(lp19
F33.78122309950878
aF-2.985724727194536
aF3.622487685457293
aF2.740123010981332
aF-0.6408213717386178
aF-0.07613629978480185
aF1.9390703035892731
aF-1.0933989693314203
aF-1.1685655658629148
aF-0.2700384668825583
aF-0.6146516471812378
aF0.48811363699209054
aF16.611414528039592
aa(lp20
F36.545784518092866
aF-5.336666934545811
aF-4.75017321039819
aF-2.0303388654997243
aF-2.259346209942663
aF1.3743902665359184
aF-2.9423173506724662
aF-0.498000574685471
aF1.8546589542428198
aF-0.37238725640681414
aF1.2735291453219877
aF-0.11156252476433692
aF8.748310906907623
aa(lp21
F35.028233659015115
aF-6.057031427190677
aF-3.01307741494325
aF0.7868259743637286
aF-0.5947630671945343
aF2.594585632567621
aF1.887404814670714
aF0.07214390784518548
aF0.8674054462665866
aF1.3499137205194782
aF1.4699272533937613
aF1.1988752875477418
aF12.212058744759407
aa(lp22
F37.947594562033096
aF-1.5237129358945198
aF2.412811162439733
aF3.4883495218286216
aF-0.3754687080735859
aF2.0320482217834437
aF0.032177301028461114
aF-0.7996306403068518
aF-0.46774983385986135
aF-2.4985412323326592
aF-0.21242682123386092
aF-0.5954943270973747
aF16.919543376150294
aa(lp23
F35.22900539116946
aF-5.1328027864989245
aF-2.2957903296362923
aF0.6288493790650455
aF-1.3377939414864248
aF0.4417901141252272
aF0.24984936569771815
aF-0.06386702442333625
aF0.38493270470151164
aF-0.7730192366877453
aF-0.5723445978884973
aF1.3092986314720332
aF12.421464460762062
aa(lp24
F34.58108322441009
aF-3.193310995900242
aF-0.461654645872305
aF0.03617988057286359
aF1.0094864195460294
aF1.6506315906010554
aF-0.5861992383995156
aF-0.8915253420814326
aF0.6003538091461995
aF1.1227728564229702
aF0.3537792234088041
aF0.31091782983680405
aF12.03446748462324
aa(lp25
F35.02381000302772
aF-4.551886002105821
aF-1.629830248180229
aF0.8324659480966877
aF-4.27194692815163
aF-0.47024864209544837
aF-0.7396577043953836
aF-1.5941723731681643
aF-0.259751326489317
aF-0.6484738014620455
aF0.5222466465763606
aF-0.727314950731144
aF12.357633414223132
aa(lp26
F32.584326442815936
aF-3.3013478593827914
aF0.6235800581577657
aF-0.0560100756158014
aF1.612648990936218
aF1.4306515906169734
aF1.528722837049228
aF0.6710903835630068
aF-1.565605130844357
aF-1.7592646863118824
aF-1.4143796206242987
aF1.4769870057995231
aF12.718777063624401
aa(lp27
F34.66689945327836
aF-4.013357906836777
aF-0.906406814897323
aF0.9243186338750675
aF-0.8461904005422092
aF-0.890641580524047
aF-0.6043513286252294
aF-0.2769906513704309
aF2.3915264391913085
aF2.00865228832626
aF0.32342024829524035
aF0.35145688834906263
aF12.241278087077834
aaa(lp28
(lp29
F40.7776821949029
aF-0.8454904905726839
aF-1.8635595276795995
aF2.745639445584175
aF-0.902131729022504
aF-2.8365029455727795
aF-0.4833148073948031
aF-0.38001203341432005
aF-0.8211240091872014
aF0.9231769990719443
aF-0.24335894754640933
aF-0.3449857049929003
aF17.667179585652736
aa(lp30
F45.076845139784446
aF3.4888196164293355
aF-2.5082342157428186
aF-0.14567296663714435
aF-0.7045537815217565
aF-2.914650093860852
aF-0.7788696761771674
aF0.9144070641311133
aF1.1881396825007162
aF1.7935925657353486
aF-0.8240161834847692
aF-2.198614413072373
aF22.354380089890615
aa(lp31
F45.2451010151396
aF-0.496101315871632
aF-6.874711376607518
aF0.6722584480684597
aF1.4253556755749726
aF-0.9747731028264552
aF1.6584940299680073
aF2.1987939692883525
aF-0.8867113927294149
aF0.7019916240372175
aF-0.8827228185979377
aF-1.8181413728144418
aF16.009657295458677
aa(lp32
F43.29601199356861
aF1.038131655922491
aF-3.158625353779494
aF0.6348990940055705
aF-0.6580487123269698
aF-0.7210881604683808
aF0.09001642387793829
aF-0.20995826781509153
aF-0.8379715380430395
aF1.151466335270074
aF-1.071478114483541
aF-1.4249534199116416
aF18.52775212621356
aa(lp33
F46.32073005307621
aF-0.12232993751295229
aF-5.12136045851644
aF1.3863746402276709
aF-0.6363043778016816
aF-1.3798996455815433
aF-0.07058604445708427
aF0.8709616840218586
aF0.2392191899804812
aF0.015869829485827824
aF0.26050492583683316
aF-1.2646324817629493
aF18.52974827031578
aa(lp34
F45.63237592264404
aF0.832974570430943
aF-4.162726683963605
aF0.3977166906973151
aF-1.0709790054965846
aF-1.4886428290432634
aF0.42148939479116726
aF1.0184465215123848
aF-0.979967524538959
aF0.7899239127448576
aF-0.17710494064549348
aF-1.8238547725708019
aF19.377171175385865
aa(lp35
F44.73610496091518
aF1.3787354980953936
aF-3.953066120683004
aF0.528453804155524
aF-1.2041149674940745
aF-1.3996644992938487
aF-0.43376420112901226
aF0.48917730839615736
aF-0.3274487429901466
aF0.981749675785156
aF-0.15967515873882254
aF-1.1669186533045655
aF19.506731602079277
aa(lp36
F44.89930316973107
aF0.6530604430496492
aF-2.7085703719387126
aF1.737301224504578
aF-0.4443250731153666
aF-2.5433345806157623
aF-0.9403678438353159
aF-0.7384079157646786
aF-0.8266227156429551
aF1.2140849896482762
aF1.8707746256663746
aF-0.863227531604345
aF19.61096315817652
aa(lp37
F28.306680126741043
aF-0.24878583196617676
aF5.267628645204041
aF0.6696076009227617
aF2.129847982696151
aF0.7929106963994241
aF-0.7583276389740914
aF-1.9454759617812756
aF-1.445303705543232
aF-0.4705919597702287
aF-0.5839724720170402
aF0.6214909318774535
aF14.396194868330685
aa(lp38
F31.24835458588707
aF-8.269628913781194
aF-3.160608166162052
aF0.5959926698208892
aF-0.6180074004843458
aF0.9953158449613789
aF0.14897291358065623
aF2.551686995179736
aF1.8708248257721625
aF-0.8591977670758525
aF-2.789994969073681
aF-1.0284815741754803
aF8.330281982881267
aa(lp39
F34.94392307117838
aF-1.4517085062619857
aF0.2617895068690602
aF-0.5257486054334417
aF-0.12610248747148517
aF-0.7829781047483058
aF0.21099897569358547
aF-1.3986419607946925
aF-1.053762042761742
aF1.9067520807135896
aF2.675087056162461
aF1.6414684519290974
aF13.663611207585364
aa(lp40
F36.77745673876921
aF-1.6509138389376297
aF-2.3828077615119065
aF-0.06552511306395192
aF-2.640569615826185
aF-0.714196692992936
aF0.4377665887465606
aF0.8623253044506594
aF-0.6381069620395166
aF-0.6573686636706034
aF-1.2291705516686575
aF-1.4041927963728666
aF14.280556596031586
aa(lp41
F29.527340400608807
aF-4.851293013694162
aF-1.961039511627081
aF-0.927127400542652
aF-0.24491701257982268
aF-0.2512766090108365
aF-1.1727760415169668
aF-0.14408647284733206
aF1.6492671001767005
aF0.513029404831034
aF-0.10380284724941514
aF1.7280647674719174
aF10.15360132623287
aa(lp42
F35.32301619099412
aF-2.1374757962152855
aF-1.8750661109873765
aF1.661917101851434
aF1.805679920347106
aF2.1257114062693265
aF0.6236474762315392
aF-0.22127685343794823
aF-0.6356263218130445
aF0.47416365291560536
aF1.0595872704427927
aF-0.8738559604589605
aF13.272816020102825
aa(lp43
F32.43428586865779
aF-4.217002330758534
aF1.0436373193978397
aF0.5684901515216902
aF-1.6396423886045082
aF-2.133283775723436
aF0.1338369002214124
aF0.5420372646749568
aF-1.6026952008341848
aF-1.5196286940957906
aF-1.7733449420189737
aF1.041088298855318
aF11.854931373788196
aa(lp44
F40.103879769363914
aF-5.590844297213865
aF-2.8251165555094824
aF0.0232410304573325
aF-3.774734507247005
aF2.162333478122339
aF-2.2440328795768885
aF-1.6079420595570548
aF2.4616358432217322
aF0.2584901700754582
aF2.357202737502402
aF0.023560278057549205
aF15.025695400372893
aa(lp45
F39.5300040850678
aF1.06990066207028
aF2.0928648926512405
aF3.6824109724262586
aF0.7083717624113193
aF2.522136736233104
aF-0.19783870621696065
aF-0.29027316248791296
aF-0.16356957789503468
aF-0.013404776767012266
aF0.2907914325046057
aF0.5963221358724212
aF17.38363612325074
aa(lp46
F36.16521801307553
aF-8.676378296820658
aF-4.817448843876367
aF0.18252773826748392
aF-4.502930813419567
aF1.3828178105550075
aF0.3215932123484239
aF-1.8613210258773498
aF-1.0507391005055537
aF-1.60661370286165
aF-0.3625429583554935
aF0.42852486088532443
aF10.144310094993099
aa(lp47
F36.11975050564586
aF-4.062811891199188
aF0.492283650648325
aF2.262122247219704
aF1.2331342552168651
aF1.9483952026986597
aF-0.23275259269326065
aF0.6629416110038789
aF-0.9331457684762261
aF-1.319917027730913
aF0.941299161508459
aF-1.6459910592760139
aF14.332039789601128
aa(lp48
F38.86942315113148
aF-4.759107558124819
aF-0.59288719937594
aF2.3045864501086735
aF-3.795914791634308
aF0.6539578539491457
aF-0.18302521308110875
aF0.1927315171084136
aF2.672828681161607
aF0.06903046661753431
aF-0.1256359605693111
aF0.5446862452126702
aF12.952972126559944
aa(lp49
F35.72650370040666
aF-5.20019554358303
aF-1.821553994532219
aF1.892655944994608
aF-1.4477769927554403
aF2.0182158094755644
aF-0.9320277324117489
aF-2.5023878871083216
aF-0.6418685153177548
aF0.19667564467265414
aF0.8626308260320247
aF0.21871816095893779
aF13.276790606567735
aa(lp50
F34.833434834927374
aF-3.499590541612232
aF-0.9302207904678667
aF0.3535092887857496
aF-0.9753942376787437
aF0.7694000301775741
aF0.8846177948878204
aF0.6926582960823954
aF-0.08276512198117095
aF-1.453795798118454
aF-0.7439466739470308
aF0.8668748629434486
aF12.566285062224143
aa(lp51
F35.713709411430486
aF-4.709507752842233
aF-0.14701533807388978
aF1.4550539607813215
aF-2.3752760096483745
aF0.8351250917967079
aF-0.09405348302579342
aF-0.014632324095410265
aF2.3540662958063723
aF1.4538083773297714
aF2.046639860526957
aF0.8543581365210222
aF13.628371592716613
aa(lp52
F34.653509455758076
aF-3.15053113861707
aF-2.0180056413330205
aF-0.4191573089872034
aF-0.5153098727671326
aF-0.20417703984865632
aF-0.5345559797298332
aF-1.0751205153339292
aF-2.221088647593058
aF-2.224204918397609
aF-2.722582443568836
aF-1.5059740095670686
aF12.245344733380021
aa(lp53
F33.37019540781267
aF-5.421131376259903
aF-0.6042427277229704
aF0.8242019816145045
aF-1.4795407493514918
aF0.7844884773961005
aF0.8904112234261539
aF-0.9460807337837553
aF0.624812923948284
aF0.4083065388615924
aF-0.2983043158212818
aF0.32626701806565567
aF12.09794755779491
aa(lp54
F35.927328171733166
aF-1.4860800722227996
aF-2.8468005924680315
aF-0.9307145666936161
aF0.6997809770566749
aF-0.7705237183134093
aF-2.132624125120355
aF-0.2910796679748046
aF0.6152069090162293
aF1.7037853383595254
aF2.3240923746462485
aF2.5230726120633706
aF13.594458238047556
aa(lp55
F29.29260721082651
aF-2.6405358972039124
aF2.1612407528377875
aF2.4910854821428674
aF0.6592621586656231
aF1.341998764748884
aF1.6170540279130687
aF1.2001530938939111
aF-1.1442749534048562
aF-1.047378130604541
aF-1.5599588060951235
aF-1.0470786308948687
aF11.875391491660142
aaa(lp56
(lp57
F40.056617494686755
aF-4.784424973450692
aF-3.511744742399072
aF3.571619681024757
aF-1.5424164769244932
aF-0.1179463282359809
aF0.7725993238672914
aF-0.7807657714830962
aF-0.2686163666610888
aF-0.04680049851918704
aF0.4312126960247529
aF0.11675939098719365
aF14.021573913161458
aa(lp58
F32.308471802376374
aF1.9640748706167406
aF6.932794402786492
aF1.008433075349541
aF1.238229248049397
aF0.1922264424814947
aF-0.7113422682829729
aF1.9409069264260317
aF-0.1507781572638142
aF-1.5449998306388502
aF-1.2329444285449043
aF-1.0187501117707232
aF18.65873903864691
aa(lp59
F49.99558336271881
aF3.336116054728237
aF-6.3068009867729895
aF1.3308143509396242
aF-0.05478901956070725
aF-4.694696847143618
aF-0.8434997847711723
aF-1.8565956512406947
aF-0.4989713847639775
aF2.6764292732792234
aF0.10638284225776001
aF-0.35406415006132813
aF21.233651428982174
aa(lp60
F52.30834951842098
aF0.4062263724899897
aF-5.907172738081197
aF3.3954610551512534
aF-3.0083768039375447
aF-1.1393070858839442
aF-0.019022442207227708
aF1.8813333075282137
aF-0.04498383309105919
aF0.5261787874482612
aF-0.7024916373216341
aF-1.9855167562530442
aF22.183790718341523
aa(lp61
F41.68553483967009
aF1.2361347337564297
aF-2.8968421633633263
aF-0.6383181697312623
aF0.5679341786042319
aF0.2462323767287009
aF0.4947301150979724
aF1.5613552585829247
aF0.1979856206275607
aF-0.05317578512087717
aF0.022147289602641118
aF-1.7407050407633622
aF17.673820314438153
aa(lp62
F47.06607767384193
aF1.7152638286209743
aF-4.447444751952789
aF-0.14832912734174175
aF-0.056876137725820286
aF-0.42368337241984555
aF-0.2630577346667553
aF1.0944604997996543
aF-1.0517962822328135
aF0.05317237855442308
aF-0.20995211191892593
aF-1.3603739083955388
aF19.98972552886371
aa(lp63
F45.35229905519967
aF1.8228907686686737
aF-3.611855444804993
aF0.2348153440882276
aF-0.3966289247588558
aF-0.41277134126039183
aF0.5235556061352861
aF1.273438402353849
aF-0.8786253512114421
aF-0.03858409236857746
aF0.07898819494079842
aF-0.6972388591996643
aF19.668658808872024
aa(lp64
F48.405856580615186
aF1.8785635231324183
aF-5.174106821845037
aF0.21914404912498942
aF-0.6737248321911333
aF-1.6729948162244785
aF-0.3386773170957553
aF0.9016271613719014
aF-0.4594562051944267
aF0.9210705932296869
aF-0.0036572837791869275
aF-1.5229620649825446
aF20.576830834771915
aa(lp65
F46.95369350898996
aF1.4507826435378837
aF-3.3927998609584895
aF0.04445143096560969
aF-1.3440508491463194
aF-1.0442574661745314
aF-0.28412378815193695
aF1.055847106208095
aF-0.6423122088774125
aF0.33616244555090063
aF0.3199119688490635
aF-1.9338993712023669
aF20.77920346744389
aa(lp66
F44.06146920331202
aF2.990150540539124
aF-3.5408784018757418
aF0.507509705085121
aF-1.2077479914437763
aF-1.7334924429560736
aF-0.36040326207800816
aF-0.3328047799484283
aF-1.9617819936333918
aF0.7450762487758607
aF1.0808314658445202
aF0.2449791868364558
aF20.749310484949774
aa(lp67
F37.21151380534901
aF0.30259764280229007
aF1.5528263977230894
aF1.3855503453158962
aF1.0072319961423166
aF-1.4257927772383652
aF-0.8406391230449108
aF-1.7290200242757732
aF-1.596878101232873
aF-0.15585576494729675
aF0.7756806659289046
aF-0.4494439725637609
aF16.6352369923359
aa(lp68
F23.64193125028006
aF-8.861956692258422
aF2.2620913863182075
aF1.8844726060222805
aF2.4217177105196974
aF3.780973894345106
aF0.8358030883532431
aF0.9426788607069142
aF1.6671368013990362
aF-0.9242426225221765
aF-2.9337753675041696
aF0.11017643365864971
aF8.488812725173542
aa(lp69
F39.20577533672117
aF-1.7178641827611703
aF-4.841301292460997
aF-2.5167763639412724
aF-2.663191434980087
aF-2.191493615592101
aF-1.4152700362670547
aF0.546857908953974
aF-0.3467466052165532
aF1.5822500919278335
aF2.464657153288963
aF0.9585589350190343
aF12.254221251038992
aa(lp70
F33.20110377376463
aF-2.470970488151848
aF-1.2184253318910265
aF-0.619262087149443
aF-0.6716771092353451
aF0.504062964032244
aF1.475497704292343
aF-0.04232239091034898
aF-0.3711985636306258
aF-0.18050160147325983
aF-1.5786855796157175
aF-1.0299639741651354
aF13.266607153461988
aa(lp71
F34.27658433133546
aF-1.5803246224531096
aF0.3474545705237392
aF2.2746733145256606
aF1.2479847679430829
aF0.9080361257183737
aF-1.4971999645330447
aF-1.3250581220256845
aF-1.3149236696108297
aF-1.0347512957095044
aF-0.2985273868513383
aF0.9026277111742127
aF14.197436315652535
aa(lp72
F32.99270455489138
aF-5.263018749067637
aF-3.621988797948392
aF-1.5038147552759307
aF-1.9774569629116665
aF-1.7783368788875955
aF-0.22304644405875368
aF1.379122743453147
aF0.5935406317776089
aF1.4714829570169972
aF1.4328700960813467
aF-0.44224990409804976
aF11.913373678759081
aa(lp73
F30.563026432557855
aF-3.6219280550160216
aF0.23500533462236972
aF-1.4836884564967923
aF-1.3177885674448144
aF-0.16329221926739712
aF-0.22763603514210745
aF0.25477218250720907
aF-0.33106819386651465
aF0.1337246105098157
aF-0.207316700816913
aF-0.42260181924222645
aF12.50610430163311
aa(lp74
F34.61251317495298
aF0.3202234379445916
aF-1.5066005190873932
aF2.0002331682131858
aF1.2705377328701069
aF1.1507786114672338
aF0.4436966096418828
aF0.021819727806516087
aF-0.0759805750839434
aF-1.0174985911561598
aF-0.7681658249096917
aF1.5869001521871033
aF12.597693984811695
aa(lp75
F35.81854088166208
aF-5.028209772960599
aF-0.2819316732084264
aF-0.8082707907034998
aF0.15498767078018533
aF0.12558163010378176
aF0.22650336506832008
aF0.561014115502189
aF-0.1998841171846856
aF1.2448512373376968
aF1.9928596837343027
aF0.5042502052160274
aF13.94397961993251
aa(lp76
F42.35205191432158
aF-4.964799408631583
aF-4.404854093897878
aF0.062041996116966966
aF-5.645769384463447
aF2.4504321077312228
aF-2.7717687797312918
aF-2.461744860848457
aF1.6367342977654482
aF-3.0391842006001366
aF-1.6499903967958158
aF-0.3528737375559542
aF14.808509737564579
aa(lp77
F34.8190416783444
aF2.197237625873314
aF5.774949281103187
aF4.5957296863108725
aF3.22957433962722
aF1.6208795050052527
aF2.8776249005449497
aF-0.6810165466078073
aF-1.8726466158360298
aF0.627508040836997
aF-0.4077401147508737
aF-0.20934811416833773
aF19.83338058560843
aa(lp78
F35.25060853970652
aF-9.146147846586013
aF-3.8847714733908365
aF0.4283521210830783
aF-4.567966794470522
aF-0.19346187412854232
aF-3.655195445714917
aF-2.088747981094277
aF1.413262379732794
aF-0.9144019943214278
aF-0.21131464829327973
aF1.0441063978214484
aF9.450764235623309
aa(lp79
F38.13290475428236
aF-0.8661556425713575
aF0.9019453080947876
aF2.1272414944043265
aF-0.8876011362560401
aF2.613371030903096
aF2.0488626912359384
aF-0.5355342512567383
aF0.9285162873079018
aF-0.5532229585499546
aF0.7171973003652558
aF0.3201350468675045
aF16.297219621778794
aa(lp80
F33.47694412262801
aF-7.245524882158472
aF-4.200754473253484
aF-0.24104091466619715
aF-2.9064624723566395
aF-0.5107131458631662
aF-1.0094836973890033
aF-0.12242654617164395
aF0.27738068698338203
aF0.6631392857873288
aF-0.8556554258226357
aF0.06898592404717602
aF9.285014620111214
aa(lp81
F35.70837194422309
aF-4.687326311327407
aF0.4587955354190256
aF0.8404300455031509
aF-1.7586405434775745
aF1.409344972401979
aF0.7536875008795152
aF-2.214895595768212
aF0.929651115021461
aF-1.0721772328445132
aF-0.23081674836651753
aF1.1613903989526584
aF14.227602454905012
aa(lp82
F36.16298140459527
aF-2.7027555515470585
aF-1.9308778070740542
aF0.8228460687493144
aF0.02307686268471243
aF0.8007570251213658
aF0.24010654624506228
aF0.0876539713599811
aF0.4062431397226184
aF1.1293376189936086
aF0.21101583017347564
aF0.005712583760973944
aF12.83068844312007
aa(lp83
F34.17268903113344
aF-3.0792389813199557
aF0.6001052142290336
aF0.9178807643036149
aF-1.1298671126959339
aF0.9814058174403185
aF-0.02787197647932982
aF-0.7306058744716529
aF0.38928619825531796
aF-0.3273622246158503
aF-1.0104449010735235
aF1.7163891447489341
aF13.794724778181115
aa(lp84
F32.778276604649115
aF-4.182878960798947
aF-1.266740940583015
aF-2.0460916494529595
aF-1.618930361848826
aF-1.1591596090809795
aF-1.4852878904594955
aF-0.9070840419725612
aF-0.5048743205858817
aF0.5215321569056048
aF0.5797246806226839
aF-1.6494039750657785
aF12.535970868146839
aa(lp85
F33.070215108673416
aF-4.428937708492375
aF-2.330114859342857
aF1.5701078282587506
aF2.633028708052641
aF1.4520860517977412
aF2.6081974291340266
aF2.5297848809786756
aF0.3341557586365976
aF-1.0397112797846364
aF-1.2897041016959592
aF0.1272903815644984
aF10.537567765243683
aa(lp86
F35.67729113249017
aF-0.5256100914602886
aF0.6991380091610314
aF0.4307601345266966
aF-0.4622480575088437
aF-0.44812470955059164
aF-2.7208583155304598
aF-2.35751726835999
aF-0.38363307899827265
aF1.5567433311679708
aF2.349637129048973
aF2.0491343916363736
aF15.965542334400633
aa(lp87
F28.88053866484624
aF-6.315495583322994
aF-4.0300681862494185
aF-1.2570020533634225
aF-1.905526095172685
aF0.7346099450337723
aF1.2317450506206473
aF1.4959766985969098
aF0.9327949237772901
aF-0.4769043522770984
aF-1.77360233752308
aF-0.8542073549309812
aF8.183521148269085
aaa(lp88
(lp89
F39.344587742375246
aF-4.67304865889674
aF-3.2498002422267245
aF3.030735483159411
aF-1.5551039785680596
aF-0.4130421952256336
aF0.30681457849859545
aF-0.5513670975291369
aF-0.7195687037485634
aF-0.4365805388189789
aF0.04919840449971237
aF-0.35009102016647603
aF14.182776276578059
aa(lp90
F42.134022527446284
aF6.716972649630064
aF7.745709097926604
aF4.455023639519604
aF-0.25403605002981
aF-0.7257538236458081
aF-1.8318160505690524
aF-1.5221479729550809
aF-0.279398966332157
aF-0.5266014031787853
aF-0.986030403445373
aF-0.31452955344882505
aF26.917327294115168
aa(lp91
F54.6769646628185
aF2.1932832979577954
aF-13.574003636613828
aF-0.7340990693365343
aF-0.46180698797161013
aF-7.528973185359805
aF0.12053444341552699
aF2.038426066133786
aF0.34256393010245567
aF3.654167898982883
aF-1.3749571736613868
aF-0.6383481711451943
aF19.593030421995103
aa(lp92
F42.420300324370515
aF-2.0173263015748466
aF-1.1307544185296021
aF2.58489586450382
aF-1.6199275702611584
aF2.5543388456498977
aF1.4169403134655694
aF2.170354908867508
aF0.5212368047335634
aF-1.606828330755345
aF-0.3579786916983896
aF-2.3670723861996006
aF17.171126992891956
aa(lp93
F41.41456663088786
aF3.4926223183151084
aF-0.546577410199697
aF-2.064591020639837
aF-0.004825633760959347
aF0.5035387332136969
aF-0.8613473979612462
aF-0.9430907526438317
aF-0.2847990694075935
aF0.7850751772844988
aF-1.5295686292464632
aF-1.3061108370942769
aF19.298911342883375
aa(lp94
F45.43085219949234
aF2.517883396512415
aF-3.488163382550627
aF-0.12079954214936406
aF-0.2438047138780779
aF-1.1219266936286445
aF-0.5229367851632021
aF1.6159933012948358
aF-0.8405145951570627
aF0.37245052726494404
aF-0.08101072327712489
aF-0.814656962845834
aF19.685057090841028
aa(lp95
F48.45921332531045
aF1.5392895625333787
aF-5.029262753706944
aF-0.048532115933001996
aF-0.8259125061059795
aF-0.5458123413393876
aF0.9631403999974439
aF1.1057312888429247
aF-1.413614854104813
aF-0.12634774990924788
aF0.7153537282473494
aF-1.035098361339414
aF19.87880244921078
aa(lp96
F48.35364681040987
aF0.8620696686844525
aF-4.363802337339253
aF1.3078791679110067
aF-1.4068810401484573
aF-1.2429911425137705
aF-0.6788852160225556
aF1.350479553650524
aF0.16315791273033076
aF0.3114205546903156
aF0.4227766308267862
aF-2.1991319124124447
aF20.324588585259427
aa(lp97
F46.22504656157113
aF2.3910881830162944
aF-2.9073658065773036
aF0.3770386782854348
aF-2.252097651434898
aF-0.9450635448187463
aF-0.13323324093687783
aF-0.9287146277636225
aF-1.260542584253332
aF0.632581746941796
aF0.3998667830918288
aF-0.7179073184005276
aF20.473260018944618
aa(lp98
F38.575508344085634
aF1.1838006760857966
aF1.1755153788132402
aF0.8183468448187269
aF0.7375100850308345
aF-1.7171578920422874
aF-1.4850604704681034
aF-1.56536957987002
aF-1.1220460755899822
aF0.13762398252799096
aF0.2508221656211646
aF0.003802618688066195
aF18.83910858432251
aa(lp99
F22.132528366699887
aF-6.9041433164686845
aF4.676046928240552
aF2.7301227804407313
aF2.7007581642669907
aF3.509556063564575
aF0.2683173022596379
aF1.39741334709192
aF1.6828175662858447
aF-1.2659441903692752
aF-2.118271172210808
aF-0.2806647670272553
aF9.697034508935197
aa(lp100
F35.45086226080078
aF-6.850967856638524
aF-6.74792432074255
aF-2.347248632118677
aF-3.010276117916021
aF-2.048618026117427
aF0.6165462479659275
aF-0.009751378243536113
aF-1.1864819817428214
aF0.9036946095255006
aF0.8313324303540607
aF0.9186493598344925
aF7.592760253629184
aa(lp101
F35.942481940819775
aF0.7559941909888375
aF1.3018239950155022
aF1.564824645577267
aF0.22044271370664376
aF-0.854275331772341
aF-3.298364015181161
aF-1.7965233274552306
aF0.6229296774083253
aF1.4438189918658701
aF-0.05218640842754707
aF-0.06675077292238907
aF16.975699533800928
aa(lp102
F33.360919091648604
aF-1.940945850785662
aF-0.42380196943814313
aF-1.248155737359418
aF0.04709714282799013
aF2.1135224848144816
aF2.7533268476955186
aF1.8936744895565023
aF-1.4002257269659366
aF-2.194915892418332
aF-0.9203655004713176
aF-1.212479308478473
aF13.57146162135572
aa(lp103
F32.48120696013818
aF-3.127251414247576
aF-1.8336113000810628
aF1.57676086682048
aF-0.028852214640879864
aF-0.025266341949145787
aF-1.433225366305558
aF-0.6423068602198565
aF0.7965738609618318
aF1.4257447359256907
aF0.9953512993845233
aF1.6286951571154742
aF11.007843557501742
aa(lp104
F31.159131339046553
aF-6.199136266566409
aF-0.6788256505540515
aF-0.5658182462616423
aF-1.0048927160432886
aF0.19580695980562424
aF2.5947903599175537
aF1.086965299105452
aF-1.233223587894059
aF-0.4012723780643802
aF-1.100989342751117
aF-1.1257894263082058
aF10.670439923052784
aa(lp105
F49.12809494892247
aF-1.941414529717393
aF-5.4241714462207025
aF0.09023603265182344
aF-3.268538517918003
aF1.908513471545388
aF-1.34339877601388
aF-1.462833419425987
aF1.3999986730925176
aF-1.6807246124232553
aF0.5428311008139723
aF0.9009154042405259
aF17.74305944392628
aa(lp106
F36.57835496048412
aF1.9893233889124178
aF7.1866395168983495
aF6.967726759398262
aF-0.3465291853421637
aF1.8567310282482794
aF-0.055049702289491464
aF-1.9116998476102882
aF-2.243564068522428
aF-0.9704400739786696
aF-1.134684219372116
aF-0.5237971014795841
aF23.08309640055576
aa(lp107
F33.49019343511634
aF-8.920879578935159
aF-6.6798229518636605
aF-0.010627515795053721
aF-0.6373789775330143
aF1.7426059646575474
aF1.7537350690648557
aF-0.6422150221264922
aF0.6771481965419389
aF-0.05686257876675371
aF0.4329086986618672
aF1.321153046672064
aF6.52294147920658
aa(lp108
F36.999533430547004
aF-3.8135651116005045
aF0.510230164876794
aF-0.29481489731218846
aF-1.5337660646450135
aF1.8853511632352589
aF-1.6936962206205388
aF0.4810197964191656
aF0.24549850850464228
aF-0.3365407456000673
aF0.4040904676870406
aF-1.902940364370821
aF14.822754394770971
aa(lp109
F37.13085411470073
aF-3.8589725124973606
aF-1.150428737622497
aF1.859406076937724
aF-2.4057038078024062
aF2.1054902501536628
aF1.2121018545605011
aF-0.5095542159086945
aF0.9966795681986169
aF-0.6077958571795671
aF1.229029060725015
aF1.4422113111109758
aF12.3692783248906
aa(lp110
F36.64282413871942
aF-3.303176089901892
aF-1.2670086340093307
aF-0.5222752126888534
aF-2.0235273873506743
aF0.6955884212115193
aF-1.0561498763311497
aF-2.240720516589779
aF0.009159816527489373
aF-0.45606411119263457
aF-0.9796408231734804
aF0.17467613361725287
aF13.694987191925513
aa(lp111
F34.19747333379601
aF-3.756936531472574
aF-0.5036987661147072
aF0.15103891076410048
aF-1.2205069983184376
aF0.9949444219187011
aF-0.16306101110544438
aF0.5874848053538009
aF0.3159646838565436
aF0.10158812706167963
aF0.5775322922621672
aF-0.12919646072077692
aF13.251850439429013
aa(lp112
F34.53928488398613
aF-5.174606395317302
aF-1.2940234678473819
aF1.8964732279059437
aF0.011614513971842655
aF0.06213488753763152
aF-0.30810381461428094
aF0.07631929717546476
aF-0.2879532494021948
aF-1.2125032613243212
aF-0.09406577843674302
aF0.7837529002192933
aF11.826565918171182
aa(lp113
F32.34347670414391
aF-3.531926689088775
aF-1.0200043353003507
aF-3.127508688063273
aF-0.5966374092411446
aF-0.6138167513007551
aF-0.6816233567126849
aF0.21288986608949245
aF0.717612227481193
aF0.7473752664602658
aF-0.6408401992714079
aF-0.6388910344308905
aF11.057611347403835
aa(lp114
F33.76819943752905
aF-2.3105071202767142
aF0.5807372830496617
aF1.846032524649315
aF-0.16686157959421322
aF1.031500341700746
aF1.8185604687269323
aF-0.7017235382025365
aF-0.902330363080692
aF0.4783416042586598
aF0.7223310202545606
aF1.0638909218753712
aF13.594294129123657
aa(lp115
F32.322330365122994
aF-3.3392583693423408
aF-1.7745407628837588
aF-0.7953590847767543
aF-0.8190015138596387
aF0.4981721354244804
aF-0.6545518129164727
aF-0.4678137430081389
aF-1.0326907474000642
aF-0.2020350933934269
aF-0.9569543593041754
aF-1.1068322310303396
aF11.87897037574029
aaa(lp116
(lp117
F37.507151290620854
aF-4.986952179280952
aF-0.8082171344963797
aF2.923631044641265
aF-2.812544012961372
aF0.24737849530722109
aF0.2159145472079263
aF-0.4139512064660447
aF0.32039959987578953
aF0.0971713019464057
aF0.07000941679473305
aF-0.43507744215101285
aF13.737713716049107
aa(lp118
F46.68717189410852
aF2.0208521780482993
aF1.3561432141969048
aF5.448891728316056
aF-0.9633670997418577
aF0.09926754667812174
aF0.23829702304033754
aF0.07138277384828345
aF-1.681714809454947
aF-1.48464556951777
aF0.49542978815404276
aF-0.7502752249624334
aF23.665962328538747
aa(lp119
F40.50646498261103
aF4.266298731661848
aF-2.2484703205382752
aF0.03998507382630567
aF1.769106116140446
aF-5.003021745009098
aF-2.605739288004753
aF-0.7447450755356801
aF0.39628735532203174
aF2.8908197886803464
aF-1.320090630841904
aF-0.23714327124045204
aF19.019506781888182
aa(lp120
F50.744783537129905
aF-0.5869181201218199
aF-5.858082535789058
aF3.241885574076939
aF-2.4933326224348717
aF-2.393736926934534
aF2.0619468672361183
aF1.7584934069395959
aF0.10900957644489853
aF1.2685220398205244
aF-0.6269146089509732
aF-1.3989347257624134
aF21.308526156756766
aa(lp121
F42.84464536284458
aF0.4193610211885894
aF-1.4016909199369887
aF1.089901037691821
aF-1.3753646451487502
aF0.7877364911442248
aF-0.5990486022193391
aF0.46278547613942905
aF-0.6259243090566471
aF-0.17507370250078502
aF0.35714212664074996
aF-2.2769142565709046
aF18.385676945894744
aa(lp122
F45.63594966227731
aF1.3940360799857046
aF-3.860139742981092
aF0.7950450663041209
aF-0.6754396655381973
aF0.605463856223975
aF-0.55980456211285
aF-0.23332932150898195
aF0.0618505746380873
aF0.5390986822400163
aF-0.27891819694109493
aF-0.9844343355406655
aF19.45782642039218
aa(lp123
F47.26333098704136
aF1.5662007246427574
aF-4.4269489251148535
aF0.4223458394108115
aF-0.7781240388993967
aF-1.3546747427214525
aF0.49342483086050615
aF0.6420786244607084
aF-0.7661849991847525
aF0.7214770259709457
aF0.08659847937053934
aF-1.652973841299186
aF20.123884523741324
aa(lp124
F46.80267462247606
aF0.8337274427143873
aF-2.9826531126968585
aF1.14827028228559
aF-2.2506585639715864
aF-0.7071850685723307
aF-0.07933443155484945
aF0.4854890620320602
aF-0.08247509452136867
aF0.6467652187288482
aF-0.12191669014805845
aF-1.3429408761565744
aF20.427222019172437
aa(lp125
F47.51453982833806
aF1.7398478332687588
aF-4.009210881018317
aF0.32883855137673146
aF-1.7298096022504805
aF-0.7721205273955094
aF0.08071090890843043
aF0.9742863612819682
aF-1.0716101960207878
aF0.19963742847251476
aF0.7001335488852548
aF-1.348119831636527
aF21.017282978975675
aa(lp126
F46.44718264578443
aF0.9170154899562879
aF-3.464240815648096
aF1.5161014121601761
aF-1.815124546021903
aF-1.2867220668678816
aF-0.7169222236578479
aF-0.41581073398607765
aF-0.8365249393555152
aF1.189542863130054
aF0.6004871096227402
aF-0.9335253783806774
aF20.70543372232482
aa(lp127
F37.92669733040013
aF1.1310621233672293
aF1.7282736548109885
aF2.08450183746702
aF-0.9978305150083513
aF-2.1416569768542852
aF-1.01237549689859
aF-2.782115835805284
aF-0.755553873501759
aF-0.45387994124103703
aF-0.4343813649690784
aF0.12619722625302232
aF18.031043774281642
aa(lp128
F23.42814108937332
aF-6.4365570567636565
aF4.485823079158893
aF1.6079130619220616
aF3.8440975552426826
aF4.211636552275032
aF1.8665241873158704
aF2.3441723616613315
aF0.6340520449938933
aF-0.9047605452590346
aF-2.055955754657403
aF-0.6730312322029263
aF10.623703416927157
aa(lp129
F37.02524128884931
aF-5.2940611500668044
aF-6.66457200501853
aF-4.477755167411845
aF-3.167354169294329
aF-1.5837521548285813
aF-0.42713485931544737
aF-0.09847041923897432
aF0.05845927476606444
aF1.6967840299661638
aF1.592413776239864
aF1.2566120977379631
aF8.121307840692118
aa(lp130
F34.153777312995395
aF-2.8264299050813935
aF0.3253776898025733
aF2.236957312171394
aF0.6891539616510821
aF-0.18299167346042755
aF0.13375073345759875
aF-0.3392793745480734
aF-0.9477616300436149
aF-0.8215553002264449
aF-0.4205599103830917
aF-1.0941045474647986
aF15.146989414612543
aa(lp131
F34.35831237742498
aF-1.5576113506869373
aF-0.7190673593993465
aF-0.4205505663495762
aF0.7077017261337015
aF0.28208643308154635
aF-0.07921382921574781
aF0.1541478184795873
aF-0.19724082799588877
aF0.9587915220957361
aF0.5695731261983774
aF1.0559927044101696
aF12.815633828872715
aa(lp132
F31.530331155849318
aF-3.137863999662498
aF0.187968510670255
aF2.710388937954819
aF-0.4368070451497427
aF0.42355153757082675
aF0.2543129305330077
aF0.10370562995360229
aF-0.7330110662248409
aF-1.6709643726652101
aF-2.555671675870676
aF-0.8939285187472081
aF14.099613194802846
aa(lp133
F35.45741745413168
aF-3.5713866722162497
aF-2.8265228127467124
aF-2.2284937235683486
aF-0.8091469156316001
aF-0.17824179979135915
aF0.639204995762658
aF2.1552272242115684
aF2.21810020767989
aF1.3832483137941918
aF1.0786655569393615
aF0.8422330790215691
aF10.814646542381482
aa(lp134
F37.70042468796488
aF-5.2636694590136734
aF-1.9572155484573726
aF1.6391646954137489
aF-2.2970225159843314
aF-0.9420305012324048
aF-1.4909582325345567
aF-3.2635070306717218
aF-2.0051718692787386
aF-0.8716923139732103
aF0.06006362158600223
aF-0.12891943474883386
aF14.899207072136777
aa(lp135
F47.30220560559309
aF2.3909450074677214
aF3.209069070771961
aF4.233059530384125
aF-1.4462019240429334
aF5.5501618627586495
aF-2.0047401900291293
aF0.811599003365359
aF1.9662863515093179
aF-1.708452993939625
aF-0.7334678759683757
aF-1.7810437910605925
aF22.109447883294955
aa(lp136
F33.267444375324004
aF-7.468230449855724
aF-4.933682777334821
aF1.0162727677186345
aF0.2605880771073621
aF0.14136300423987525
aF1.643125662539212
aF-2.1378854587752745
aF-1.357529666072689
aF2.0190176767923997
aF2.6139764660057256
aF2.289004691074029
aF9.02592420434283
aa(lp137
F36.52241781600666
aF-4.047366356233902
aF0.8861791523741696
aF2.6616279572650976
aF-2.553387506410126
aF0.908606506074424
aF-2.4588820281782993
aF-1.5817043517207305
aF-0.5522346749415799
aF-3.318458672200794
aF-1.893487287087849
aF-1.707428766916565
aF16.569454123603048
aa(lp138
F41.793204782034714
aF-6.614923932498053
aF-2.243311116934007
aF3.2620498570479306
aF-4.578136944740427
aF3.197234750923461
aF1.8353700565750515
aF0.8746712736467186
aF1.687717114417938
aF0.7351967594455958
aF0.8124951415289859
aF-0.32031253547150607
aF11.737257194197134
aa(lp139
F37.296308728117815
aF-2.803711797945206
aF0.4542915243014505
aF2.051348934148531
aF1.4887769652145448
aF3.244939427018615
aF-0.04279882704315863
aF-1.2068259949987281
aF0.18690714871089276
aF0.44295070748150145
aF1.847806246570803
aF0.15683784679897195
aF16.938298651643457
aa(lp140
F33.60780093016917
aF-5.194931062141296
aF-0.7259771921292294
aF0.6493998846431963
aF-2.397898775473238
aF0.41607082104129134
aF-1.2501944720121112
aF-0.01396526095529027
aF0.35235154581059513
aF-1.0174755651679783
aF-0.3609645021337393
aF0.7753975608137185
aF10.35517558823855
aa(lp141
F39.87517530932998
aF-3.00911650420582
aF-1.5624605704290704
aF3.1357196676931216
aF-0.8100528454208471
aF2.1535255874814334
aF0.3517591967181315
aF-2.0247826407323535
aF0.06749540710419838
aF-0.5438075600107998
aF-0.6294797597647526
aF0.09820936223725962
aF15.72434893828685
aa(lp142
F35.62019974881638
aF-6.850778081280788
aF-1.4165336639353907
aF1.4051771924465353
aF-3.9343059904148685
aF2.547547073295361
aF0.6411121020576801
aF0.8584684829141859
aF2.422215780282035
aF0.6884237084986217
aF0.8368048901600837
aF0.23269702466686296
aF12.163132461130585
aa(lp143
F36.97898292144408
aF-3.4067036134316666
aF-1.1578187440142413
aF1.1809305058053323
aF1.094880900690895
aF1.1878753817166385
aF-0.7542290636723261
aF-2.6060902938511923
aF-1.0006062594073806
aF-0.100522074434053
aF0.019699473683124705
aF0.21214056826738303
aF13.676179645453113
aa(lp144
F35.75791027946764
aF-2.8456593902195353
aF-0.4555410761839196
aF0.12987866320331154
aF-2.1625611335388957
aF1.2885201826251391
aF0.9773295667483808
aF0.9347939347592575
aF0.9767008483702437
aF-0.42162973161741224
aF-0.45509583257509634
aF0.682527491997765
aF13.705116731912714
aa(lp145
F34.8097138230632
aF-3.727004067218483
aF-2.1984434191503284
aF-0.8598849435733882
aF-1.4530399768647968
aF1.9012298202566353
aF-0.0035144819472464617
aF-2.545464025241639
aF-1.5004966802289796
aF-0.5895792469772096
aF0.9428798682414565
aF0.04231957474495551
aF11.520054324920974
aa(lp146
F34.59246058729482
aF-3.8356561565864142
aF-0.5708837599981911
aF0.8510920420700285
aF-1.3236411400388086
aF-0.7617084558147051
aF-0.3644747105144529
aF1.1402054074054335
aF1.1619810923149057
aF-0.4369461243716957
aF-0.7861980030688538
aF0.48014081479058474
aF13.25645457270709
aaa(lp147
(lp148
F37.688356427472876
aF-5.543653305947415
aF-2.501905405249569
aF2.763289727253916
aF-2.3960868400478725
aF-0.04723788002646516
aF0.14246065177823217
aF-1.0375013481313462
aF0.1343313539696863
aF0.33882819241672224
aF0.07244686954106115
aF-0.2404762945781059
aF13.078775468692221
aa(lp149
F38.19424158151532
aF-3.3307441522921284
aF1.6980723917294624
aF3.5973999550739797
aF-2.5924588136512248
aF1.1357154373028273
aF-0.23035120529880862
aF-0.11814632435690042
aF-1.109012959279275
aF-1.5216246248072332
aF2.1562726367300664
aF-0.1543235325120263
aF15.953158891354034
aa(lp150
F45.067104892276674
aF3.2597275732243913
aF-1.244258508297272
aF2.796364598442211
aF-0.4541914916998788
aF-2.68808199641417
aF-1.2184361890162716
aF-1.1942958468444167
aF-0.5732847027859649
aF1.014863164081288
aF-2.2677208177997077
aF-1.3204347316649945
aF22.934296193764006
aa(lp151
F52.75440066620101
aF4.35603347099281
aF-8.480811694466613
aF1.8570776147837331
aF1.085203199166139
aF-6.961866034728809
aF-1.2128975188585263
aF0.2644997033627305
aF-0.6986505612137603
aF3.7112222692451375
aF-0.21939646527604184
aF-1.4128005648340989
aF22.969408278529244
aa(lp152
F38.53035572889314
aF-1.0928603507353256
aF1.8316797532872182
aF0.7081781061445209
aF-3.2247990596592673
aF1.9559078125151603
aF0.8466260484135868
aF0.06885538998071394
aF0.4524213261357977
aF0.13004510906367517
aF-0.5341402769368929
aF-0.7964785290337313
aF16.99465265131673
aa(lp153
F51.40125772427333
aF0.316028044922366
aF-7.554284108604426
aF1.7882668493145868
aF-1.3457837399747774
aF-0.3095883466373017
aF0.15932335400429515
aF1.585329561659779
aF0.027499546114767084
aF-0.16258880359192318
aF0.5044309482930176
aF-2.5182076998856187
aF19.684771012896288
aa(lp154
F45.36882545764657
aF1.546733736505333
aF-2.7777441200907176
aF0.5896061754425255
aF-1.3132946821685303
aF-0.7275155385222164
aF0.45589543677349387
aF0.7268295838342045
aF-0.28404034826846236
aF0.16500925701396973
aF-0.6742957568715005
aF-1.0534214453353699
aF20.12459590159977
aa(lp155
F46.98009097171499
aF1.4100843522290092
aF-3.5094058753215447
aF0.6097047737569544
aF-1.4208161455265127
aF-1.1729799899598072
aF-0.2562983467165203
aF0.8130755816057937
aF-1.072388854778038
aF0.9209220649484664
aF0.3227499990080036
aF-1.5474030824276257
aF19.847921734044984
aa(lp156
F47.753576051868166
aF1.0790993105650555
aF-4.053398604153948
aF1.2435977942101943
aF-1.7512375328682255
aF-0.8404924745703162
aF0.13379328490901643
aF0.301008752889918
aF-0.12369872839248508
aF0.28633897971956435
aF0.29101510954953713
aF-1.484629897000587
aF20.379178087073335
aa(lp157
F47.23890132244969
aF1.0247905820814538
aF-3.7201640729704173
aF2.217506806355288
aF-1.871969622817205
aF-1.3137355069581642
aF-0.39457727787530417
aF0.08100656049788407
aF-0.2986352706068732
aF0.5015506691120752
aF0.937391462295232
aF-0.7943247766213573
aF20.77939418846711
aa(lp158
F39.021369274132205
aF1.8075203932381108
aF0.22644459186745935
aF1.084934673261602
aF1.576245212054542
aF-1.6343889181056959
aF-1.5329154502310862
aF-2.123016807319745
aF-1.7240117235734613
aF1.2444848291742454
aF0.5007035764321393
aF-0.4020271846901893
aF18.621617616874182
aa(lp159
F22.48050431354423
aF-6.602905115349686
aF5.492746497779537
aF0.8353099403091193
aF1.1369825881542908
aF3.089083224281689
aF0.2999113092122745
aF0.7482060408950902
aF0.6346912661813704
aF-2.7231306562326907
aF-2.526353325454796
aF0.5800485270532475
aF10.469654932121816
aa(lp160
F39.02332757453585
aF-3.151141381799663
aF-4.595697548471522
aF-1.3430991689475897
aF-1.549254185610292
aF-0.08387149172364716
aF1.0839417251866545
aF0.7898991959384124
aF-1.4623308527181613
aF1.3960327366912595
aF1.3754490282261391
aF-0.7681949933697076
aF12.306826742946992
aa(lp161
F34.446454174075704
aF-1.6710706103109476
aF-0.6974490031269619
aF-0.3132453923639864
aF-1.3692686177537046
aF-1.8384088417551814
aF-0.9697930663240678
aF-0.08059080590227008
aF2.26610353762285
aF0.9459991477335155
aF-0.7878247848739931
aF0.03397252280726831
aF12.736297010465004
aa(lp162
F32.06365029783561
aF-4.476944519990024
aF-2.245295473869331
aF1.2442748103316088
aF1.5926263309174342
aF0.84801267315813
aF-0.5767432520079006
aF-0.6012838550293921
aF-2.7081321872548285
aF-1.1281515058559242
aF-0.07737934792772491
aF0.044329151151760664
aF12.256614242704055
aa(lp163
F35.082373869474026
aF-2.039677462980754
aF-0.06877550797436571
aF-0.9420038250738685
aF-2.2022360886570183
aF-1.0088923035242712
aF-0.47046926687286406
aF-0.21707619929113853
aF0.9541735595168511
aF0.28808463890511715
aF-0.47952086533334015
aF-0.024976799607178343
aF14.191209753477022
aa(lp164
F32.00916000865006
aF-2.555740925514999
aF-0.17353623101163207
aF2.047923989242685
aF0.8630834925434973
aF1.0523491237568476
aF1.7733393047533945
aF2.1902147771054117
aF1.024137466643729
aF0.8415809606775948
aF-0.30362239615596553
aF-0.24085101514173796
aF12.278657680582219
aa(lp165
F32.92383053660573
aF-3.2699653128983797
aF-2.6379577223974473
aF0.5923808470509704
aF0.012309202539848324
aF-1.5396655504389996
aF-2.793194944335559
aF-1.719932895019352
aF-2.3039541981314198
aF-0.4213618405221627
aF-0.12104720534672192
aF-0.5713902242206674
aF11.702468585390546
aa(lp166
F39.10367548235454
aF-6.344161535307403
aF-1.321282397654866
aF1.1120631818319553
aF-2.8972205163821774
aF2.1602847913409504
aF1.2487367613613625
aF-0.3377624435553642
aF2.7315690632672815
aF0.7389398936108503
aF1.069131342901087
aF1.7507900031588126
aF13.346161109203404
aa(lp167
F44.61728332355149
aF5.42561068207662
aF4.751394204325814
aF3.767754665481111
aF0.7401343553887458
aF1.4922531959801602
aF-1.7773338403695675
aF-0.7342857730531474
aF-2.7089533861402257
aF-2.240971533488387
aF-1.2018942046063543
aF-1.5372625282439518
aF25.830471469971997
aa(lp168
F35.56520499155798
aF-7.277812079293517
aF-3.099346744636664
aF3.2544231113150426
aF-1.050085257279296
aF2.0386251589591153
aF0.02485501104782728
aF-2.843246182045534
aF0.3153901010938271
aF0.22312730124947322
aF1.0769515285597169
aF0.32339222000074114
aF12.0163696248819
aa(lp169
F35.14753644952996
aF-6.065842981838266
aF-2.862040361337492
aF-1.0279614482372694
aF-2.9829190372192773
aF0.10965157773941447
aF-0.21047775568102145
aF0.05747862746509336
aF-0.6543416990202388
aF-1.478782240698584
aF0.7108385016714115
aF0.07687697477924262
aF9.933175498932757
aa(lp170
F39.46024228100596
aF-4.415655757778942
aF-0.7006496713310517
aF3.506100035906291
aF-2.241933950970763
aF3.5957664553585156
aF-1.0427618842847843
aF-1.2213141226173418
aF0.005483539715038066
aF-0.6775062025630384
aF0.08738378433699012
aF-0.27228312746699845
aF16.388118644148236
aa(lp171
F36.88307584713641
aF-4.627680116992052
aF-2.017393974512146
aF1.2083998871325636
aF-0.6767846264857229
aF1.7085361311694047
aF0.7083935082094425
aF-0.8570686759589909
aF0.6240796708048979
aF0.27830347290436275
aF1.5032730557518854
aF0.1497570970895219
aF11.066562280367028
aa(lp172
F36.915491033472634
aF-5.38238129302028
aF-1.699731502710727
aF0.6209194633893826
aF-2.831268652074776
aF-0.8260952695725232
aF-1.3430747538723231
aF-0.6912227564230746
aF0.0753305108050702
aF-1.141036985410874
aF-0.6525171551533339
aF0.7010549371443129
aF13.288768878700893
aa(lp173
F33.57022004399174
aF-6.412492039563027
aF-3.3719163636708265
aF-0.03538383243277954
aF-0.9848969282065927
aF3.0932215221756056
aF1.2078624379275675
aF-1.4326461986935164
aF0.4140719442321369
aF-0.14504948364295678
aF0.7414948202640339
aF-0.002095650124578574
aF9.714891086849509
aa(lp174
F38.02519423859304
aF-1.9608357869325186
aF-0.781930035151585
aF-0.73183367890602
aF-4.354490529970835
aF-0.5853578717408635
aF-0.8488850819506093
aF-1.6345696119928892
aF-0.002383098409164175
aF-0.3039794257451848
aF-1.3461063804271172
aF0.023485135008612823
aF16.177900181652817
aaa(lp175
(lp176
F36.236562855122145
aF-4.664167314348419
aF-2.800292475325214
aF1.5360098137676428
aF-1.9880951015889818
aF-1.0356784729797561
aF0.7916296356602185
aF-0.6690092512785025
aF-0.7794824646274285
aF0.19847277641916145
aF0.06564496507950683
aF0.14395960524754237
aF12.863818193746907
aa(lp177
F44.65298737663292
aF0.9104317348982769
aF5.233539426614097
aF6.761390984991255
aF-2.4806898734999354
aF0.6577091164745628
aF-0.2714387329523523
aF-1.3319582937460117
aF-1.7935643606647032
aF-1.4479435713644944
aF0.0668478982944423
aF-1.712215165555758
aF23.374291347562803
aa(lp178
F36.3454039979644
aF-1.5494385689817023
aF-1.8926414175044783
aF-1.3407562872182242
aF-1.7934562872804787
aF-0.9897406982513908
aF-1.7415003164470109
aF-1.981381357440911
aF-0.7255139311411731
aF-1.0647427774744156
aF-1.3179837508940924
aF1.339892585878287
aF15.737602195435377
aa(lp179
F53.51491880401497
aF5.0809768806777615
aF-8.272029268928803
aF2.4636927911397333
aF1.338927954096018
aF-6.9628603240565194
aF0.34275210846635584
aF2.7245981093447407
aF0.0020287560132137283
aF3.9099461499794304
aF-0.49095269044443907
aF-1.7800276390171028
aF22.924013198170982
aa(lp180
F44.86117888839642
aF-0.662832219320719
aF-4.062652829715944
aF1.3856529714762937
aF-1.3086604788475573
aF1.1734912797690455
aF-0.09241379800478239
aF-0.16789028150982443
aF-0.4258770939470943
aF0.6430606530429298
aF0.3043428771919695
aF-1.1874255166728485
aF19.037811805062343
aa(lp181
F47.30631840409765
aF1.393094454407096
aF-4.985000694731109
aF-0.8121498502936149
aF-0.46107335672570704
aF-2.2840785511764925
aF0.48339825129234615
aF0.35100851229402646
aF-0.9171062657305806
aF0.8608911751846754
aF-0.7524744781555548
aF-1.6611757564742273
aF21.614790209876265
aa(lp182
F44.392395541518276
aF2.7819242350983377
aF-4.623460881111195
aF-0.6003141889339232
aF-0.29583137605996396
aF-1.483407625463755
aF-0.10622473467972515
aF1.593853571704201
aF-1.620506044018517
aF-0.10903168140944952
aF0.03846726705396236
aF-0.8711899513223221
aF19.58491363368102
aa(lp183
F45.878042697441025
aF1.6179073670325324
aF-3.999923368075467
aF0.7662594150871406
aF-0.9138064459057524
aF-2.1311879710857418
aF1.5370088301425135
aF0.11007542402577764
aF-1.3881052833355985
aF1.6334812135392438
aF-0.6689615891645599
aF-1.0399320555683238
aF19.904998246732937
aa(lp184
F45.44758732022243
aF2.218807726747274
aF-2.798212431109193
aF-1.0615524449093399
aF-0.9487075277075219
aF-1.2064781871047654
aF-0.05779095373799459
aF-0.42176178072323967
aF-0.9167759464599919
aF1.2798172270921313
aF0.23652199984466893
aF-1.4547929502976686
aF21.31247191677541
aa(lp185
F44.530307811709335
aF1.5944024987588548
aF-3.2538427447725122
aF1.0582181253934992
aF-1.3025468081017593
aF-0.7257307085282285
aF-0.3283549253836871
aF-2.181305878887884
aF-0.7449578197462958
aF1.69365520989037
aF-0.24108675628730988
aF-0.41838179707322887
aF19.263373691115266
aa(lp186
F29.968413983978117
aF-1.3627087613994413
aF5.738180576252661
aF2.0792182659165395
aF0.5632142589840303
aF-0.8838649217212955
aF-1.878130846946828
aF-0.27381496931609295
aF-1.3300879911817804
aF-1.6501096993036586
aF-0.28207283466783123
aF0.26512313879452915
aF15.181680820612844
aa(lp187
F30.3970333253365
aF-6.965129592470557
aF-2.696780688546006
aF-0.4885190819157418
aF0.6633571956817762
aF2.6016865432579026
aF2.636523930041194
aF1.1850522344497714
aF0.5386012208126977
aF-0.2802660529354358
aF-0.8200479169869096
aF-0.05801637658607897
aF8.972396752228907
aa(lp188
F36.07479312925752
aF-2.156618648410367
aF-1.635911038729947
aF-0.8323175297179073
aF-1.2210451115546033
aF-2.495614675758368
aF-1.6816053035662872
aF-0.1921460711878725
aF-0.13398192534522055
aF1.7796930786251262
aF0.3625989582837023
aF-0.1345728583470424
aF13.271393508844197
aa(lp189
F33.297805974130334
aF-4.7686888764557605
aF-4.003808999507305
aF-0.12920969701773133
aF-0.01810288128023252
aF-0.19070912871039525
aF-0.13380361337062324
aF1.523427116168984
aF2.338670810889301
aF1.3244411416513011
aF0.8533153920610672
aF0.07413961956297858
aF13.414370421699205
aa(lp190
F34.1009313682799
aF-0.6434888804806125
aF0.5327422443353875
aF-0.0833018374522643
aF-0.5534335848276284
aF0.4845400130851966
aF-0.8223547897019777
aF-2.690268479454157
aF-2.18672128103821
aF-0.4770556624978596
aF-0.617141975711445
aF0.24564656104667926
aF13.265263563076068
aa(lp191
F32.73430010842547
aF-3.5000033081137683
aF-1.0458693532485888
aF1.016294509899513
aF-0.6179087428957915
aF1.2533834930420626
aF1.2561408631992605
aF1.9732434606937619
aF1.4258703296765698
aF0.7231185491847395
aF0.07144844220629802
aF0.9249644226498388
aF12.290542844469659
aa(lp192
F32.69829729049168
aF-4.916586264359027
aF-2.3422968331071763
aF-2.388511788571862
aF-2.203521793643521
aF-1.8627367072851444
aF-0.7327532473411917
aF-1.2727200031698358
aF-1.1110357430196163
aF0.14380841080337264
aF-0.03903287637034982
aF-0.29462812971912966
aF12.117174094466453
aa(lp193
F35.117092800837746
aF-4.337920905871915
aF-0.28049192837377124
aF2.628071835789167
aF1.274686186052527
aF2.9856150492253857
aF0.5647184539027152
aF1.820669558384556
aF2.462518803661127
aF0.4182837283470231
aF-0.34843919362408393
aF-0.3378716269029234
aF12.974998769704092
aa(lp194
F47.03801356198464
aF-0.5279189511258147
aF-3.535207547371756
aF1.237105412561153
aF-3.4927337800458718
aF1.2406805855857685
aF-1.2390387902049094
aF-3.631183050919534
aF-2.659812550173575
aF-2.9038291164445282
aF1.3550730343234871
aF0.13114732882390628
aF18.415361528051207
aa(lp195
F33.02831813867176
aF-4.902518230528118
aF0.9502562910114034
aF2.1988793100705677
aF-0.8178644959592204
aF1.3800180061446727
aF0.8164352110747083
aF-1.3341881301891316
aF0.853043871110921
aF0.225299077455971
aF-1.7638743716681435
aF-0.18273091405002995
aF14.452960266892152
aa(lp196
F34.69659696137019
aF-5.3017906982199925
aF-2.553356493048118
aF0.4820992223560978
aF0.4174184451323296
aF3.8659434885752537
aF0.8544741217677158
aF1.5997211982292472
aF-0.14343145308840372
aF-1.0284403383187894
aF2.7663384190420555
aF0.7451981745420158
aF11.033960588009876
aa(lp197
F41.27982927973955
aF-3.9876429966559743
aF-2.4623046676676292
aF1.4250024459943844
aF-2.601982194132048
aF0.8912398327256383
aF-1.0086552740711856
aF-2.085546559971373
aF0.19949694509310273
aF0.6276910659838181
aF0.8932763658849108
aF0.10719204389863776
aF13.784957733221686
aa(lp198
F33.14588743317566
aF-4.579127344450274
aF-0.26680846639224187
aF0.923571429924376
aF-1.332654727691141
aF1.9322097945240988
aF-0.1629271062088271
aF0.4971539594121349
aF0.468452461364512
aF-2.434195028268488
aF-1.6189307181412058
aF-0.4031713877818241
aF12.567690249030479
aa(lp199
F37.00466477229402
aF-3.9907013829872895
aF-1.4791527230673285
aF0.24219797718961023
aF-2.504170381792151
aF2.5700466290692825
aF0.8560438826823673
aF-1.1034671276392662
aF-0.1146228898211123
aF0.9275098868203856
aF2.333536340555611
aF1.8575980533607535
aF13.572565293284098
aa(lp200
F34.14959373918033
aF-5.939536628444036
aF-0.9475735024113621
aF0.9680234350382609
aF-0.16316526219221061
aF-0.4247236579786988
aF-1.4254380163328337
aF-1.0552782087074233
aF-0.2688148495490602
aF-1.4885678711457966
aF-1.3675550526280704
aF-1.6300268664031772
aF11.492240738310706
aa(lp201
F38.037587666210996
aF-2.6386785987546864
aF-0.9146867122382742
aF1.2143862341635105
aF-2.8309726934473565
aF-0.46919118246383196
aF-0.5530170348761836
aF-1.141041458700735
aF-0.7867330339357822
aF-0.5692567770106667
aF0.13455806999199646
aF1.4996034510164953
aF15.787917393658955
aa(lp202
F32.14061969854174
aF-6.709090584527999
aF-1.9723379206920215
aF0.9451182393704435
aF-1.3415642790677391
aF2.820737824970055
aF1.210255098427154
aF0.25563030694822886
aF1.1806956444719032
aF-0.37472829026313115
aF0.2706289897208076
aF1.164796892855169
aF9.369802028794973
aa(lp203
F35.703098055034204
aF-3.180846456862998
aF-1.5042544604377337
aF-1.1261616930989746
aF-1.458997230754214
aF-1.3196185898312551
aF-0.5875615865861681
aF-1.846734330346167
aF0.052557382284144416
aF0.6459162820360129
aF-0.9976767144554477
aF0.07769342151256498
aF13.718612131452552
aa(lp204
F32.66895939211479
aF-4.194778568659672
aF-2.4725828169915602
aF-0.5279676262225561
aF0.652313830312846
aF1.2907958930025614
aF0.6056087742222722
aF0.9125582283679539
aF-0.4703019194832011
aF0.8610633393360747
aF0.7793896953816783
aF-0.3717728297833179
aF10.762492633351586
aa(lp205
F34.87726921052944
aF-2.9086233808632653
aF0.23323970768037805
aF0.29481084056397777
aF-1.9720312883603865
aF-1.0175011796249471
aF1.0716089179495847
aF0.4268860039522247
aF-0.3847927647582893
aF-0.33662866335731795
aF-0.15426601046029734
aF0.7997329044939021
aF13.723806973539714
aaa(lp206
(lp207
F38.60977973400328
aF-4.71903395861199
aF-2.588526793833553
aF2.6545675012976
aF-2.106673022593852
aF-0.4478047563386425
aF0.11913605835340664
aF-1.2343099079613873
aF0.3264085293931467
aF0.6180981801853833
aF0.0036282615319186886
aF-0.16280236691168376
aF14.0756394557607
aa(lp208
F41.97000264814981
aF0.06449461686997049
aF3.3839769168738347
aF5.535248673304946
aF-1.467444329842285
aF2.310027604049965
aF1.252925864634233
aF1.0796877275834174
aF1.1328404910061753
aF-1.379104874726821
aF-0.2411260110563559
aF-1.010693447148998
aF19.828085545192373
aa(lp209
F40.92371237518476
aF1.288685656299587
aF0.9173334845053915
aF-0.2479476254602857
aF-3.0101998825938665
aF-3.046803270592335
aF-2.3296547681834316
aF-1.3882760178029034
aF-1.829949852557426
aF0.4659831684288132
aF-0.49706013322013803
aF-0.6558823541727101
aF19.646836658211015
aa(lp210
F48.797566613754
aF3.0379253407648923
aF-7.279028418242804
aF2.6657123924976074
aF1.4906732983094497
aF-5.899699335583501
aF-0.17412981562362717
aF-1.5549801729166117
aF-1.0071578728902355
aF3.2179288417510747
aF-1.641090767525408
aF-0.9205325969319075
aF22.09761844681833
aa(lp211
F46.81795215335242
aF-0.4528138100107868
aF-4.361391470139879
aF1.274813891422529
aF-0.5487849177277113
aF0.324320350806131
aF0.4535798149499356
aF4.105428299488984
aF1.259170571317255
aF0.8618146443972703
aF1.1327971460122397
aF-2.051733570799213
aF19.27747765662652
aa(lp212
F43.029001659088195
aF1.2833361768243696
aF-0.9594558005192815
aF1.5995683704847643
aF-1.2176248715519369
aF-0.6635404889339418
aF-0.83052823055399
aF-1.2606527512424914
aF-0.5359289063965156
aF-0.5015725776836693
aF0.02080267081431411
aF-1.3681846438415923
aF18.97989047605967
aa(lp213
F45.50262304045373
aF0.8798786632065063
aF-2.9504624595508337
aF1.312098795961803
aF-1.6094758927424286
aF-1.0998463614374494
aF0.32177598402517776
aF0.9785842555408105
aF-0.048157325791128885
aF1.0094045765882085
aF-0.9566992573358476
aF-1.2880622837101388
aF19.785448467089495
aa(lp214
F47.33029441055038
aF1.4507627173726039
aF-4.481020615392775
aF1.0679743600410525
aF-0.9399980779953903
aF-1.1415821726587583
aF-0.03894536734449176
aF0.7350102779226148
aF-0.8226941464283404
aF-0.08507927843042351
aF1.559397022936653
aF-2.4086501018853888
aF20.10893122956123
aa(lp215
F46.33962178015878
aF2.241695411623482
aF-3.708694124361067
aF0.19976591169600144
aF-0.9987480292113912
aF-1.8087923932877004
aF0.38465119378425316
aF0.6859942923860363
aF-1.0109294653253476
aF0.9099112550717314
aF-0.054277006105734216
aF-0.6058724240019637
aF21.051669055462984
aa(lp216
F46.94125446317349
aF0.9541676246917297
aF-2.822984566146222
aF1.4446937180856747
aF-2.597144355501566
aF-0.6628566617820957
aF-0.4788293249806773
aF-0.5906630267113081
aF-1.0318856503582063
aF0.7432533230927608
aF0.7323450686633046
aF-1.04449519316038
aF20.78757577565151
aa(lp217
F34.096947845539205
aF1.3072188833205307
aF3.0802162761048235
aF0.7869951757009234
aF1.6507137120290805
aF0.6343549613145629
aF-1.0773849216763094
aF-1.0113322506382807
aF-0.48900297509553003
aF-0.9879648682922244
aF-0.6818560805132887
aF0.14692752091537598
aF16.411361513504353
aa(lp218
F23.808423988844538
aF-9.144964266479413
aF0.8269747368732707
aF0.2179466492801535
aF1.6628365600437216
aF2.173746508529137
aF2.730174769569582
aF2.446498955365496
aF1.2314724200621177
aF-0.2544946957001805
aF-0.9464783827199545
aF0.0768993629981955
aF7.155519293138854
aa(lp219
F40.049425527212854
aF-1.2978235772564455
aF-4.742991602386265
aF-1.5489841618928848
aF-3.1883446520386407
aF-2.1995368913340148
aF-2.4404285366570586
aF-1.1755366255976172
aF-1.305741738361206
aF1.8870713105750099
aF1.5115002979395191
aF0.42653713917499464
aF13.171963618921156
aa(lp220
F31.463248678221703
aF-3.445761242581816
aF-0.9661211079380719
aF0.5778619339344201
aF-0.43110204728543533
aF-0.08487262423722397
aF0.94298285528948
aF-0.7884262586019789
aF-0.08828251583915805
aF-1.447076513833616
aF-1.5586046756991827
aF0.47704460869505094
aF13.259057325137777
aa(lp221
F36.26415702517366
aF-1.4574284660672063
aF-1.310049125188888
aF-0.2639185940809335
aF-0.22451403104926526
aF0.055849763107415906
aF-1.1607320960677474
aF0.8744838990415377
aF1.4879881015781626
aF2.238230808369331
aF1.1176337643856211
aF-0.20439144612853094
aF14.437888785093465
aa(lp222
F31.64869315007791
aF-4.292613402493391
aF-1.8673916450627694
aF-0.8830586510154069
aF-0.21859406746434396
aF-0.12642139619052628
aF0.05766265384973107
aF-0.1287081540655227
aF-1.8329177204932248
aF-1.4136713240872916
aF-1.606427976642376
aF-1.3591780456726499
aF10.67191771382188
aa(lp223
F32.21374954432546
aF-4.126334869908881
aF-0.43303882321381737
aF1.5490654014840555
aF-0.5593471270148929
aF-0.1262286782418985
aF1.3777842109742764
aF0.5097050841167146
aF0.00736074173512713
aF0.9338849302485228
aF1.4177452417799492
aF1.923012692840056
aF11.949211411324978
aa(lp224
F50.89930607148925
aF-3.6908156588286727
aF-4.3734526086300285
aF2.3908703421016417
aF-5.237398307122771
aF0.7901287192329616
aF-3.3992308409462617
aF-0.9356247783309876
aF1.328357475130864
aF-1.8363946138598175
aF-1.50145685820342
aF-1.7015375592942754
aF20.732266839771093
aa(lp225
F37.585787363248215
aF3.13725248603823
aF5.881845356716541
aF2.9354471729848832
aF1.4874629593810846
aF2.1213000150454677
aF-0.41924846592523335
aF-1.062118608681977
aF-0.6373010785264591
aF-0.41644976199688094
aF0.33872870969053576
aF-0.08416321899693013
aF19.464413079501913
aa(lp226
F34.660461412251266
aF-10.27764677224714
aF-5.6443658254896665
aF0.1541367216255214
aF-5.8394695998843
aF0.7126403171130379
aF0.8966746649059919
aF-2.928290803670421
aF0.6959377972588943
aF-1.4263445941365755
aF0.23893744496318273
aF0.8494603912539762
aF8.60529884222027
aa(lp227
F39.34570936958248
aF-1.3013958375312518
aF0.11993699421780124
aF3.3053885046153004
aF1.4394236160394964
aF2.3538841916458364
aF-2.1770392600306208
aF0.004234282713880155
aF-0.3369484641451039
aF-0.3500688264560101
aF1.2247883697908821
aF-0.08785548155466388
aF16.386890039046193
aa(lp228
F40.23014589051872
aF-5.953113295860563
aF-3.198795511361289
aF1.4840959916801832
aF-3.6138333589018323
aF1.393173002834229
aF1.696211984318671
aF-0.08678727678502896
aF-0.13433978803265412
aF-0.725911355933643
aF0.9205894798087609
aF-0.6340075375419674
aF12.748405272230613
aa(lp229
F36.16305068328788
aF-4.421593578668744
aF1.1478728517667207
aF3.223547140421757
aF0.13658193968450116
aF2.572577780489903
aF-0.9057408641108341
aF-2.0852921188706106
aF0.5768590578892616
aF1.0385127964866459
aF1.6707351210186088
aF0.8553354435823317
aF14.943753514575834
aa(lp230
F37.94146271736017
aF-5.699342094184189
aF-1.5222485428420942
aF2.293089644760845
aF-3.784494439245619
aF2.3018980194412313
aF-0.6840998105724712
aF-1.0135337043195283
aF0.031660609618652
aF-1.6987548317923093
aF-1.7208827207416935
aF-0.9089218892562031
aF13.605470656807535
aa(lp231
F36.795773779602406
aF-2.501585214985263
aF-0.7331984868343223
aF0.7776729376906324
aF-0.7708436200880662
aF0.857433313163809
aF0.6172288217354082
aF-1.213060888214442
aF0.49107720013321776
aF0.2958788521591099
aF1.2299494705393172
aF0.5982779036941624
aF13.373606131736699
aa(lp232
F33.549633989430305
aF-5.928920734403428
aF-3.583443236496566
aF-0.2550648003340643
aF-0.30874369498243404
aF1.6477332927294384
aF-0.4638588333562662
aF-1.605306591089429
aF-0.806707820408913
aF-1.1681085356421246
aF-0.4273908787704394
aF1.3340880236295294
aF10.598923452233299
aa(lp233
F36.02898231341271
aF-3.09929101738721
aF0.395858677137908
aF-0.07616366975820182
aF-2.841989125052507
aF-0.5034598784241299
aF-0.763798687313682
aF-0.6475286821239004
aF0.6816348137849942
aF0.8463782472885654
aF-0.1893519034988161
aF-0.8621742938558017
aF14.939885205434056
aa(lp234
F34.931147209917974
aF-3.2149946507924088
aF-2.3822788362507583
aF-0.1103153124434289
aF1.4332659695707397
aF1.2435531063296117
aF1.819667423534364
aF0.303154942605137
aF-1.1900925673071094
aF-0.3128644795772195
aF0.20765464852527038
aF1.433414541486279
aF11.5154350061413
aa(lp235
F32.37406419670052
aF-4.647160451035255
aF-1.2886029433776298
aF-1.376213725899409
aF-1.7620589489490777
aF0.5847154254550789
aF-0.5919821195993518
aF0.14680785375462302
aF1.0569182113124092
aF0.982786229652086
aF0.1379484240005159
aF0.31294663603094547
aF12.700107476441222
aa(lp236
F34.81666154255016
aF-1.9630308699791224
aF0.429086702264189
aF1.4783465540172869
aF1.1444125662189468
aF-0.06797031557123356
aF-0.5569677557372785
aF-0.6254787870492919
aF-1.822481907708794
aF0.002663811727548704
aF1.0042198296918405
aF-1.007044545321292
aF13.012508217837368
aaa(lp237
(lp238
F38.93171215157533
aF-5.556900141939048
aF-3.1336421599247086
aF3.48563924260661
aF-1.8775660151462292
aF-0.3877715709639223
aF0.34106693291037793
aF-0.8557524643490246
aF-0.6003557582021237
aF-0.6707437683253737
aF0.05541957554314264
aF-0.11690950597924837
aF13.72499542703482
aa(lp239
F42.913436671073654
aF-2.244147044863184
aF3.196553603033702
aF6.402605350554159
aF-2.622226592532746
aF3.1473419272389043
aF-0.7739980791612608
aF-0.23703201882482117
aF-0.30078665881444033
aF-0.5575620385432112
aF1.1645435818105194
aF-1.344941690063843
aF19.47306613609061
aa(lp240
F46.930118868221456
aF-1.9666619572625947
aF-2.155511729554299
aF5.570543266297827
aF-3.313942976092216
aF-2.1776450920011308
aF-0.820672477220421
aF1.852237649652063
aF0.7720247621073204
aF-1.0125118587567514
aF-0.28612247927827317
aF-1.2238760480634163
aF19.483065019934184
aa(lp241
F36.26093325072591
aF3.3361317649541875
aF1.7606599043503908
aF-1.451864185296773
aF0.589710401673541
aF0.49829011318339544
aF0.36529067089516126
aF-2.2147609821087433
aF0.3399390454088992
aF0.7325716551332423
aF-0.8235078050057595
aF1.0097729654784204
aF18.692330250020248
aa(lp242
F54.6003681920372
aF4.294060071958983
aF-8.15348586044407
aF2.307631548990446
aF-0.3998108876487051
aF-6.341521743281698
aF-1.0087776324453337
aF0.08301413135061336
aF-1.9236669595599492
aF2.797605280853214
aF-1.3183020979446316
aF-1.1763149149402399
aF23.79634183836341
aa(lp243
F44.48633994893709
aF-1.7278905504450397
aF-3.0458077794088103
aF1.21964148031683
aF-1.6107437973384524
aF0.5891290917195922
aF-0.43262510518864916
aF0.6427930183594872
aF-0.30870097964132354
aF-0.38802903088039953
aF1.0134663636000834
aF-2.4116530085809345
aF18.89276629679346
aa(lp244
F47.573092136586055
aF1.6709309927937925
aF-3.7384263424140594
aF1.0526627934693822
aF-1.3016034017491989
aF-0.6807835484579285
aF-0.0912530575776731
aF0.7222092500530459
aF0.08692319466990744
aF0.25673411899789655
aF0.051478919051112376
aF-0.9970639575923602
aF20.863022546205684
aa(lp245
F47.17697281766975
aF2.4558509645575524
aF-4.882938818602725
aF0.1594140971210516
aF-1.3373622525121145
aF-0.47294097839188176
aF-0.42590018698902277
aF1.2384057760496323
aF-0.47674661109414573
aF0.176559712125268
aF-0.4790790032081733
aF-1.4663333381422934
aF20.800634184819913
aa(lp246
F48.951493530925546
aF-0.27716344502043966
aF-4.059886442613985
aF1.7752683124906166
aF-1.913828839602392
aF-1.6053423758802214
aF0.6249887116050625
aF0.6636051950003338
aF-0.2849696872872483
aF-0.6556582340540744
aF0.07116930377796561
aF-0.9487041351073178
aF20.592168658273238
aa(lp247
F46.57106765283662
aF2.0646680530351107
aF-4.504328161307155
aF0.6913916060713314
aF-1.3677957808313188
aF-0.790713738354827
aF-0.07614872315248417
aF0.04055210990994651
aF-0.7258990132803158
aF1.1653644571203907
aF0.11332248241759733
aF-1.1304109618547853
aF20.64388494239032
aa(lp248
F46.745909119976965
aF1.6154656301482835
aF-2.6672824502644272
aF0.1581845674122413
aF-1.7178285554165786
aF-0.5797196799794659
aF-0.04607818676857786
aF-0.4714926469641417
aF-0.3384730987054002
aF-0.14615125861677142
aF0.21528905993263997
aF-0.4845464165189217
aF20.821540292385826
aa(lp249
F41.45343612729795
aF-0.4803379815232116
aF-0.8337924369007061
aF3.1871026521570864
aF-0.9908248248118303
aF0.44217454881353857
aF-1.685091412757033
aF-2.5030184780119895
aF0.07327645921236459
aF-0.7203435599729431
aF-0.33332442864881473
aF-1.0489261944463015
aF18.07759955335521
aa(lp250
F30.908546977002658
aF0.8181974402253351
aF6.441427806769274
aF-1.3849394065209606
aF-1.1000293933569643
aF1.5081011424825126
aF-0.652637800488432
aF-0.10262010846208314
aF0.31681999921062454
aF-0.020693874947818713
aF-0.7897601155861451
aF-0.37621925918979704
aF17.364419854253864
aa(lp251
F30.02229835634467
aF-8.660977811919901
aF-4.5490926948950685
aF0.8291324441766214
aF2.934148299774365
aF0.06529452887366005
aF1.1699336154591997
aF1.8708881702210853
aF-0.9622630901750319
aF0.20081903157224143
aF0.15836650294312227
aF0.7025509618642459
aF5.570080422494069
aa(lp252
F35.10201791280863
aF-4.289071394763356
aF-2.7104987847858935
aF-0.9709613508077818
aF-3.1781716120774997
aF-2.950994100866727
aF-2.023942106075206
aF-0.7180076366614201
aF0.8516031636498824
aF1.8315618797501143
aF1.877888000133089
aF0.5264012025092852
aF14.197208133934462
aa(lp253
F37.302361051703855
aF1.42024778317833
aF0.8888361812685903
aF-0.08962892388916527
aF0.6917732058160803
aF4.066334168535772
aF2.680354916848442
aF0.22762601062878005
aF-0.5900716585796693
aF-1.2971687768259157
aF-1.37066491837849
aF-0.8322650361678656
aF16.309370276915836
aa(lp254
F30.908884054082627
aF-5.6846677446602225
aF-1.5797873783648142
aF-0.7864258835681814
aF-2.450761451069954
aF-3.345461024708877
aF-3.2129556432547233
aF-0.6284016877429199
aF-1.1440088107414867
aF-0.0826969228127375
aF0.22968992836049817
aF0.39380598074062695
aF11.651186862285346
aa(lp255
F35.36815911132697
aF-1.777053203811151
aF-0.044512017962239026
aF1.9616822991760727
aF2.7400082555075684
aF2.085090153667003
aF1.3507603984417753
aF0.2495485646033131
aF1.6765724132629314
aF1.475732950165885
aF0.6022095098592615
aF-0.9135392464560061
aF12.964440985541657
aa(lp256
F41.521790694829534
aF-8.348931186913084
aF-6.007683478302829
aF1.522682285772465
aF-6.046525836891763
aF0.4519253835198072
aF-1.254446957998549
aF-0.9969272649614207
aF-0.10556435430057898
aF-0.9851258052048548
aF0.6991494512098334
aF0.6615930907807628
aF13.924462509557346
aa(lp257
F44.006755095430684
aF4.09620116904245
aF4.248337493632518
aF2.588769098031724
aF0.38552490295910413
aF3.229099577297986
aF-0.6505326047459863
aF1.2344046679598406
aF-0.775374288076455
aF-2.658073738955159
aF-0.3140305089212245
aF-1.989120290019664
aF21.751745992842714
aa(lp258
F33.01545344357886
aF-5.523143226151884
aF-4.324356949439613
aF-1.2002674219422966
aF-1.6113732907930163
aF-1.272804012085759
aF-1.117898876365931
aF-5.090553331547812
aF0.05126122532027891
aF1.7692172585630863
aF0.2943353766065343
aF2.9512212987687025
aF10.78891850905433
aa(lp259
F41.286764864023496
aF-4.443048767354597
aF0.18461364228540944
aF4.103902736984642
aF-4.105688291264096
aF2.732797370394957
aF0.5145933273636744
aF0.5019567965301321
aF0.601889882826698
aF-1.8082622794462995
aF0.977140930156505
aF-0.8851142056758559
aF15.881797910084618
aa(lp260
F34.82955327215332
aF-3.5596576647542624
aF-1.6441975999988028
aF1.7415647965925163
aF0.5953974037309682
aF0.18590925291839389
aF0.04589117151264993
aF-0.34406213475415137
aF-0.9918189163729019
aF-1.4433163602091732
aF-0.9354641555423002
aF0.012647301317483706
aF13.70232578908098
aa(lp261
F40.66640107946476
aF-5.5164731850886355
aF-0.3264479741137297
aF3.638980997036824
aF-2.435833796744336
aF3.922731354541537
aF-0.35379435808314996
aF-1.2932263285689278
aF1.4568634006861463
aF0.557994861261895
aF3.3835573050138406
aF0.023274172047531183
aF13.910955402405683
aa(lp262
F35.537505845694966
aF-3.377838434461526
aF-2.9693344219415883
aF-1.8370433302694138
aF-2.691935830154619
aF-0.37561308985496566
aF0.16787056162474734
aF-0.463527230769486
aF-0.3146095923795678
aF0.12076248418775665
aF-1.3962099568327053
aF0.8432029755860464
aF12.662029053994782
aa(lp263
F36.034733683764074
aF-5.5758961096027715
aF0.5336171435432
aF1.6341693561874806
aF-0.6724920032252046
aF4.018731608214642
aF-0.3716811367982809
aF-0.8061883885626199
aF2.1162728648783493
aF-0.30844884337507117
aF1.0131920428042858
aF0.30168803604903704
aF13.532631100344913
aa(lp264
F36.15966993263353
aF-3.1195659882509856
aF-1.742246901190467
aF-0.11076392599460916
aF-3.612111265185733
aF-0.7678278220258832
aF-0.39994218237357315
aF-1.4706747987092754
aF-1.0604728953259737
aF-0.5526266505040014
aF-0.6030688681851252
aF0.2604568098889184
aF14.005807459687876
aa(lp265
F34.58343657117968
aF-3.9012770758403894
aF-1.6041320581177192
aF0.6116272053222616
aF-0.44304416368534905
aF2.34638108481124
aF1.7576228956274262
aF-1.2328074604345898
aF0.15467844885227178
aF0.855169981297407
aF-0.16375795992573228
aF0.2800781276998577
aF12.007263577344219
aa(lp266
F35.82182914533925
aF-2.1300860475531254
aF-1.0946856465838728
aF-0.027041271313572618
aF0.27167380536251595
aF0.024366850633551485
aF-2.389743913236884
aF0.2720556144625037
aF-0.29164411576713806
aF-0.9703735460667436
aF0.02198741168096635
aF1.6688240119681614
aF14.214962587866214
aa(lp267
F31.42842343655191
aF-6.451732265745632
aF-3.0051862220023926
aF-2.379832557999643
aF-2.056329915063606
aF-1.644107885812684
aF1.23022853887399
aF-0.0593176962186765
aF-0.13890065478908178
aF-0.17601741411093708
aF-0.050280464687947904
aF-0.24853912933423183
aF10.691306082721647
aa(lp268
F34.93274515989085
aF-2.9656831424473333
aF-1.36212970813498
aF1.4092868567021175
aF1.3242447450813501
aF2.8805199869326588
aF0.6747712844646014
aF-0.4695991486894305
aF-0.6930699026072284
aF0.0465646699813978
aF-0.8035071449639956
aF-0.8862478925856684
aF11.498762518374376
aa(lp269
F34.92820418301695
aF-2.5632791740290104
aF-0.724298290729761
aF-1.0146338625212619
aF-2.2819575369811673
aF-1.7925608373133364
aF-1.0680936039452402
aF-0.6580383031580036
aF-0.9549822138555212
aF-0.009344407102805874
aF0.5132927733550852
aF1.0859383679567358
aF14.958322904999413
aa(lp270
F30.09855250897523
aF-3.9413165316235994
aF-0.8514682946116134
aF-0.9801362440418092
aF1.2616962480276699
aF1.0010939062557223
aF-0.3392267364621706
aF0.3642263646846884
aF0.4015480755318984
aF0.3590221615811583
aF-0.5633356824697294
aF0.18045393709180657
aF10.187701062292492
aaa(lp271
(lp272
F37.467000212345994
aF-5.357040534810859
aF-1.5451952749999303
aF2.3588202115397787
aF-2.8759011671458583
aF0.42878118001827653
aF-0.042165768339916705
aF-0.8569671408754024
aF-0.07366561534888796
aF-0.013442402986613988
aF0.798231724238642
aF-0.10973930866801099
aF13.578996312130753
aa(lp273
F44.52030240281143
aF3.1107114808472263
aF3.8625011438115484
aF5.339466010012645
aF-1.8941403806377535
aF-0.3259512465932236
aF0.04307867854403517
aF-0.11061910392328489
aF-0.43465063018862315
aF-0.25114695711041574
aF-1.6192530964275162
aF-1.5472252915983167
aF22.774624642147067
aa(lp274
F40.02531179420516
aF3.8295315927088525
aF-0.34679070735410034
aF-0.918096614701565
aF-0.172344297881045
aF-3.107061057219643
aF-1.339891328699705
aF-0.8639725616050681
aF-1.0480130235792458
aF0.3489108534692773
aF-0.04820288310776011
aF0.20755997265104764
aF20.84739397164654
aa(lp275
F48.48875024634567
aF1.3218840834671477
aF-4.233487944475733
aF3.573501600497042
aF-2.330928552484143
aF-3.8729902806296574
aF-0.5716830069682171
aF0.7419780848690942
aF0.4717597484226236
aF1.9493212742956545
aF-1.0130506314137395
aF0.34064150524708486
aF21.256266562188543
aa(lp276
F39.7176750161342
aF0.12479799035927086
aF0.2559102319281985
aF0.5936027217881057
aF1.0503777387677393
aF2.1068709347128904
aF-0.8439779685811863
aF0.35963877538706235
aF-0.5896305242814308
aF-0.3296070053891028
aF1.6019346701117607
aF-2.9637963388733004
aF17.57022508829048
aa(lp277
F47.03800694548141
aF2.314074011510255
aF-3.550312435245943
aF0.9886808133452136
aF-1.2746755959383838
aF-1.8012407540932358
aF0.05884949752949731
aF0.9530816722193215
aF-0.0834354445488896
aF0.5331359319299733
aF-0.4124689785742575
aF-1.1092148567669002
aF20.745864178875937
aa(lp278
F43.635900635407616
aF1.8143988983996004
aF-1.6459606190774678
aF0.590657600295371
aF-0.11747306665613044
aF-0.6200523247002235
aF-0.14809677208213384
aF-0.2974952199278321
aF-0.23873561272922225
aF0.2126305108275992
aF0.35093742668283057
aF-0.9707860639617933
aF19.82631449086605
aa(lp279
F43.66892735326355
aF2.8163869748659365
aF-2.030199989307889
aF1.0199109810010714
aF-0.840386397867113
aF-1.4442336892652945
aF0.1924792790044444
aF0.5264043687378817
aF-1.0605374249656991
aF0.8818860841630403
aF-0.10435965185367199
aF-0.6969603061586052
aF20.16754814406734
aa(lp280
F47.70342555123013
aF1.6715436866120896
aF-3.06434113032587
aF0.3774105207454068
aF-2.4031176656571245
aF0.2253664489037771
aF-1.6438041482471395
aF0.7932090516416257
aF0.03416503653132108
aF-0.557699062288281
aF1.4368003047520428
aF-1.722945939621004
aF20.99680816936603
aa(lp281
F47.06583395428326
aF1.8757616249007554
aF-3.7122815681761225
aF0.9308705426820397
aF-1.3131047434606662
aF-1.3796303674173223
aF-0.5878847792599764
aF-0.38965858798176695
aF-1.3057097552967296
aF1.0303555717073476
aF0.38970333928307044
aF-0.5087763226099107
aF21.16692382999859
aa(lp282
F42.99510600938466
aF1.3435645285509537
aF-1.2981047807556054
aF1.561489648816578
aF-0.016338067802043277
aF-2.8722811001330566
aF-2.2291391980956603
aF-0.8843073529735065
aF-0.9788466464743446
aF-0.7777544109709217
aF0.9760666973876029
aF-0.7910495191067971
aF20.030454636481366
aa(lp283
F29.117316452577036
aF-1.0887596533549257
aF5.105365504066539
aF0.3004401652581351
aF0.5161639592702173
aF1.7579676944175442
aF-0.5367179477120941
aF-1.3931365660423611
aF-0.8013800162640291
aF-0.337600358931613
aF-0.6294115568871277
aF0.6791994181767469
aF14.535216623442789
aa(lp284
F31.625510815575673
aF-7.34722285172976
aF-3.27250281742505
aF0.9012471198184929
aF1.2621755370557821
aF2.024581844265133
aF2.6661194862437565
aF2.037594216766222
aF0.6703154613277476
aF0.08261586622505579
aF-1.963545463874388
aF-0.10375362199505495
aF9.4699348981898
aa(lp285
F35.91797781626439
aF-1.2905874427082717
aF-1.1659141902613286
aF-2.5105549306684143
aF-3.5748580852199856
aF-3.3593062483121905
aF-2.707682834933917
aF-0.5219192122365139
aF0.35829490622088067
aF1.1585526467187972
aF1.8797252561247009
aF0.5009569800994174
aF13.043559584561935
aa(lp286
F34.31663479424275
aF-2.8006333736699744
aF-1.7789562152401102
aF1.4150974117541828
aF0.7160230508355527
aF0.41661261518848036
aF-0.01296471257851678
aF-0.9289582790105085
aF-1.8856533643823983
aF0.4080163972027724
aF0.9766251554820974
aF0.3535124931036234
aF14.195217330082208
aa(lp287
F33.74978333514901
aF-1.2344242246408172
aF0.08669483726552896
aF0.8280509602057706
aF-0.23087275976617905
aF1.5579144959415427
aF0.5142081798122373
aF0.7491309779256417
aF1.7213652008646245
aF0.1424432143300257
aF-0.9078446191428146
aF0.06258587293854154
aF13.521331990923715
aa(lp288
F32.680469013527045
aF-6.102859396981022
aF-2.2895112249924887
aF-2.0753287329391963
aF-0.8235554656156442
aF0.008425627370994504
aF-0.5642126072643738
aF-0.6967821061444395
aF-1.1077754564642923
aF-0.7269536054677366
aF-0.8434598132169122
aF0.3922879829984802
aF10.720414950156288
aa(lp289
F46.06800939575517
aF-3.058923611420539
aF-1.4142341190954233
aF6.116003453254617
aF-4.623279941429341
aF-0.08310644739878947
aF-0.7204155163421104
aF-2.869772776877541
aF-0.707174939488729
aF-0.9249131301402174
aF1.4990937750951328
aF-0.0343623266327473
aF19.375784588767978
aa(lp290
F40.04382587059303
aF3.905473944152666
aF2.949450852871965
aF-0.06406072224170045
aF2.1612378862862993
aF3.748289050970261
aF-0.5385754254519569
aF2.622050286232917
aF1.8550967685212048
aF0.1764274807656835
aF-0.46934787639348485
aF-1.5672800869877133
aF20.509171833168892
aa(lp291
F36.94455416396739
aF-7.861087566026627
aF-2.3579798602736908
aF3.7109963887578177
aF-3.4917295265875827
aF1.789836155198158
aF0.349609351279724
aF-4.040601245161637
aF-0.8512094158335345
aF-0.18668681262069792
aF1.4873684614090625
aF1.3030433710673337
aF11.1962115582446
aa(lp292
F38.54901670122768
aF-2.7809651630548533
aF-0.7464483939945376
aF3.0073609219659065
aF0.7428930876144508
aF0.7327994845333938
aF-2.0594910457042355
aF-1.6888166036229537
aF-1.328898916815936
aF-2.5670011770310612
aF0.11990522411778837
aF-0.83327523637383
aF18.26871661685049
aa(lp293
F39.009306987438016
aF-3.8734957328940784
aF1.1024689793462106
aF2.809624371096301
aF-2.7988262933077293
aF3.7311675446966186
aF2.05647255532719
aF1.0842903185866046
aF1.039924168663846
aF1.0776726278408837
aF0.4190347896929074
aF-1.0762587623918434
aF15.184674046887068
aa(lp294
F36.44227861364438
aF-6.388899270724339
aF-2.4024600084790118
aF2.6143588905199193
aF-0.363154088163295
aF3.175602040682003
aF0.010253021560733266
aF-1.0977566947276873
aF1.2487958736010683
aF-0.8873535395020399
aF0.28305452504716827
aF1.4177662349441027
aF12.32201837276678
aa(lp295
F34.2288237083423
aF-4.02847549722418
aF0.2745474737037721
aF0.8248310569929522
aF-2.4265378017509107
aF-0.2733207950400951
aF0.930131808976792
aF0.7057764745377543
aF0.7588173972116892
aF-0.45768275035559053
aF0.2639501651903105
aF-0.08303643176087128
aF12.439363256181904
aa(lp296
F38.39354898676994
aF-2.3707645248600837
aF-2.331287857386595
aF-0.34756871851530735
aF0.0958433116903794
aF2.812334946401169
aF-1.1324838198042693
aF-2.125899584907056
aF-0.30864373111789567
aF0.010404512743964534
aF1.625205898451527
aF0.5606353725799451
aF14.984993820492221
aa(lp297
F35.038143519284965
aF-5.121998172125113
aF-0.24720470175092302
aF2.092285588982323
aF-2.000430870754607
aF0.2587239133315844
aF-0.2772544844000085
aF-1.3143726490647274
aF1.1414140384350797
aF-0.19784511346471462
aF-3.0393679670000244
aF-0.4967720319253595
aF12.026900584034987
aa(lp298
F32.61632397107388
aF-4.844311291308419
aF-1.6724340768009927
aF-0.24338493917607285
aF-0.1718399644863785
aF0.7829360084731066
aF1.2150639082818586
aF0.6530088733403028
aF0.48375984728130406
aF1.8458510883349113
aF3.063873604255475
aF0.38989976375745494
aF12.449164257231486
aa(lp299
F35.83016801021441
aF-0.6764315241951193
aF-0.1902692074953224
aF-0.40735561602735554
aF0.44495810355619225
aF-0.659317688500217
aF-1.5739532065792101
aF-0.4508599171489103
aF-1.676465271688523
aF-2.156481096043815
aF-1.4993957197282632
aF0.4746204040524996
aF14.181265249529497
aa(lp300
F34.630155921806846
aF-3.251939636404471
aF-1.2011610161506174
aF-0.7483953691284183
aF-2.1669584181017125
aF0.7368528460178416
aF0.0636105093164856
aF-1.1718674945943879
aF0.04499168936939768
aF1.5669704382624978
aF-0.0640399279776735
aF-0.09011374835293331
aF12.758063278639634
aa(lp301
F31.581032918637646
aF-6.917617228013736
aF-1.5454740431401874
aF0.9199502014828819
aF1.3088689697795761
aF1.2415533743657925
aF0.9220525361419576
aF0.8965501713806334
aF-0.1430461902448905
aF-0.6102716686164426
aF-0.2183968868955124
aF0.3507556420484057
aF10.269508499663894
aaa(lp302
(lp303
F37.87936438288153
aF-5.553170163702392
aF-3.6185532269971468
aF3.4687523237911626
aF-0.8600099249509147
aF-1.0808227037918938
aF0.3370131014299311
aF-1.0963503731325475
aF-0.01832292567357968
aF-0.25786010452132935
aF-0.678076074734445
aF0.7953653660996859
aF13.062169889316385
aa(lp304
F35.06099688721317
aF0.9416238390984737
aF4.250454418688657
aF1.5606365611293471
aF-1.6152284320223962
aF1.1086940354667556
aF1.6413325278680808
aF0.46608307367539825
aF-1.8606357681402852
aF1.2832831981531523
aF1.9112579951173947
aF-1.1333853831093492
aF17.453097335139624
aa(lp305
F56.83652494524951
aF5.250143076773208
aF-7.125988162826042
aF4.792671457265163
aF0.17548925061370324
aF-9.503999169171934
aF-3.5135310395638304
aF-0.4957492491269784
aF-0.06644204329019077
aF1.2647914947809462
aF-1.5923236164568406
aF-1.147754912620078
aF27.266698490052867
aa(lp306
F46.46032909179848
aF-0.6033480847045047
aF-5.403812372071284
aF-0.10121746446330837
aF-0.13786087438190225
aF0.9463297145056417
aF-0.014661769820857096
aF1.3666245203395433
aF0.6745050790812576
aF0.8037632911792524
aF0.09714251961382467
aF-0.9458567652469623
aF18.419268447513822
aa(lp307
F44.900736066725564
aF0.763744406936889
aF-3.8640933299968263
aF1.4392491234014848
aF-1.9554485042253336
aF0.25901559432547616
aF0.6093987940799481
aF0.9845602603373063
aF0.33007725526497206
aF-0.3732160907192027
aF-0.25000232713782744
aF-0.9189208551459054
aF19.199010932746734
aa(lp308
F47.58250473877505
aF0.8883594699936965
aF-3.966849244724604
aF1.4240252473462844
aF-1.3752134037895842
aF-0.7697534761550422
aF-0.38264761839002365
aF0.7743570364018229
aF0.06460288634899303
aF0.4052674229044511
aF-0.21254828983395474
aF-2.1545868222896556
aF20.387919036923865
aa(lp309
F47.92554910357651
aF1.6634386107230288
aF-4.334146033114712
aF0.4948071494649784
aF-0.7666613050941906
aF-1.3140656778793345
aF-0.5234278221683628
aF0.3959503284165462
aF0.4105918874868995
aF-0.5144337328117812
aF0.1751911809790378
aF-0.9140477007517145
aF20.436525686477292
aa(lp310
F48.67766125739776
aF0.895020595494324
aF-5.025315733738746
aF1.291587799968108
aF-2.051198713980539
aF-0.3965536985833866
aF-0.17611247107245542
aF0.6659932998963113
aF-1.1850982161932986
aF1.1248030891564862
aF0.08431123189763606
aF-1.0396466227689332
aF20.986273390990135
aa(lp311
F47.76677226659929
aF0.6015383440584559
aF-3.789282180382676
aF0.4742947109260528
aF-1.969968658185832
aF-0.852951573764101
aF-0.5585678430960332
aF-0.4080054610387673
aF-0.4100672957711554
aF-0.5498340073440837
aF0.9947033398695463
aF-0.8146720669961902
aF21.377915773567867
aa(lp312
F45.01774490500684
aF1.2334761178311617
aF-3.333547269847053
aF1.7584314294142382
aF-2.16943630840073
aF-1.7876554148249912
aF-1.8024872994542205
aF0.008185757254690562
aF-0.7065380953860522
aF0.03277618528627625
aF0.6965062930253163
aF-1.251026252493072
aF20.297220581074495
aa(lp313
F37.79462169574568
aF2.767418920942524
aF1.5657278991040986
aF-0.1565877814111668
aF1.516995179160106
aF-1.425933271170102
aF-1.0094700558217409
aF-0.9110454592544331
aF-1.7741598905203113
aF0.03406196745150398
aF1.423614342053837
aF-0.2709086307147226
aF17.778316223213963
aa(lp314
F22.966766564163393
aF-9.578670817247989
aF3.2000309671484968
aF2.6791246385082568
aF2.0819259507576087
aF3.455367156529832
aF0.22692235221221924
aF0.05255237951443542
aF1.1234325876834352
aF0.07783324151893095
aF-2.818914990849522
aF-0.7213050173580503
aF9.182051422708037
aa(lp315
F39.361007861895246
aF-1.389382571512078
aF-4.053278563614373
aF-2.69781724627631
aF-3.4057950843378255
aF-2.6373026809767297
aF0.45988367459939267
aF-0.12124065979747178
aF-2.2249172247581703
aF-1.3514135995869216
aF0.42372718471188453
aF1.2300355778230312
aF12.689684287674766
aa(lp316
F33.48390475727412
aF-2.3482996564192655
aF-1.8147808737809403
aF-0.9288339819332704
aF0.49282522835103915
aF0.002247576453489719
aF-1.260158493030375
aF0.2943809192366428
aF1.579752085172639
aF1.649298518434823
aF1.9444563094259244
aF0.17325223318569366
aF13.599547188925476
aa(lp317
F32.81099872993871
aF-4.309055720394019
aF0.20236804708737977
aF2.063713232196772
aF-0.43399230714190756
aF1.3838968365174236
aF0.9549604634357751
aF0.787885584270448
aF-0.15409993451343518
aF-1.4266638058371806
aF-3.004308640500686
aF-1.7016547828406439
aF12.697165917896022
aa(lp318
F33.444440751614415
aF-1.8009644406594836
aF-1.861781884304588
aF-0.7818905402994342
aF-1.690806246133719
aF-2.9479022753007373
aF-0.8191290720659885
aF-0.39083224438223285
aF-2.116983697263449
aF-0.26685708724483964
aF3.667727505251972
aF3.117764722416887
aF13.794016570377622
aa(lp319
F34.242253112181785
aF-3.260868124945013
aF-1.9148325733291465
aF-0.016277848558114927
aF0.019953209501779923
aF0.684963942015467
aF-1.079565734830976
aF-0.749168894475159
aF0.2984655795955167
aF1.037434982007721
aF-2.88103133026124
aF-3.2399530206025338
aF12.905402277727308
aa(lp320
F31.82491125296714
aF-4.173510584384591
aF0.11935553322175996
aF0.04219014060525716
aF-0.41583352765215853
aF0.34851200969224416
aF-0.23458021172956178
aF-0.10276421688575543
aF-0.008354524120693707
aF-0.42767896675122663
aF1.8210615956328726
aF2.9241853896973704
aF11.38000141304419
aa(lp321
F37.728457091788314
aF-3.596629544699791
aF-0.5695099417170513
aF1.575774292584231
aF0.6333948315340499
aF0.38929484236277834
aF-0.29575478910757225
aF0.42036995987037534
aF0.7117013675065131
aF0.0059449695628899304
aF0.24830397385180836
aF-0.3725267544555677
aF15.210866790073894
aa(lp322
F42.18933899912231
aF-1.8651474704441044
aF-1.5951943895787006
aF-0.19302828377821957
aF-4.953835556466567
aF2.4646871128054775
aF-2.4797040234732264
aF-1.8412100349918459
aF-0.3650929941340156
aF-1.5693432853700515
aF0.23057629604257843
aF-1.3598651264632142
aF16.81659717998803
aa(lp323
F36.70286760911597
aF-2.2764853458514573
aF0.894152161140879
aF2.925900739210897
aF-0.929971584576752
aF-0.34810931379958077
aF-0.03996519371994356
aF0.17060777685298478
aF0.6750176114233702
aF-0.7609104556046745
aF-0.5232279665603351
aF0.7372221666961347
aF15.149154333515646
aa(lp324
F35.327668995852775
aF-7.287606899305935
aF-2.8967003604817894
aF0.6260633410546581
aF-0.8935890890241298
aF4.571423941841925
aF0.6006797907571191
aF-1.9967814106240733
aF-0.2870433846736642
aF-0.25030661435060264
aF1.283418088955374
aF0.11414880100806563
aF11.038432463128292
aa(lp325
F37.338228760264876
aF-1.005503936973167
aF-0.6843016986428128
aF-0.7110398563061784
aF-1.847305830896168
aF-0.08605287566470943
aF0.3298468742190822
aF-0.46230341450749124
aF0.1338152527667627
aF0.4602883501123459
aF0.5932498259109089
aF-0.45038349323853855
aF14.527626295214082
aa(lp326
F36.55999820025301
aF-6.1365832506972495
aF-0.5436046566144122
aF2.797859470522862
aF-1.1137800675950609
aF2.247333138051916
aF-1.3831425201386773
aF-0.5793677267626397
aF0.5128099602796543
aF-0.5073887004935094
aF0.41644163451408606
aF0.03321444151230901
aF13.05710417399958
aa(lp327
F34.64416666984424
aF-4.1384159566809675
aF-1.5658512554246047
aF-0.15269910162101552
aF-1.6364496983776275
aF0.9412801050764028
aF0.5354760469119793
aF-1.3995396004180907
aF0.056772820621209946
aF-0.6972112297799264
aF0.141101901399438
aF0.5495911691971829
aF12.594451285079401
aa(lp328
F36.87679957965573
aF-3.1729800230499494
aF-1.224911468023867
aF0.4528859322088583
aF-0.33531191525175497
aF1.0497082181179236
aF-0.8028293095187895
aF0.29481760189452266
aF-0.2900981176282742
aF-0.4943319691921877
aF-0.1858226793769138
aF-0.8448225408597227
aF13.204706110908905
aa(lp329
F34.115381824482846
aF-4.050198542538578
aF-0.2910913381262935
aF2.5880161392632273
aF-0.10876797057999399
aF2.1822399626180555
aF1.754487109939204
aF-1.1622917408653533
aF-0.17939835328545228
aF-1.066616239544747
aF-0.43942139701399785
aF0.5863041832490588
aF14.699267300463061
aa(lp330
F33.45726539003093
aF-3.2968098242460298
aF-0.3419412860768112
aF-2.2314271241781394
aF-2.8197868592012423
aF-1.440544034637692
aF-1.429036716844034
aF0.05877911713281547
aF-0.17444509895087534
aF1.1822318140210586
aF0.9414999370873272
aF0.78550878555883
aF10.437229399696252
aa(lp331
F33.79254354113959
aF-3.978404330477641
aF-2.4863811178823836
aF-0.23072633856683278
aF1.358274311947302
aF-0.2156850084294406
aF0.6636772694881383
aF0.5853048825154408
aF-0.4931923261831747
aF-0.8320967963523825
aF-2.302425173605884
aF-2.1175880191687764
aF13.164750184283099
aa(lp332
F33.593180438419225
aF-1.0737830821267393
aF1.9763755673397092
aF1.8049568639506803
aF0.1502244149120432
aF1.2489758936584474
aF-0.4761865448194465
aF-0.8115667593987566
aF0.6918580222375095
aF0.900477918146185
aF1.364945553825903
aF2.3634289632822316
aF14.699083614074446
aa(lp333
F33.01643904060395
aF-4.8575276537190355
aF-5.279760019891235
aF-3.3027111627027423
aF-1.7314309563550605
aF-0.1238031284545088
aF1.150182463363823
aF0.697162318164761
aF-0.4048074038592221
aF-0.317900799913189
aF-0.7330558251075844
aF-1.5622333741362184
aF9.183726650686953
aaa(lp334
(lp335
F37.55464207938056
aF-3.6466678838231115
aF-0.3873922085128495
aF2.676073680601719
aF-2.6981835997233774
aF-0.4691750727861806
aF-0.21587886719540741
aF-0.33167948552856913
aF0.07211318373128733
aF0.08325282185857892
aF0.08922068452597173
aF-0.29166593321969614
aF14.851701699791896
aa(lp336
F47.24771562620918
aF4.792551378809138
aF2.7151182513240038
aF4.402080153262432
aF-2.0577097067551997
aF0.05751200800963657
aF-0.5542919145961737
aF-2.3813197042910983
aF-1.6712213682297994
aF-1.8537853526682375
aF-0.18020749331555214
aF0.4860160971590175
aF25.32997290599197
aa(lp337
F35.496546513641555
aF-1.7023274639991157
aF-1.2038380987079709
aF-0.8634795291071771
aF1.7600061152282596
aF-1.0548758085892096
aF-0.10413795366745751
aF1.639675299049846
aF1.9954798020808788
aF1.757170699955517
aF-0.7859487237925473
aF-0.6128142250110952
aF14.654514295762858
aa(lp338
F59.526412869211065
aF4.645751433368695
aF-9.999423860734955
aF4.356459679039261
aF-2.288608497845825
aF-4.319597567985376
aF-1.0611629894845593
aF-0.29210215664921746
aF-1.163087647899573
aF1.2016912955230266
aF-1.5689281704227278
aF-1.3514264292364462
aF25.272049343924444
aa(lp339
F41.30458572021373
aF-1.4682197902001985
aF-0.9089292119453973
aF-0.393629440468799
aF-1.2346527968961472
aF0.4179027664173576
aF2.237510503791359
aF2.5550351591927507
aF0.5080243029506788
aF0.48738977690005447
aF-0.1353170539004641
aF-2.08742264454414
aF17.791722244438706
aa(lp340
F46.84933583703614
aF2.1704201158806695
aF-3.6927826193767403
aF1.5645590856517262
aF-0.9693920817221552
aF0.052750160465740215
aF-1.533203559420197
aF-0.5892524505519606
aF0.2536104806033491
aF-0.5810662385015822
aF-0.017861066110421264
aF-1.8162784703584227
aF19.843620091425958
aa(lp341
F45.78159441412195
aF1.8036217780805632
aF-2.9188604910840557
aF-0.14052751636141503
aF-0.6057872668304798
aF-0.6048753709545279
aF-0.08591795637009658
aF1.178763644999544
aF-0.7472978010135125
aF0.2558691106020019
aF-0.10304232790181717
aF-0.7048118773254375
aF19.97118183410572
aa(lp342
F49.251496574851934
aF1.1462005859603022
aF-4.663407629316583
aF1.1267155809067495
aF-1.822884117992986
aF-0.6788312987885757
aF0.39790390594524305
aF0.6612547165143607
aF-0.05766062405866662
aF-0.028459270629271755
aF-0.16923226659021248
aF-0.8934725583102585
aF20.882339675223875
aa(lp343
F48.65989834256872
aF0.863732479897793
aF-4.285416455044276
aF0.904971874352843
aF-1.6996902822971363
aF-0.9317887678426768
aF-0.3770881538555511
aF1.1646763108494207
aF-0.6495400526713456
aF0.2934896739378363
aF0.30478485995246996
aF-1.8670455941286508
aF21.042928535038428
aa(lp344
F47.25492511008201
aF2.6488641479649937
aF-3.52661439323864
aF0.2559431367620699
aF-2.0151560238843307
aF-0.5446100714100067
aF-0.9580511246902172
aF-0.26282632302870956
aF-1.3292947639272377
aF0.8075991261751083
aF0.8791658367523733
aF-0.843071203966306
aF21.815245857256265
aa(lp345
F41.552337829177254
aF0.9735052443550176
aF0.030085281038940703
aF1.323001417810714
aF-0.18910830112268107
aF-1.7359473940027286
aF-2.193317222385712
aF-1.706572353577919
aF-0.43430624762034337
aF-0.35520521972461977
aF-0.0040593446937642885
aF-0.3225278358257675
aF18.69091866418027
aa(lp346
F26.56429419726488
aF-1.4230836948015102
aF6.15841774565718
aF0.8891781213846446
aF1.5789256833100351
aF2.2640719469097057
aF0.5010634949619024
aF0.3881278132550793
aF-0.5859621649696097
aF-1.3306368582253263
aF-1.232674105697423
aF0.2386443433247174
aF14.324098915584848
aa(lp347
F32.471844981538666
aF-8.471209649580775
aF-5.683092657005778
aF-0.9025363412611797
aF-1.9824857100053426
aF-0.8597204438952172
aF0.5430260404173588
aF0.2164556631946679
aF-0.01921333858773905
aF1.5267072472675727
aF-0.05158618585229424
aF-0.4396678834421846
aF6.9239995541973745
aa(lp348
F39.77645119112206
aF0.6647815595303235
aF0.3974026922472452
aF0.14996903502565095
aF0.02229837257487116
aF-0.07046211394950842
aF0.02290516287277261
aF0.2837284959099342
aF0.598788425294009
aF0.8386975570007806
aF0.2673223369390428
aF-0.0861713523434812
aF17.237036504199573
aa(lp349
F28.802662933781065
aF-5.100647530705382
aF-1.961450630773904
aF-1.0050077241800275
aF-1.7540834369480514
aF0.01827110829491497
aF-1.3487767185012691
aF-0.17894746778131623
aF-0.5170699843506823
aF-0.22416017903671526
aF-0.20665095413765122
aF0.3310085321565238
aF10.254440569363904
aa(lp350
F34.97245313396533
aF-2.722913169390677
aF-1.1500830485972142
aF1.9176556512372407
aF2.0048114867673514
aF0.41684984367030303
aF0.9236184571026433
aF-0.11109294246251318
aF0.0455380573003644
aF-1.1035034944470248
aF-0.4940807869164038
aF-0.15689163640304976
aF13.451448407616459
aa(lp351
F34.44148829188417
aF-1.7993677317411185
aF-0.32521030991723787
aF-2.348508429048464
aF-2.1821456662603245
aF-0.7878442400153958
aF-2.9896339351525545
aF-1.1064830607779184
aF-0.18607071403317685
aF1.3771994337642273
aF0.28549336573095374
aF0.3463363024709013
aF14.507596794080193
aa(lp352
F31.992449172759017
aF-5.91121530578675
aF-1.4043170143958066
aF0.481211278140245
aF-0.8070055075330844
aF-0.2772130069112955
aF1.6700010972529622
aF1.1501479210229544
aF0.6709064591067407
aF0.5363379970732093
aF0.0183734488591734
aF0.2937888891168444
aF11.015220791325223
aa(lp353
F53.32354117869443
aF3.901000288128675
aF-2.831194021217753
aF2.629509604508951
aF-1.3516495486987223
aF3.499890932521612
aF-1.89530090970974
aF-2.054250928500497
aF0.8849144237214196
aF-1.7527326539994064
aF-0.01267442579052716
aF0.19394703556715548
aF22.824018310893628
aa(lp354
F33.41974856598192
aF-1.9202121065313194
aF5.535327546813953
aF3.1719954838758433
aF-2.6607167718526106
aF0.1089257722919208
aF2.0983931060541603
aF-0.9140395742228069
aF-0.3225781882762444
aF-0.17643698635218724
aF-0.2342658503616189
aF0.6279832845860873
aF17.763547889457143
aa(lp355
F35.18095942746746
aF-8.458066542829506
aF-6.065213405303927
aF0.7072649734644594
aF-0.718738084975979
aF4.1466187001598716
aF-1.6255304566383368
aF-1.9627473857896276
aF-0.7836990810080569
aF-1.6842039307206644
aF-0.11428469451041058
aF-0.5610054199782635
aF9.73716117907982
aa(lp356
F39.055068889503254
aF-1.4833257166494516
aF0.15272763455087168
aF-0.24351645859267812
aF-1.5801620353009989
aF-0.14435846263189855
aF-0.31407792721971384
aF-0.2754801630919056
aF1.316622574083606
aF0.2095247544794001
aF1.3661682529637753
aF-0.025275852248403063
aF14.685888891760138
aa(lp357
F35.08071083504365
aF-5.282772977466282
aF-2.6351700945533705
aF1.762328822559776
aF-0.49656907340439993
aF1.7570384451487562
aF0.20811748552596954
aF-1.493955842031287
aF-0.1030343952344045
aF-0.05978275354021734
aF0.05513235294809399
aF-0.4081896054716614
aF12.48980100611133
aa(lp358
F38.5157108135823
aF-2.602643926810965
aF0.48136726705921107
aF0.4357007811938258
aF-2.989614656588692
aF2.168463333871064
aF0.4637647335433842
aF-0.4754693616050044
aF1.0771344120657373
aF-0.11900885633424976
aF0.22316536868372544
aF1.6157770919208576
aF15.147087784213868
aa(lp359
F33.279700887734904
aF-4.2027833485743855
aF-1.8787255090361503
aF1.5326538926297246
aF0.4728708333528313
aF-0.5692483638487056
aF-0.1698140387463438
aF-0.9827197929059427
aF-0.1257012772306887
aF0.31309956186933324
aF-0.6717866497165685
aF0.5287494939320525
aF12.266937569996108
aa(lp360
F35.52742811513364
aF-3.8236107691134364
aF-1.0732045912654806
aF-0.16246851565177267
aF-2.103978910419894
aF0.5302165924480869
aF-0.0675158389265471
aF-0.5133260835982827
aF-0.7387627060251686
aF-1.108003518471362
aF-0.38296135951197735
aF-0.5790237000565162
aF12.390905480280715
aa(lp361
F33.511519514594134
aF-1.8313865832218177
aF-0.5649449670578808
aF-1.2889186647899569
aF0.7894675226860607
aF0.10886744250925984
aF0.6020934630730728
aF0.550134068547184
aF0.49038246788365336
aF0.9100288238170875
aF0.5276837812848962
aF1.1325808068678143
aF13.867005990378814
aa(lp362
F33.46967728522975
aF-3.9893229980694813
aF-0.404455397207945
aF1.3517969364498867
aF-0.05535716375875041
aF0.09253031867918629
aF0.2007219766514012
aF0.2826989453877559
aF-1.2761658088886019
aF-0.24138561511966583
aF-0.676481230734049
aF-0.5353105063777291
aF12.066797489289291
aa(lp363
F33.56029395462627
aF-4.088998092235213
aF-2.780867131027336
aF-0.18247718027739362
aF0.809973564738812
aF-0.0023325916683028525
aF-0.8390285519462212
aF0.30985087035838754
aF0.7973350004800958
aF-0.21217769417147944
aF0.7015124003544453
aF0.6465828644918046
aF11.288421180187203
aa(lp364
F31.375653179930616
aF-2.2392738104271612
aF-0.12402125572547829
aF-1.6644730137267096
aF-3.442119049784096
aF0.23153971241510876
aF1.3635019077792108
aF0.18252107713515991
aF-0.28346730638234796
aF0.7846412535713668
aF-0.7357500525425411
aF0.1484526644147689
aF12.56393726986183
aaa.