(lp0
(lp1
(lp2
F33.231271794386615
aF-3.5689016045539903
aF-1.579191251310467
aF-0.6343226114901657
aF-0.464882085598919
aF0.396547042630767
aF0.2526492478964234
aF0.2989477659857497
aF0.09952624736212252
aF0.16165421658236764
aF-0.03609607606357467
aF0.4848226738454261
aF11.496207563954052
aa(lp3
F46.75242131501594
aF-3.197024800887726
aF-5.3210007724202635
aF6.269213694547059
aF-0.16990666226375778
aF-2.1009558109912305
aF1.3330226569534749
aF-1.286443100307958
aF-2.722168031763051
aF0.4101538549334518
aF1.2740280821217302
aF-0.05369651319200841
aF17.00092515637005
aa(lp4
F35.90077830425645
aF4.150074371754942
aF8.224262186261063
aF-1.220421191041281
aF-3.063621592609282
aF2.597926356980537
aF-0.7445412056869687
aF-0.4100293284682366
aF-0.4012798385742311
aF-0.4646609451726774
aF-1.1733999756705749
aF0.4787748448723793
aF21.27874259025225
aa(lp5
F32.33713791289464
aF-6.389115321556676
aF-3.4094503397089535
aF2.9463687602603135
aF3.061116471618581
aF1.3924796789997775
aF0.9620573847166737
aF0.9997067129209417
aF0.803572004738978
aF-0.09034289148712535
aF-0.18685171621068886
aF-1.1782794757143211
aF11.184911451865124
aa(lp6
F39.35229738490395
aF-2.81778611738239
aF0.6705060429890946
aF-0.996106535448765
aF-4.345841222237092
aF-0.664892842485981
aF-1.99746598569014
aF-0.4504998402974043
aF-1.0362690603786229
aF-1.0283844488179223
aF0.3692303169390397
aF-0.24715738829681866
aF13.62765548487777
aa(lp7
F35.78717591279737
aF-4.462103103805464
aF-1.5892121419874017
aF1.3636453652003997
aF-0.7759237045602536
aF2.192482584417059
aF0.7823094347937041
aF1.695848241471334
aF1.7165954440101452
aF-0.7161953564217689
aF0.09144640469447957
aF0.27541047402791535
aF12.863017310909106
aa(lp8
F36.11426090138761
aF-1.5306550289223457
aF1.4007361644561038
aF1.4871316026757513
aF-0.1022711260195126
aF0.570656271857357
aF-1.4461392486708533
aF-3.116442306261508
aF-3.2280932661011685
aF0.06120983014075332
aF-0.12843818779483224
aF-0.8333708776204178
aF17.362413775816187
aa(lp9
F37.657346129809035
aF-2.1822948223153333
aF3.2357123741715936
aF3.202071570297191
aF-0.664801029655269
aF2.8081548625543498
aF-0.11571415467754365
aF0.4298243929874157
aF1.1012468906710688
aF-0.14857279810240753
aF-0.45781003813757054
aF-0.7829745670278851
aF18.028943016487652
aa(lp10
F37.856783740328744
aF0.5437394875807435
aF0.4305473350833089
aF0.5501760400813163
aF0.9089280320066448
aF0.21063609864788124
aF-1.023865712597508
aF0.3055496130779501
aF-0.61963749841617
aF-0.5162931400014585
aF-0.23561922550059078
aF0.3521815874445301
aF16.643429946543073
aa(lp11
F36.24496467268282
aF-3.1726598829155814
aF0.11125281775714124
aF2.331799595850005
aF-1.2452944834921256
aF-1.686331998115982
aF-1.7164441459821669
aF0.2948272763312045
aF0.29693184469254136
aF-0.04887804609203028
aF-0.2720489400858681
aF-0.14780643480831032
aF15.030731441390955
aa(lp12
F35.820431092453006
aF-0.5290655085175366
aF2.717862305902457
aF0.14898136244706994
aF-2.282854032705437
aF0.15529528630383538
aF0.42768172451241515
aF-1.7129536483146706
aF-1.2194088549573474
aF-0.9562145729092226
aF-0.03899372992579239
aF0.39826980617961205
aF16.324499573652076
aa(lp13
F39.092704678271055
aF1.5427802133730806
aF0.12145246956399292
aF-1.5305697248381671
aF-1.1201272500443809
aF-0.608887120061635
aF-2.408315112039623
aF0.7251894374973358
aF1.0990991473947362
aF0.15084313256606957
aF-1.8804485380910794
aF-1.6436094263373726
aF18.142068194805937
aa(lp14
F40.37507960559488
aF1.8682001740092093
aF1.7848616180634664
aF-0.44763153330192595
aF-5.633594636577477
aF-3.0569101908018013
aF2.3003795262270925
aF1.799777746366785
aF0.0793463972933457
aF1.7040224647993334
aF1.5431620617842017
aF0.022714516764424264
aF19.981223763065227
aa(lp15
F39.97368873898496
aF0.8878777554094083
aF0.5228250835762038
aF1.5031891838308087
aF-0.6501585427501972
aF-0.35099010744177084
aF0.20775624381069946
aF1.8637181959640465
aF-1.0415992171586421
aF-1.5390267836944438
aF-0.827544111505545
aF-1.0451047363369261
aF17.65826881975337
aa(lp16
F41.56791698041602
aF-0.21312687415940246
aF-1.088331526335965
aF-0.42924595826533596
aF-3.368431280099596
aF-1.550063345772209
aF1.1867566637099936
aF0.7513835466278106
aF0.06807478101705522
aF0.2405599381975946
aF-0.4687176147638984
aF-1.0207797045164728
aF17.58462392241409
aa(lp17
F40.978830527844536
aF1.1452615807905266
aF-0.4810706022779577
aF0.08005254191178329
aF-3.7635642490570658
aF-0.1498333154108944
aF1.894005012451736
aF1.7452933963122619
aF-1.787691342216443
aF-0.3705193038481603
aF1.072177189050848
aF-0.4263221343513718
aF17.618890127627107
aa(lp18
F42.039801487840336
aF1.2872229308415997
aF-1.3502100423934786
aF-1.0653942773991512
aF-3.065767196808945
aF-1.6914892115162397
aF2.7718841322246393
aF1.183764792213989
aF-2.0215538889643305
aF-0.1573933237501683
aF0.13906260130707615
aF-0.6643989098453773
aF17.58030831330751
aa(lp19
F41.72778932635659
aF-0.0912391858879601
aF-1.5597959390116674
aF-0.5222444758606763
aF-2.6523094172335786
aF-1.2955119646265685
aF0.9327033407315388
aF2.4770228730057964
aF-1.0405020593258494
aF-1.1788292536600022
aF0.30285299392672116
aF-0.7000338809452843
aF16.685850794800345
aa(lp20
F37.32976206515195
aF-0.10911777181877585
aF-1.3560259465740285
aF-2.8133270738619993
aF-1.989108837373931
aF-0.20291783762361915
aF2.8848378121537115
aF0.7806988537044344
aF-1.046992517606558
aF0.6243553234065817
aF-0.34924046396362024
aF-0.9494419757108377
aF14.58176439361904
aa(lp21
F31.29915143532824
aF-2.502620888573052
aF0.6443423555166108
aF-0.04978040210996926
aF-0.7547891365825756
aF-0.638511017912274
aF-2.055298024390224
aF-0.7317074432509152
aF1.2382554483816155
aF-1.0643935717897377
aF-1.4603234727201082
aF0.7723883085869213
aF12.340832670977015
aa(lp22
F33.174379693657585
aF-5.573321844178789
aF-2.9272857232471052
aF-0.27460541202762
aF0.17907310867439408
aF0.8732462960181817
aF0.3654427781024381
aF0.1455041234233912
aF-2.0947898713304904
aF0.017545521117139085
aF0.5948701162756842
aF0.2662638726077625
aF10.605376915525751
aa(lp23
F33.029319331004416
aF-3.097320813647922
aF0.31844623075780454
aF0.5113395702287356
aF0.039980514972661585
aF-0.9266780877893621
aF-1.621004318313295
aF-0.17495466215763883
aF0.9254438884567399
aF0.567157254329729
aF0.5054737755271702
aF0.2659750590824899
aF12.898135693866207
aaa(lp24
(lp25
F31.90225003334607
aF-3.858438532594592
aF-2.203108211889617
aF-0.05471241895486177
aF-0.2773970361594295
aF0.2628009328864689
aF-0.11742865227395462
aF-0.002727691100461288
aF-0.1432852588891147
aF-0.13323532053029938
aF-0.19373956830460776
aF-0.18732742878806957
aF10.854818012859633
aa(lp26
F33.57552384965158
aF-4.001924345678583
aF-0.6899861134463197
aF-0.5736085295506823
aF-0.4352879346248481
aF-1.1196992854402754
aF-0.31027789897228014
aF-0.8540058905379055
aF-0.31808017685817414
aF-0.5904035774975839
aF-1.7011801217972702
aF-0.1704880479443982
aF13.061180301568788
aa(lp27
F36.98206636938622
aF-3.732955136107835
aF-1.8750991089997604
aF2.161895406307426
aF-0.5397584929822068
aF0.25043571618875
aF3.060779164174764
aF1.3843340148586423
aF-1.31915848789622
aF1.873387696515484
aF2.1514038563818474
aF0.11812708494251248
aF13.087466237214013
aa(lp28
F46.900204641020565
aF1.197852840788176
aF-0.8308204571747555
aF5.210395364388739
aF-0.9510601529087008
aF-1.349142111508866
aF-1.8306761643122846
aF-2.9779315783488656
aF-2.752632259612068
aF-2.4234062008754513
aF-1.6419992112201367
aF-1.356972035281405
aF23.99515978793997
aa(lp29
F30.218389467409075
aF-3.743095268996366
aF3.7144924014348146
aF-0.6597335744834134
aF-2.4335841608217113
aF3.671469038394637
aF2.9822578092147256
aF1.164672164975383
aF1.9306743989883617
aF-0.6563153352420967
aF-1.2372815240472284
aF0.8556073230386871
aF10.682497120039399
aa(lp30
F35.83147417719695
aF-6.827112121309998
aF-5.226874199497379
aF-1.2927746573495242
aF-1.6982207323968161
aF0.24712581379365184
aF-1.4333410201772512
aF0.3208302839300037
aF-0.9367655727545006
aF1.016619636925516
aF1.2683437564658169
aF-1.5526163269832203
aF9.457360505018269
aa(lp31
F38.7964141637422
aF-2.6251994561594927
aF1.1774346970272065
aF3.075663469448705
aF-1.2793808439099432
aF1.7877822533623333
aF-0.7376670720470883
aF0.03708388126141654
aF0.7641396493065404
aF-0.15586695641009907
aF0.5605310200043929
aF-0.216298956876949
aF15.967644885836647
aa(lp32
F36.52966135866663
aF-3.9679053237332567
aF-0.6982433439429878
aF1.08086732539548
aF-3.0385247626577914
aF-0.8228734456061555
aF0.1644941820118695
aF0.7154428495452186
aF-0.5895394710612225
aF-2.5179786722696713
aF-1.5924790874730077
aF-1.1100710719224764
aF15.179366250972587
aa(lp33
F38.066035748091096
aF-2.8118916997472527
aF1.2265092184722284
aF2.4729612832302825
aF-1.3846281093818038
aF2.266410713875294
aF0.2328774434467289
aF-1.6662147927668065
aF0.06587625342870711
aF1.8123062281496485
aF2.500191498985137
aF1.0675302073318724
aF13.708552184523782
aa(lp34
F36.484924841953344
aF-1.4470197133181975
aF-0.9898450874623839
aF-0.032444533594813585
aF-1.193508831034038
aF-0.12656771151854163
aF-2.3574889958995726
aF0.09619119819642419
aF-0.6900550588328981
aF-2.02843122087043
aF-2.1502943648161033
aF-1.3525045320909017
aF16.183588812299348
aa(lp35
F39.825126968829835
aF4.047102058699759
aF2.132554325995226
aF-2.150668137358555
aF-3.4307896340732404
aF-4.0223390634038205
aF0.08388336234967797
aF0.7428865822630225
aF0.45981862110319394
aF0.6458438676734856
aF-0.9450543071158508
aF-0.7907383593510543
aF20.30485108365225
aa(lp36
F45.29073140449443
aF1.6422899971681502
aF0.3173205964284409
aF2.9349061855751377
aF-4.199255203650788
aF-1.0543939933054616
aF2.1191490377011686
aF0.679003482852819
aF-0.29858872793829505
aF1.7409342937092749
aF-0.29173088366399264
aF-0.24802505642044848
aF21.20750142192262
aa(lp37
F37.730593582983964
aF0.7309104440442569
aF1.1589830129006402
aF0.9410076134860106
aF-1.5148102444970908
aF-2.2782430517303247
aF-0.6603207479179208
aF1.8875013375020115
aF-0.7599958848941578
aF-0.530842671690319
aF0.006274863207453851
aF-0.3764377469374483
aF17.907486345701624
aa(lp38
F40.85538481701486
aF0.36262755539381764
aF-0.18275144748494598
aF-0.2607425713572894
aF-3.892178792824152
aF-0.14845193789206412
aF2.149442400928608
aF0.16760856777635147
aF-0.39281371923748865
aF0.42051062235934594
aF-0.9725051556241635
aF-1.130432289285985
aF17.491752143690455
aa(lp39
F42.033975341216
aF1.2638122998497348
aF-0.3035007440578037
aF-0.12385829648105501
aF-3.069364552490475
aF-1.1527145143393793
aF1.8912238457507304
aF1.0517602070611245
aF-1.2642084124130053
aF0.10262761652911206
aF0.497652902249617
aF-0.6163365785922876
aF18.558140257083494
aa(lp40
F39.909969258396345
aF1.2253154144864393
aF0.07895710420117225
aF0.1137961542757929
aF-2.494332009022194
aF-1.4987663924200696
aF1.947700665502527
aF1.602598996853961
aF-0.7584026653373412
aF-0.01982212826822327
aF-0.3449007978291928
aF-0.4789472671629843
aF18.04009480048089
aa(lp41
F41.54390124018035
aF0.9261672280182311
aF-0.7594783507697572
aF-0.27029012446566486
aF-3.558422017328233
aF-0.7295071080183977
aF1.3022263352801262
aF1.251817614905236
aF-1.1011483025676267
aF0.31249593276069687
aF-0.1733893979751535
aF-0.9285899083349692
aF18.130281596456193
aa(lp42
F41.30144832571199
aF1.5497609100598333
aF-1.469582904003216
aF-1.4627492568573421
aF-2.015585711928759
aF-1.607787544255443
aF2.4493157814797435
aF1.565661707581322
aF-1.5299557494658305
aF0.07595689928546487
aF-0.7896421855989793
aF-0.7244423201223248
aF17.539114022531113
aa(lp43
F36.1275385026201
aF-0.26724939033259454
aF0.7559859599979024
aF-1.012172839754626
aF-1.6794655455612046
aF-0.23887480993956522
aF0.6847541813271729
aF0.1334100925342656
aF-0.1943243191003512
aF-0.45627687040687004
aF-0.2721299057715146
aF-0.21751455523110597
aF15.544848422813669
aa(lp44
F39.667012404910196
aF-1.1084546515524303
aF-3.777579315220198
aF-1.454402715274106
aF-4.304710183665314
aF-1.7886655646514185
aF1.7697072584320033
aF-0.114588241726298
aF-3.124258264520969
aF-0.6426318551812015
aF-1.1989581067126718
aF-1.364206027842848
aF14.984122936163153
aa(lp45
F28.213811811814978
aF-5.358208886617945
aF1.152311547155781
aF0.26887633829581914
aF4.677966626386442
aF2.579233264777235
aF-2.735674490558835
aF0.616598782688931
aF2.898541667998539
aF0.6241155864874446
aF0.898570459679321
aF1.829907650930803
aF9.231615517937783
aa(lp46
F39.25022247250835
aF-0.6402047455500739
aF-1.480721347380258
aF-0.8496258276369123
aF-4.896223325761849
aF-0.23982793354404097
aF3.363728089550527
aF0.43357017904683864
aF-0.8138423894715909
aF0.47474006496819315
aF-1.2556736029480333
aF-1.25982060906582
aF15.519245172387294
aa(lp47
F32.583287912723186
aF-3.863457406713154
aF-0.7346275502778818
aF-1.2920557972767541
aF0.5924070622433653
aF0.6254584942534673
aF0.2138806450653774
aF0.14831127806278815
aF-1.1599538538948586
aF0.04339876488319641
aF0.6855667253894971
aF0.41117595489419806
aF10.912281025758709
aa(lp48
F30.59988513132445
aF-6.37544389947448
aF-2.676000791335028
aF1.532610421485456
aF-0.22672638144431745
aF-1.36591696253897
aF-1.8432327333907805
aF-0.23770282707599794
aF0.2577573283146977
aF0.6389735732956909
aF-0.14776916364477394
aF0.7406197359186382
aF10.36193283171228
aa(lp49
F36.57256115771333
aF3.2059626402758865
aF1.706848190601653
aF-0.5396130530729131
aF-0.28164192037872066
aF0.7126323067253101
aF2.387060230236331
aF0.7043542621335692
aF-0.9542398391198725
aF-0.8008103469614318
aF-0.39233328176978033
aF-1.3336254843136135
aF17.030296935157118
aaa(lp50
(lp51
F32.422243798501725
aF-3.2961476111270374
aF-1.6796856148063526
aF0.08941939272760634
aF-0.4063704474290449
aF0.5870384199980586
aF0.5671127699648496
aF0.4529456701433355
aF-0.21742359369965117
aF0.17329264175117376
aF-0.21413788435726167
aF0.19247146053905212
aF11.858683327043954
aa(lp52
F36.10452938090536
aF-2.748138946448836
aF0.8686328947237641
aF0.8183474734072566
aF-0.745175127380207
aF-1.0857370248559977
aF-1.4875224637360076
aF-1.2314682688025336
aF-0.0830555222513586
aF1.2478416837041726
aF1.781808610612129
aF0.7381471469899978
aF15.32636787679655
aa(lp53
F51.82226322298204
aF2.456647298833924
aF-4.380929344063825
aF3.6676696640270237
aF-1.1367806733991326
aF2.0090154996582252
aF1.0837150810719505
aF-2.5121325038255238
aF-2.9945195764999006
aF-0.9540624501816224
aF-0.9125133124681638
aF-1.6311296172541376
aF23.04148005142455
aa(lp54
F31.72093786452433
aF-2.628052839994581
aF2.834206883143383
aF0.08509885290753871
aF-2.4249214125874454
aF1.3220284257640875
aF1.4831597177376974
aF0.4493952301046922
aF0.44237152468846586
aF-0.6842014340600631
aF-1.0066389496513173
aF1.22874424453328
aF12.851038944536985
aa(lp55
F39.91754004026836
aF-4.703890005745289
aF-0.5540179366710359
aF1.2776071120604153
aF-4.85823290554832
aF-1.4739504227724498
aF-1.309490662154414
aF0.7182774003991291
aF0.37956881980287177
aF1.2547647843444472
aF0.8556679462722678
aF-2.7001425019832963
aF15.048033363918385
aa(lp56
F43.314146172508885
aF2.9592028684366634
aF1.929147610648193
aF1.062454880984827
aF-2.4237230364755504
aF3.6245551199776354
aF1.6964010151666267
aF0.47522938064647047
aF-0.5278491656012262
aF-2.558576451349189
aF-0.1685623233032994
aF0.8326740172219165
aF20.210030185666696
aa(lp57
F36.380841158684
aF-2.6923575515688967
aF0.7412653199612453
aF3.2221985932891197
aF-0.35908574581079034
aF-1.2123246574206805
aF-1.682122090067199
aF-0.5640660709098428
aF-1.4654789743515515
aF-0.46102330139828485
aF-0.40058604509143203
aF-1.318653087517411
aF16.588748045240038
aa(lp58
F43.862755904340425
aF-1.1746229584195804
aF0.9675876812138458
aF1.459792369685902
aF-5.244326359954899
aF1.680526697770417
aF0.6904151928485637
aF1.0465075645047215
aF2.5570321596933163
aF-0.708635278984293
aF-0.9213984942333135
aF-1.543144482901365
aF18.946235718297327
aa(lp59
F38.511106484348026
aF-5.313558768235528
aF-0.1494675558081371
aF5.223996411168683
aF-2.1994827527367438
aF2.4427672008668697
aF-0.30643936539776795
aF-0.5368382351101137
aF-1.9478989772984603
aF-0.5568076290501066
aF1.2736097644954456
aF0.10022696856392965
aF13.992161885255886
aa(lp60
F37.42595150104969
aF-4.093974549375811
aF-1.8272895818296488
aF0.1110215409009474
aF-3.27277248035804
aF-0.02346501698196013
aF0.5097244495642332
aF0.9213971820197744
aF1.872438369000046
aF-0.0027892803710374836
aF0.47899781735924707
aF0.5870025168244257
aF12.998097453032823
aa(lp61
F40.20116548577384
aF-3.2323479698153883
aF-0.6277652866087193
aF2.6352043310812707
aF-3.5142775200761123
aF-0.8261482665895796
aF0.1145893805786448
aF-1.0676734371618222
aF-1.47543033801248
aF0.39034267455947913
aF0.606010350260757
aF-1.2655073853912073
aF16.360418971281355
aa(lp62
F41.959149149452976
aF5.800697600728077
aF6.033144413710566
aF2.0165771709438354
aF-2.4426172221963856
aF-1.6727399065707693
aF-1.559879091669199
aF1.2140830025196798
aF-0.19520005900671422
aF-2.4912863923079667
aF-1.2559973184136322
aF-0.40765811309412825
aF23.945004232280805
aa(lp63
F48.87113990750082
aF3.3939558941824597
aF-1.8979156677039397
aF-1.1869312286506895
aF-7.012588133176166
aF-1.8405617966947894
aF2.7927094584996386
aF3.109480203575739
aF-0.9454566276342384
aF1.9024181565166671
aF0.9811187556567903
aF-0.15191094237108688
aF22.86150308582404
aa(lp64
F41.82117409695609
aF-0.27347087320278596
aF1.1772679402520367
aF1.5144520879429992
aF-2.041918006458
aF-0.16600750821435806
aF1.059545552048604
aF1.3165827510446102
aF-0.6126814058107423
aF-0.6247490490973748
aF-0.1269038863847464
aF-1.7912418732378166
aF18.3067427809182
aa(lp65
F42.58663457966284
aF2.2415610532593986
aF1.11026493650236
aF1.6231151035594764
aF-4.468120257538473
aF-1.019847948560111
aF0.9285363361923238
aF1.4266686691235844
aF-0.766604422360386
aF-0.31997953602321444
aF0.4257554071082049
aF0.07843304778463434
aF20.198352431236042
aa(lp66
F45.24473212431857
aF2.080462371723355
aF0.4147489197325753
aF-0.24762401191908967
aF-4.066576691856389
aF-0.7711149318358826
aF1.2544526126740305
aF1.55671799505289
aF-1.217302416850673
aF-1.0292956877750106
aF0.6227544312552787
aF-1.1369319679940748
aF20.625917551703257
aa(lp67
F45.2690623404134
aF1.9984075344162355
aF-0.3610838873649112
aF0.8017454920521379
aF-4.161037307557916
aF-0.8069840912448334
aF1.7123198750580566
aF2.0518916446269104
aF-1.347442164429518
aF-0.5901358075741074
aF0.2524957259274179
aF-0.5565576044575382
aF20.48529452155991
aa(lp68
F44.24243065666656
aF2.5834949311332047
aF-0.9076535800052319
aF-0.22145978802626515
aF-2.5580444639409
aF-0.775418829948376
aF1.4376872820649704
aF2.0216026926822153
aF-2.3369665303462557
aF-0.07839444010915553
aF1.048698040935781
aF-1.1637982170379424
aF20.06416457228527
aa(lp69
F45.07639736200307
aF1.3411895664668956
aF-0.2082511335713496
aF0.21996554057006565
aF-3.69510599261322
aF-0.5111896118275044
aF1.1868407153804097
aF1.199146393193179
aF-1.2246565604678235
aF-1.0202288143391862
aF0.9380628620826931
aF-0.9302574289806429
aF19.872684417363555
aa(lp70
F45.622524109007514
aF2.4226445828445127
aF-2.14852843974714
aF-1.4146205523878392
aF-3.080035063793249
aF-1.6471526739268487
aF1.5629144839992866
aF2.2875394477679016
aF-2.2799622651233635
aF-0.9006983989977764
aF0.28715918810302776
aF-0.6227597377997983
aF19.44334039263741
aa(lp71
F44.85078569629345
aF1.9963261671125054
aF-3.3399936592566983
aF-0.9773674029105573
aF-3.486213878506564
aF-0.5680721211844746
aF2.8618338260956633
aF1.5795414404684949
aF-2.7629162592487813
aF0.4370951826048416
aF0.6362049475210205
aF-0.9937381148280354
aF18.133267080148478
aa(lp72
F37.62291199271202
aF-0.511182478822674
aF-0.3869255997120937
aF-0.9919171953847604
aF-1.5613500584680797
aF0.19030895984786267
aF1.6170736870259903
aF1.685316427009939
aF-1.647020156273441
aF-0.9863044942053729
aF0.2521088546190458
aF-1.0029235022990823
aF15.896949775490015
aa(lp73
F34.68185369616816
aF-0.07945921342564832
aF1.6701659817031782
aF-2.60805972627435
aF-1.0161173299443456
aF0.0863554143405158
aF-0.8471552743344126
aF-1.9298933325520786
aF-0.13093916228361913
aF-0.22078916766054962
aF-1.0547548086590623
aF-0.2363963448440758
aF15.046694544184106
aa(lp74
F33.740571554602305
aF-3.665148554397244
aF-2.7427381907919726
aF-2.3877635389475937
aF-3.9008250627180687
aF-0.9801636376830173
aF0.0004212969909402897
aF0.5934357143213473
aF-0.5353388577445759
aF0.4203857267229457
aF-0.6488144741863682
aF0.4893959298893396
aF11.876765271378789
aa(lp75
F35.26891255854647
aF-3.761647287916113
aF-1.870631398958161
aF1.037620408024874
aF2.0818858561886833
aF0.6559084658496181
aF0.6574961149664126
aF1.602869143702752
aF0.7687498673628615
aF-0.7187773035810101
aF0.5330050991679858
aF1.3276483826957028
aF11.659879133444553
aa(lp76
F34.9832289670554
aF-1.6348187865439667
aF1.6382706178381559
aF-0.23392251741775494
aF-0.6878121391755087
aF-0.8400955557819183
aF-0.9980938613642727
aF-0.5671355038650701
aF-0.06869846115606115
aF1.5822585963476832
aF-0.09223248556554309
aF-0.8223377876147127
aF15.11635927848748
aaa(lp77
(lp78
F33.599057716383406
aF-3.3615839301890014
aF-0.9861932717508217
aF0.22828333506791662
aF-0.01090836883490074
aF-0.21948993836419192
aF-0.5545189069285198
aF-0.31654096762300044
aF-0.25968602151110537
aF-0.08288419531424003
aF-0.2392302049427691
aF0.030587071631858816
aF12.807618067721064
aa(lp79
F54.80013998023275
aF1.4023805785606975
aF-7.384904799480995
aF4.48146580676903
aF-3.3164969949025718
aF-2.126290748216614
aF1.2372707183187874
aF-1.8640334740347289
aF-1.7830021004503822
aF1.1902637314620583
aF0.41813401542217477
aF-1.269505031841652
aF22.86083265747905
aa(lp80
F30.341835458082016
aF0.941471107687061
aF8.252706613011426
aF0.026030136876544097
aF-0.04050540658924273
aF3.3428801038649394
aF0.4421872383824294
aF-0.9485984858150995
aF-0.5449677586649756
aF-0.9160517515245616
aF0.2067619679025857
aF1.277968599367716
aF16.48353964493689
aa(lp81
F36.89392109045951
aF-9.363069808446408
aF-6.309445345304949
aF1.6085808870658895
aF-2.0491179078499706
aF0.8096908763456928
aF1.1865927364443305
aF2.7439703338857093
aF0.8312137597300742
aF-0.05877655263454451
aF-0.2156104196757031
aF-1.0135924588403853
aF8.506346104197318
aa(lp82
F47.171942072726466
aF8.84712374655008
aF6.818144111295173
aF1.0139591978931684
aF-4.245465495491592
aF-0.4072105881125928
aF-1.447297042859701
aF-0.3846489754168615
aF-1.0479353533869011
aF-1.826420630321144
aF-1.326154911664744
aF-1.6944409708802044
aF28.677628480263472
aa(lp83
F34.626535333694044
aF-7.629479629219057
aF-1.8677736991982015
aF2.6795929408676384
aF-0.36411335477523
aF3.1948530558622914
aF0.19942550572722262
aF-0.6909048228565048
aF-1.006075294988395
aF-0.380179855228875
aF1.9970851493422137
aF0.34468186098081177
aF10.297480883991321
aa(lp84
F43.909963519189155
aF4.127557546006444
aF5.1219991354643515
aF0.8984994398490849
aF-6.566070659894663
aF-2.450274485625206
aF-2.153862167215051
aF1.8716071658598026
aF2.4139395061085605
aF-1.3318864308574723
aF-2.234955261542307
aF-0.7066349460807874
aF22.781606711333843
aa(lp85
F41.703166746699864
aF0.16093576626197892
aF1.226097432077066
aF1.0886968669532142
aF-1.7713722172305286
aF2.5639300635715574
aF-1.0103601366600108
aF-1.6830926568151041
aF0.18571923341938112
aF0.5063067712261615
aF0.4857499148368323
aF-1.8472473897894108
aF19.430535431225618
aa(lp86
F38.84079337494222
aF-2.825485584759636
aF2.3068011571024685
aF4.0329926319052545
aF-2.895448725470266
aF1.1929952974452478
aF1.3402230633425716
aF1.0552658395875498
aF-0.26340038338448224
aF-0.5391627718398253
aF-0.7683300124040537
aF0.40481189118141814
aF16.61930155935302
aa(lp87
F40.36703194296255
aF-3.33294180746017
aF-1.432118572497653
aF1.9533827114009927
aF-1.2566289829438042
aF2.8058891341179226
aF1.4829796385194753
aF-1.2076354951077493
aF-1.682522783112085
aF-2.095977257507168
aF0.2800158288616329
aF0.7582618534910253
aF16.001867062068406
aa(lp88
F37.75530630588891
aF-2.6486934902468366
aF2.029970457454312
aF2.14679563982266
aF-3.8802939948735906
aF-2.014089344407895
aF-2.601099175838492
aF0.8210617378713073
aF1.5971472653396717
aF-0.7532225890254453
aF-0.842181618243383
aF-1.412134694619665
aF15.778167284859997
aa(lp89
F46.69596749308714
aF6.834447398919261
aF1.9877242748794617
aF-1.9322133370541963
aF-7.810912930707973
aF-2.3815488974164785
aF-0.14284257773440956
aF0.3397888027493704
aF-0.9450761928758591
aF-0.4046442986091635
aF-0.21053075455918957
aF-0.6575632952241008
aF25.412444406237913
aa(lp90
F48.6930191444719
aF2.0450292997818456
aF-2.27685722205797
aF1.6079545158394832
aF-2.718570742958865
aF-1.8291135373549239
aF2.112003002379445
aF2.6804778933361724
aF-1.815708689158782
aF-0.03795490795815171
aF-0.04584046325725888
aF0.7204500128305242
aF22.221931266130415
aa(lp91
F42.71309146298183
aF0.2199273336743417
aF0.9362277347339365
aF2.230382001174462
aF-4.208416026000467
aF-0.48806620131154466
aF1.9118543279371332
aF1.5837353090606598
aF-0.49363271663177966
aF-1.1514319736764322
aF0.44688109271122856
aF-0.882462161635141
aF18.480488265139133
aa(lp92
F46.63092431874461
aF2.019223527730727
aF-1.5221956532376906
aF0.049832613520745306
aF-4.2645307587846215
aF-0.19304375146367092
aF0.16483613767043415
aF0.6137086336767068
aF-1.5551269284041873
aF-0.7398911856398839
aF0.5240714724268074
aF-0.4270993328606383
aF20.930720587595342
aa(lp93
F45.23015306040569
aF2.680755719125254
aF-1.6454867740624741
aF-1.019322304732341
aF-2.8654352046574876
aF-2.0429102945448845
aF1.819131250811697
aF2.3993274894887233
aF-1.7724267238483242
aF-0.5105749898330628
aF0.3450980910675275
aF-0.0950938753309219
aF20.53911949245639
aa(lp94
F45.547233034337765
aF1.5311555275391149
aF-1.0940957865511984
aF0.5353560942327706
aF-4.5090530372259305
aF-0.31800627671116066
aF1.9269684529722717
aF0.9698140109699329
aF-1.1450467595656737
aF-0.5109224260275965
aF0.4516505900286116
aF-0.4299308568241502
aF20.109205250599025
aa(lp95
F45.014682208177874
aF2.150167302637336
aF-1.7931451264210554
aF0.1861034840078976
aF-3.3586297544411594
aF-1.1800197876140204
aF1.333175955168979
aF1.983355713949925
aF-1.7286376843738047
aF-0.7432612609208528
aF0.30367701389417145
aF-0.48063137777509035
aF20.034997753245925
aa(lp96
F45.368856215349055
aF1.1577370095663315
aF-1.0090647972745586
aF-0.5020239531205744
aF-3.628031069018206
aF0.1375637769929018
aF0.9790893983072404
aF1.5659824580732766
aF-0.9903484104895548
aF-1.1258945446607362
aF1.262969281844327
aF-1.2193929075480514
aF19.869587903990322
aa(lp97
F43.789839774447714
aF2.939707786242343
aF-2.2340344882741157
aF-0.39395550379402067
aF-2.94200593166544
aF-2.162080718659487
aF2.3270781691362563
aF1.6160521771613519
aF-2.323983741931761
aF-0.061320259417249834
aF-0.14942697282325496
aF-0.2548188439132365
aF19.367084402315424
aa(lp98
F43.64666332411033
aF1.5061207614955603
aF-0.8325780438709254
aF-1.6574258981925398
aF-3.7568062235693156
aF-0.0087346646094012
aF1.1799738632770658
aF1.0926350667053495
aF-2.632977404156463
aF-0.2961676312851632
aF0.11976019022012857
aF-0.6190440426344086
aF18.890281819364787
aa(lp99
F40.59230646212994
aF0.7952979821402433
aF-1.855438231194397
aF-1.6515971116045192
aF-2.4681320195100627
aF-0.008576679206867388
aF1.6017275852921087
aF0.24127376913754484
aF-1.1364433203800919
aF-0.7236288225311793
aF0.9667585304502615
aF-0.8561503579715506
aF17.17784394387812
aa(lp100
F32.403849970307895
aF0.4078656851256701
aF2.094100034630473
aF-2.408680977064779
aF-0.5152901290419916
aF0.8394161882318889
aF0.7156421138471825
aF1.2806595501893892
aF0.9601129300434248
aF-0.022834015035608946
aF-2.22449637817734
aF0.6196107352832372
aF14.887587550303959
aa(lp101
F35.715368143399864
aF-3.477540908028004
aF-0.9018576412109933
aF1.0628410585976524
aF-0.8907195345479113
aF0.03081182731898957
aF0.3543722999274648
aF-1.0612358192171496
aF-2.0370569073127496
aF-1.179012978605019
aF0.45876251116909256
aF-0.04390821027303721
aF12.815116683258967
aa(lp102
F31.20476746007344
aF-7.883794880195774
aF-3.669057090321073
aF-0.13638432472504408
aF1.0929563364491384
aF0.40466053799675195
aF-0.45178362162704955
aF1.216023409247469
aF2.3289329781184027
aF2.4949937644784823
aF0.3812352012435205
aF0.16023397327566996
aF9.004467359794633
aa(lp103
F33.59460905416286
aF-1.0956927216351255
aF0.6570983109074433
aF-0.3935477360329473
aF-2.2312718049434213
aF-2.609194666353618
aF-1.8296655559646249
aF-0.44664815175082034
aF-1.1842883481720232
aF-1.2666546371274419
aF-0.8332606237487203
aF-0.5805187560698677
aF14.17311759760398
aa(lp104
F33.26586906987489
aF-4.360883306546912
aF-2.574429248710774
aF2.311422169149409
aF1.664013385855748
aF2.9194761413881056
aF1.9855190308579842
aF0.6865011293686871
aF-1.3266760957244754
aF0.3067480089757779
aF0.8510226524431717
aF-0.6760390803082715
aF11.049807368205357
aaa(lp105
(lp106
F37.00344825536593
aF-4.406607457678727
aF-3.547642345437025
aF1.502766400122494
aF-0.7859698392820326
aF-0.5882237833025965
aF0.5216849452133668
aF-0.25319588549244926
aF-0.39166845322192184
aF0.4754166514488134
aF-0.1533843374642202
aF0.01870268742702739
aF12.34843068515403
aa(lp107
F43.02542259909828
aF2.897950027031551
aF5.93389779779703
aF4.405398314000859
aF-1.495782088528438
aF1.3162200731066784
aF-0.5522157532156934
aF-1.9502194275068587
aF-0.19950223196429923
aF-0.6203858676297059
aF-0.5388348086430101
aF-1.6136565617819554
aF23.824658087304663
aa(lp108
F34.96628055889654
aF-5.549845718921896
aF-2.0604540565259413
aF1.1196259919662546
aF-0.7494830139858745
aF3.0358597507565346
aF1.185496480677343
aF2.0517761221818844
aF-0.7037355164432333
aF-0.9517336679137138
aF1.1722763883381373
aF0.5591098749767622
aF12.4595242568293
aa(lp109
F35.06043390580293
aF-5.298120161323538
aF-3.309509943576746
aF0.27148409065387114
aF-0.5857376797524887
aF0.6258210019780313
aF0.04428667466348851
aF-0.8026668196439483
aF-1.1295229680555916
aF-0.19580341826588837
aF-0.9300604258994842
aF-0.8595408604906145
aF10.48398194845349
aa(lp110
F38.6938673072974
aF-0.892912882620398
aF2.2544030251656286
aF2.647531471362716
aF-2.2131094447855855
aF1.5203889478545367
aF-0.8938654530370173
aF-1.26517165382745
aF0.9611641352972903
aF-0.4315245766444605
aF0.1292458159406472
aF-0.6701241623283776
aF18.403951389400113
aa(lp111
F36.033943332304005
aF-6.887674940737588
aF-2.6038289693236933
aF-0.22057931742754966
aF-2.77654093391122
aF-0.37980241870775355
aF-0.22593704305667234
aF0.22522545222508034
aF0.6010010445067513
aF0.5343250226334957
aF-0.5100347547133883
aF-0.8602170572932144
aF9.727322410669267
aa(lp112
F39.33064138986327
aF0.40098148542767387
aF3.6466727744954186
aF3.937869557000397
aF-0.7754109942405842
aF3.5133753197150916
aF-0.16254269074030525
aF-0.14569355908083353
aF-1.2839411530274365
aF-2.6918432438289095
aF0.28584585803738505
aF0.0017292942534118394
aF20.881807968119787
aa(lp113
F32.6620629928577
aF-10.121821649438441
aF-5.110766594875312
aF-2.15192332160242
aF-5.036349390218179
aF0.3714992175927547
aF0.25160907713432423
aF0.4143600090026818
aF1.142408980785954
aF1.5388909599148
aF0.22097931873609356
aF1.2421330418898942
aF5.01447086632632
aa(lp114
F36.887679139015574
aF-2.94827176450648
aF2.017248580046291
aF2.2511512830319487
aF-1.427090076062228
aF-0.22301846582129758
aF-1.3386907752691106
aF-0.5190794667031884
aF-1.3378917819292653
aF-2.011301463293356
aF0.0018879027323288888
aF-1.5413841926413339
aF16.234050918288865
aa(lp115
F38.80331799563778
aF1.940716319767965
aF2.5688612317515096
aF2.371775268055572
aF-0.791221431712132
aF0.8087676560330757
aF0.14706833760798083
aF-0.9204903095816597
aF0.3952679275217624
aF-1.3649076278448002
aF-1.1467541502039817
aF0.6295105287182219
aF19.98335499440841
aa(lp116
F43.61893739531422
aF4.886503984232503
aF2.016822958591203
aF-1.618416714567279
aF-5.911114947321364
aF-5.5245333347512995
aF-0.22395114391847093
aF2.1683754350506206
aF0.26437684466434747
aF1.68025083783038
aF-1.2561385959067777
aF-1.7732731121260041
aF21.96554343568731
aa(lp117
F41.578069631662025
aF-0.7718366066797122
aF-1.1117728530315414
aF1.446712168048959
aF-2.333295429656662
aF-1.2816724816374363
aF1.3145444419167334
aF1.8550571106823885
aF-0.684578788579302
aF0.6135066280577715
aF0.36918505514698585
aF0.21079863645666486
aF18.108804466382455
aa(lp118
F39.65317512396225
aF0.6565868693251458
aF0.7920706213036139
aF-0.4608308060706758
aF-2.635500105813087
aF-0.5833601354557254
aF1.1497386792902253
aF0.5680285145758763
aF0.13385276291823414
aF-0.46005328531358675
aF-0.6391956935404208
aF-0.48746420667193485
aF17.491304778091976
aa(lp119
F39.06811845194338
aF1.1252665073291392
aF2.329618471855073
aF0.9281243773575171
aF-3.736218721656909
aF-2.174033614491544
aF1.0453378214003761
aF1.8032161178002921
aF-0.5180668924575573
aF0.16501341544436426
aF-1.0624903260891907
aF-0.9826824276204436
aF18.592603721695554
aa(lp120
F42.87872739451901
aF1.717625399625797
aF-1.3087170458225919
aF0.06034337758695335
aF-3.808781886667009
aF-1.75273712847412
aF2.0831566407021826
aF1.1647371572850187
aF-1.2819596143963454
aF-0.2386765121213192
aF0.645644629614273
aF-0.8638326076825659
aF18.810326692024677
aa(lp121
F43.19726802014634
aF1.20417670139096
aF-1.173066155986394
aF-0.20309977691588216
aF-2.821904975256787
aF-0.6107710648301088
aF1.2720978863891712
aF1.6925803086918312
aF-0.8973540621298067
aF0.5185543020619432
aF-0.011289379610263883
aF-1.636170913665237
aF18.455117860558193
aa(lp122
F42.08449914179292
aF1.586231070807396
aF-1.707391185138305
aF-0.6185997068100616
aF-3.448877810905922
aF-1.990012652990624
aF3.4056779212092296
aF1.2941507564298484
aF-1.917164496438048
aF-0.27847636664474357
aF-0.12450607505056514
aF0.12515491177059423
aF17.864533760526008
aa(lp123
F40.84419063014798
aF1.2989447468922557
aF-0.7984555112173759
aF-1.2671484176000725
aF-3.4321948095753685
aF-0.7855325141657046
aF1.6532751170377562
aF1.527332815060775
aF-1.94619911888454
aF0.5712632255575061
aF-0.34901437577809186
aF-1.0839370049024397
aF17.64745199868791
aa(lp124
F40.462439166463675
aF1.1340580053793863
aF-1.801063482623055
aF-1.9439720319477258
aF-2.006167099310571
aF-1.1979009338222748
aF2.4421124588704184
aF1.4212106054745344
aF-1.5071526294183806
aF-0.8460677983807336
aF-0.41277932745162293
aF-0.3442846482410027
aF16.281791566020264
aa(lp125
F34.05604056727183
aF-1.7372754798411176
aF2.0155267213225385
aF-0.7275462950500791
aF-1.8677405703851688
aF1.193176297285254
aF0.03478822195760256
aF-0.5810403141497774
aF0.3676142963084743
aF-0.18453064427932647
aF-0.9378599065458699
aF0.13778853801567642
aF14.476109273145916
aa(lp126
F41.031871777878536
aF-0.9572107703269621
aF-4.826434181575874
aF-0.7106088841035525
aF-2.363486419594126
aF-0.9521519145841328
aF2.9267756095733937
aF-0.23856411313317316
aF-2.725342426251453
aF-0.01733875068580068
aF-0.7621427515879424
aF-0.599517395734787
aF14.957636434240436
aa(lp127
F23.745559273449324
aF-10.644987398666203
aF-1.3136754702853235
aF-0.46893660312385166
aF1.76159190426519
aF0.44674939133733754
aF-3.3526654759656265
aF0.3965802865406762
aF2.1945238387802686
aF0.8326357503766053
aF1.288300927597437
aF1.0774573417371385
aF4.49494911730242
aa(lp128
F37.5029578077018
aF1.5631628621068812
aF1.3329365671242666
aF0.9184432346759469
aF0.13099911507332296
aF0.3389633272623459
aF1.696677205364782
aF0.17305228442370385
aF-0.5634774531175889
aF-0.3970429520223594
aF-1.3480553932858745
aF-0.4366418746169448
aF16.450094345592003
aa(lp129
F33.11527319269463
aF-3.633620472915066
aF-3.128610502349224
aF-0.3596214140435826
aF-1.9976339699069827
aF-0.7486405065742545
aF0.0002847647609625775
aF-0.14589677420435038
aF-1.724017329836751
aF1.2752599568708163
aF0.8754295540484429
aF-0.41540164513198186
aF11.933758347014376
aaa(lp130
(lp131
F38.11198757257041
aF-1.7270862752120475
aF-0.7556823527814879
aF1.2984781677743207
aF-1.2875135544217349
aF0.13490269732006807
aF0.5723204562366375
aF-0.559881093810016
aF-0.42867241384875615
aF0.20023165176371022
aF0.027503667548547994
aF-0.3179603377963714
aF15.505287349259552
aa(lp132
F36.371567101857345
aF-1.3454837792137002
aF3.3844114348175394
aF3.1014895661669253
aF-0.7330194198367936
aF1.4414120021390668
aF-0.0696438397985662
aF-0.6692329318239434
aF-0.010015836327216532
aF-0.47420904338961295
aF-0.7732995171836304
aF0.2672051643559328
aF17.968000987151974
aa(lp133
F35.266093992774
aF-4.919902035570938
aF-3.3213539305278106
aF-2.918840434076703
aF-3.047786242538632
aF1.0496429100357454
aF-0.0994293018012137
aF-0.10901904398375595
aF-0.5083873710818326
aF-0.22512198792767785
aF-0.0024473966415373694
aF-1.1657254328772035
aF9.490556190158836
aa(lp134
F37.44616928261436
aF-0.4254332402645715
aF2.7603162924189535
aF3.7698049303431067
aF1.1521718955333884
aF1.3611239666453812
aF0.2046102755695498
aF0.9875088946323684
aF0.043020358177959905
aF-1.6812348319552282
aF0.08384543903150452
aF0.9729078526277883
aF18.362951612688818
aa(lp135
F37.70408900594981
aF-5.394045704519183
aF0.5373839219031591
aF2.3629850239787915
aF-2.2634031930252165
aF2.0883336871767204
aF-1.4324044444533153
aF1.4036082527429983
aF1.9864368120332372
aF0.8752671132476194
aF0.7070322680980552
aF-2.1087186120963315
aF15.173070005321806
aa(lp136
F40.43365179624085
aF-0.03868390188124682
aF0.6395842805364
aF1.1193631375391304
aF-3.009174323601106
aF0.5918440268708598
aF0.36609349930196394
aF-1.7197755304433033
aF-1.462153432865879
aF-1.058742170827089
aF-0.4121729915920981
aF-0.2900512239299361
aF16.616032773890865
aa(lp137
F36.171067423542496
aF-2.3998442012328334
aF1.8365319302599907
aF2.631185235559573
aF-0.4459223365255254
aF0.1696317761421463
aF-2.0183719482051314
aF-2.0227239442948353
aF-1.4682903223161712
aF-0.28749339785980027
aF-0.8929084147604581
aF-0.0003724635025795231
aF18.236167325835048
aa(lp138
F36.61571907675055
aF-1.4668095133684393
aF1.2513916931952869
aF1.1277518720933968
aF-0.42572274466852744
aF0.7405749343909546
aF-0.37814060761919155
aF0.46408491855756573
aF1.6388243274770748
aF-0.5655717516528355
aF-0.06512684398051288
aF0.10371818393425755
aF15.328580013332044
aa(lp139
F35.98564421225905
aF-4.349708110668077
aF-1.30146667031136
aF1.2508844705578603
aF-1.4827163517013673
aF0.2632252772806981
aF-0.8584080614681486
aF0.05185718231741793
aF-0.589509105297861
aF0.12853486001565106
aF-0.9993270247783465
aF-1.8527476627816566
aF13.803982437540395
aa(lp140
F36.3840943555436
aF-2.7625457015061006
aF1.6942604821789236
aF2.002315575918238
aF-0.5638385436593286
aF2.2005759560690383
aF-1.4085989740180724
aF-0.8284414550874164
aF-0.8422418572577375
aF-1.5240990733065176
aF0.041392748185559325
aF-0.697893550769853
aF16.327566254622255
aa(lp141
F37.647878324853735
aF0.6518662242468842
aF1.3218767439092602
aF-1.1577406597782418
aF-2.5171355379035907
aF-3.475377643825561
aF-0.5940979215260523
aF0.5368091544273624
aF1.0772395079855062
aF0.16144211786449142
aF-0.2959313935688099
aF1.5137427764087557
aF15.777163972770206
aa(lp142
F42.86467903806962
aF5.76730230105776
aF3.0979873943670007
aF0.7160324548205886
aF-4.169052633495911
aF-1.4917856423611642
aF-0.3976815365567251
aF1.6694722671556899
aF0.014684851010171751
aF1.0736275072639552
aF-0.7281766786298096
aF-2.6083884481704143
aF23.847838092603972
aa(lp143
F40.43527584551009
aF0.3135711519992368
aF-0.05979362621378015
aF-0.3831628990001904
aF-1.2831084110466104
aF-1.1368010538812474
aF0.27865071256920565
aF0.7076691398180353
aF0.18564517316445836
aF-0.4314893342498475
aF0.12919411157975474
aF0.7178741367960834
aF17.772241635589268
aa(lp144
F40.09575064600095
aF1.7543880005365808
aF1.5157174332179402
aF0.2782818371746937
aF-3.9893766913824793
aF-1.5303331173513661
aF2.0372509639978347
aF2.115388698354886
aF-1.2659724790188465
aF-0.9076397999410735
aF0.1365120078527346
aF-0.8634359296007252
aF18.49199783503192
aa(lp145
F42.008494377076985
aF1.493056334649092
aF-0.07609201645361996
aF-0.3368229583209064
aF-1.991032372264208
aF-1.0567687656410731
aF-0.07723277722956856
aF2.3152836009681153
aF-0.8600195632766993
aF0.03397103173602367
aF-0.3646853605560935
aF-0.9960324072887918
aF18.908151071339923
aa(lp146
F41.93827941976723
aF1.2686908068324318
aF0.5094418123981646
aF0.6073714211469247
aF-3.9099678329300587
aF-1.022480161970751
aF1.6534849305612498
aF1.3204713638466443
aF-1.1186353378579725
aF-0.2631227288944852
aF1.089016020328845
aF-1.5793917172312586
aF18.648118685782492
aa(lp147
F43.135056183505874
aF1.298646296342903
aF-1.1899202771238038
aF0.026606340367745424
aF-2.616951937127378
aF-0.8582867154180924
aF0.9831168362095909
aF2.116245613350947
aF-1.1473282096110327
aF-0.7042997288488926
aF0.023689866015232874
aF-0.19077802576571723
aF18.46385790839886
aa(lp148
F41.450253736407156
aF0.9880206671099119
aF-0.5480222144436273
aF-0.17293853370708664
aF-2.7478587638384284
aF-0.45540153208626966
aF1.9426690953771553
aF1.1457904666544052
aF-1.609474448418835
aF-0.1499399866389831
aF0.7201731354099155
aF-1.4721103728574265
aF17.986560556479013
aa(lp149
F42.58849002646579
aF0.9545615169764678
aF-1.2220671793866864
aF-0.492251248030909
aF-3.417820898014636
aF-1.551247050051951
aF2.4533644360564857
aF2.6849270930983375
aF-1.9985211901611888
aF-0.33740215927908546
aF1.021934373902777
aF-0.6260358603805801
aF18.08543809344587
aa(lp150
F42.203084629656615
aF0.6834636345189479
aF-2.1198793344129463
aF-1.28574104500224
aF-1.7997437602897866
aF-1.4109593087344323
aF1.6817004176550396
aF1.4916545777379149
aF-1.889235327883136
aF-0.7374681999864807
aF-0.2003019560429175
aF-0.3840954111611701
aF16.657693861981553
aa(lp151
F36.10996922044408
aF0.8568011594107312
aF-1.2247252066723464
aF-2.5260764387673595
aF-0.8614210515887115
aF1.3539131487325828
aF1.0022234499928484
aF-0.11039146418235779
aF-0.4179718275471995
aF0.6828051769635284
aF-0.49468519320084836
aF0.2028715442530989
aF16.228991472606314
aa(lp152
F38.022202870176336
aF-1.0240730439871426
aF0.023090434552550665
aF-0.8956441454462907
aF-2.2967641236512017
aF-0.4410957301100595
aF2.042199115747081
aF-0.012651808614083104
aF-1.6592168991563727
aF-1.3773468508532103
aF-0.5029158952589945
aF-0.6877785065385014
aF14.694278725869218
aa(lp153
F32.85326032122592
aF-3.432143953552982
aF-0.6573227104152296
aF-1.2476945535103117
aF-1.374853306011879
aF0.1227479415779443
aF-1.0204605389291175
aF0.23239333815406593
aF0.11808641679941356
aF-0.35944988467654915
aF-0.3849374176921858
aF0.42237960284803894
aF12.018023765053574
aa(lp154
F36.012030574288154
aF-2.4789632277640465
aF-1.5602953221849352
aF-0.08501607634819719
aF-0.29181471694263084
aF-1.1005796488559314
aF-0.36861742167094325
aF1.651705669417765
aF0.8411881462254465
aF1.6809858983712478
aF0.5863797949740472
aF-0.4571898803831113
aF12.862891121779507
aaa(lp155
(lp156
F35.577775638560816
aF-3.6672407219848164
aF-1.7607822477029187
aF1.0707982583528057
aF-0.41351007588282573
aF-0.05210966376902011
aF0.41562200274776967
aF-0.3259813981278757
aF-0.4514300730452156
aF0.6465360508495632
aF-0.16617133447290117
aF-0.5410642251258174
aF12.6916530926824
aa(lp157
F50.79088116428616
aF2.9975130565404107
aF-1.029507048603821
aF3.8317438799820445
aF-2.654962863722662
aF0.00505487413746946
aF-1.5449629636387328
aF-1.7289543090902235
aF-2.1106950617050293
aF-1.4450322184336855
aF-0.6577710316835597
aF-1.3100157025271453
aF25.665942283667796
aa(lp158
F31.43417098386842
aF-4.014467636039067
aF1.487695853873171
aF1.2886747371292162
aF-1.9780345597683828
aF1.0117526844583173
aF0.8093734027385112
aF-0.7022202605111258
aF0.6489683779402551
aF-0.22301407785687377
aF1.1632288457788147
aF1.689152144040269
aF10.928177437184326
aa(lp159
F40.42663528385288
aF-4.089257286530807
aF-4.191546904183271
aF0.9847945225283476
aF-1.2085167341616443
aF-0.5911954183850305
aF2.3011197717412673
aF2.3771012420978255
aF-0.46706519836589794
aF0.8162495720810803
aF-0.2666190222389963
aF-1.201322296660511
aF12.934669441564303
aa(lp160
F40.75077887594072
aF3.3588311490587563
aF5.28391770013573
aF1.62914301944092
aF-2.5235527999238547
aF1.3753421549539993
aF-1.0342954695418585
aF-0.8430702873393217
aF-0.09562088448472095
aF-2.5329303110925836
aF-2.4693941427970247
aF-1.2610241946857348
aF23.179409971537495
aa(lp161
F34.273493127100465
aF-9.522997347212486
aF-5.211282233489712
aF-0.07699989375114391
aF-4.099059493842826
aF0.6618820949205413
aF-0.24167147615436296
aF2.1963857955183497
aF-0.24016119707717085
aF-0.2140380045582373
aF2.097650358728204
aF-0.5773595807600724
aF6.204042291871739
aa(lp162
F41.88035477445991
aF4.715970604797934
aF6.618054144449408
aF4.7966747363106474
aF1.1578988660469898
aF1.1388199952784606
aF-0.09089260030712207
aF-1.5364862315498955
aF0.343569275176451
aF0.016455122950190804
aF-0.9733992414499665
aF0.026935329219104354
aF25.569092536198294
aa(lp163
F38.087604150666166
aF-4.752688108254726
aF-3.493765516751534
aF-0.9131844675707539
aF-2.3067454672436005
aF0.434531241072847
aF-0.5846520933672972
aF1.96259107646389
aF-0.6159103071861626
aF-0.8939538732179124
aF-0.30250152342467573
aF-0.8078544767941997
aF11.57083749893197
aa(lp164
F44.50407464658085
aF5.037405043544906
aF6.213200976969969
aF1.5110769978128293
aF-7.39914449646169
aF-2.2910138744310475
aF-0.6534202959938775
aF-1.1095036371514344
aF-0.0661089302085082
aF-0.3562363408963156
aF-0.014445671795893594
aF-0.1969680358109978
aF24.771003207446707
aa(lp165
F47.88113250872785
aF4.612020193859469
aF-2.162800774395366
aF-0.2750101027448637
aF-2.4720028400498997
aF-2.412902025855919
aF1.8678248576626142
aF3.816550013341352
aF-1.5266086993025831
aF-0.020667487203091306
aF0.2325283546257419
aF0.45464595429236443
aF21.02889527104821
aa(lp166
F38.86346184075213
aF0.47500121082264934
aF2.4623187442274856
aF0.8208563525515304
aF-2.567382630129767
aF0.24860617461801882
aF0.18745088576482283
aF0.8327322439528873
aF-0.04892092248004731
aF-0.14682793338708097
aF-0.6350988828937587
aF-1.1026483133932645
aF18.72265701364079
aa(lp167
F47.743442967386386
aF1.471294634454599
aF-1.1720195776710591
aF1.812994721963621
aF-4.7300568346055325
aF-1.6516483700320355
aF1.5965896316574126
aF2.6932539092678067
aF-1.3158461262008734
aF-1.0533723690782555
aF0.6001058308620779
aF-0.7417648197759792
aF21.03430150977509
aa(lp168
F43.19993834647506
aF2.493709672745262
aF2.0988424703865682
aF-0.3263967504370615
aF-4.321943815585381
aF-0.7744090037727687
aF1.4533816017998504
aF1.7786153977732961
aF-1.4690214362026324
aF-0.1690999506377302
aF0.7962313142156106
aF-0.5191837487236446
aF20.223670171766173
aa(lp169
F45.336708639258745
aF2.5340017608406944
aF-1.6813577545943765
aF0.8593223151157177
aF-3.5685166487278095
aF-0.9158513516443669
aF1.8953127540324333
aF0.6335824662285889
aF-1.3689211226053302
aF0.011694252879088096
aF0.0011220594177994148
aF-0.487568766222532
aF20.01787504804265
aa(lp170
F45.61378105204736
aF1.7222950103778767
aF-0.8804820172345484
aF0.4339858258096113
aF-3.616333511575085
aF-0.5883317831579901
aF1.2962861818658316
aF2.2614769160482515
aF-1.792994296127288
aF-0.5336053264060405
aF0.32363352445071475
aF-0.570932571866308
aF19.777366546691546
aa(lp171
F45.75319698442231
aF1.2621898887658
aF-1.151148042444227
aF0.10818224566835022
aF-3.908719157536156
aF-0.8467543473796485
aF2.336900614879407
aF1.5446280516924078
aF-1.359095520499062
aF-0.6317435558508147
aF0.4343600162092745
aF-0.531713491743679
aF19.331275482413528
aa(lp172
F43.65790207944195
aF2.6590773314006
aF-1.640271424678001
aF-0.894651619815339
aF-3.203153659997792
aF-1.0762636346341246
aF2.4202786875649833
aF1.5773645405154013
aF-1.9053557425071352
aF-0.13130215301043208
aF0.04566664752276972
aF-0.21040479113291805
aF18.898538822396652
aa(lp173
F41.42854215138398
aF1.8743219324747817
aF-0.06525298448824635
aF-2.232996496094395
aF-3.79739596854053
aF0.38156194101513885
aF0.9840267848022648
aF0.9159554059100348
aF-1.3189236228366654
aF-0.7796106541886926
aF-0.2461806271667878
aF0.216899015303364
aF17.774388754949605
aa(lp174
F33.99147473292774
aF-0.4309314224859946
aF2.271788333894511
aF-0.5569702885254539
aF0.11168773363937223
aF-0.34789574421669045
aF-0.745301823309491
aF-0.6137426536758888
aF1.0802441472211495
aF-1.0363638596024884
aF-1.0516380704392962
aF-0.6581050645898631
aF15.968896490066431
aa(lp175
F34.473254899093476
aF-4.229009551522023
aF-2.6311069636940614
aF1.5443272304295457
aF-0.25092035231358056
aF0.2486436274245189
aF-0.5815349721104649
aF-0.5112289894973088
aF-3.288233354345337
aF-1.645486162455534
aF-0.8705342378464418
aF1.0194285327616472
aF13.527995047242504
aa(lp176
F31.156634589905543
aF-6.338728045012804
aF-3.082966939691305
aF-2.7717196195723495
aF-1.7371017324021056
aF0.027310329554688567
aF-0.17478585193579432
aF0.07570628048813888
aF2.4398177527569738
aF3.9080515812150276
aF1.6134171439874507
aF0.4872333492305334
aF6.243085889282062
aaa(lp177
(lp178
F35.906264859244224
aF-3.9540757013470116
aF-2.5607679864929644
aF1.18362203543811
aF-0.7513207288038279
aF-0.6432682945619007
aF0.5170256164015963
aF0.014465660116440095
aF-0.22137401207176505
aF0.7141386514245703
aF0.03957698016405541
aF0.08154141973743563
aF12.61519169471082
aa(lp179
F56.915315019717035
aF4.857795450322069
aF-0.1468917433502186
aF4.771322820817428
aF-4.037573697158796
aF2.02713693766784
aF-2.8370871595765728
aF-2.622076609835651
aF-0.7685708997728695
aF-0.9429184714894063
aF0.06550056445109267
aF-2.4946742205452717
aF28.166073817212894
aa(lp180
F29.63753691545709
aF-3.7432721722943487
aF3.6996132110097326
aF1.5675863839046502
aF-0.6555319867578429
aF0.10985248711331841
aF2.167687863057145
aF0.18353044853877354
aF-0.6467943772190454
aF-1.6100191975601925
aF-2.242117342099135
aF0.7193963753115945
aF14.236259979313132
aa(lp181
F44.48585240940716
aF-3.5608232637075377
aF-3.8891570635979056
aF1.9050882479093967
aF-4.032353261496867
aF0.474548123897267
aF-1.0870690023592813
aF1.2637019877632636
aF-0.35288816013469226
aF-0.9142104745010938
aF2.8663185216087053
aF0.4647447170815744
aF14.468836948501625
aa(lp182
F40.18493977497006
aF1.0348606251210313
aF5.638688945596547
aF4.274230887675124
aF-0.2560013805330301
aF4.747552272927728
aF1.8226880329114805
aF0.09035496810058863
aF-0.17168120180834867
aF-1.6425865325521463
aF-1.2166307971900194
aF-1.532714404296539
aF23.89724544712998
aa(lp183
F41.39279457717116
aF0.27920319510334135
aF1.5810359446173678
aF0.2480373722745668
aF-5.395461079871003
aF-1.7377225793081066
aF-1.7961986042536242
aF0.50854138124589
aF1.8769241731571638
aF1.4113680605462144
aF0.5078682564702396
aF0.4726424420394296
aF15.752560568698385
aa(lp184
F43.723192850636174
aF1.947021438894818
aF1.1532202535395863
aF1.7905585471848062
aF-2.927702371187493
aF-0.183139912413243
aF0.5166477547558451
aF0.3813337188040084
aF-0.533495628606881
aF-1.4560094021950207
aF-1.1723619772289129
aF-0.7518004447026262
aF20.79879646627787
aa(lp185
F38.7119723916651
aF-5.4584484572533265
aF2.891724494124048
aF5.196807362507263
aF-2.8730598428248575
aF3.909405629362057
aF0.041148366433548536
aF0.07975869647305756
aF0.18189962682643285
aF-0.2648165247999559
aF-0.46841849022644966
aF-1.9281794448299254
aF16.769303085945715
aa(lp186
F39.86340689078047
aF-1.9277988827231238
aF-0.13690724948017996
aF2.1254858618777464
aF-2.254741052677745
aF0.2835388200572272
aF-0.6524400284581146
aF0.6416879156872088
aF1.3206556160782976
aF-1.1689422548223778
aF0.1212381325980374
aF0.2641057548566331
aF17.16010135726014
aa(lp187
F38.41760021244447
aF-4.565622567216053
aF0.3715446114553188
aF2.258617782160149
aF-3.4426491353771675
aF2.09235523068125
aF-0.10667357633057326
aF-1.079690558610472
aF-0.381675682527863
aF0.7215470290058044
aF0.6063100738525529
aF-1.4412644582075251
aF14.245138170498421
aa(lp188
F36.28869477568887
aF-4.2026121457709955
aF-0.8555241423625786
aF0.42345637462215135
aF-3.6016944108142144
aF-0.8782160860147186
aF1.7487106930325989
aF1.149888544407795
aF1.4244535837655294
aF-0.992610701177681
aF0.2632560664466219
aF0.5649743039881541
aF11.504234104063745
aa(lp189
F45.284748658988285
aF4.161358746656838
aF3.51925393919071
aF3.9982113222725264
aF-2.012234639124918
aF-0.7087440348664076
aF-1.755320644258388
aF-0.030365512459846006
aF-0.8411032192867575
aF-0.9932055729085099
aF-0.7153910494777986
aF-1.6407264405259543
aF25.287700792939773
aa(lp190
F47.084058472089744
aF5.515357446640328
aF2.529085405941699
aF-2.461621862294536
aF-6.955417787510563
aF-2.355242517355657
aF1.1866100057053681
aF2.7003954122659044
aF-0.9170945488697235
aF0.5355081127056798
aF0.46704152135334015
aF-0.16491786911600026
aF23.487582916144564
aa(lp191
F40.99070348069364
aF-0.7585963935295563
aF-0.21935117747439992
aF1.6607192889599234
aF-2.1641872157803825
aF0.8195687250533098
aF1.2394679587114683
aF1.6031858721615637
aF0.18709654618438504
aF-0.45660781865728883
aF-0.3822017436287505
aF-1.2712226641978872
aF17.52362763344896
aa(lp192
F45.71630877886097
aF2.2080792843864145
aF0.26634651787165453
aF1.280955139003755
aF-6.035290889906244
aF-1.3126752947201261
aF1.3909390289074066
aF2.5513526421907757
aF-2.0734157550422108
aF-0.33606458355736046
aF0.8881001166599501
aF-1.3866980397812099
aF21.15012510206462
aa(lp193
F45.61211420312667
aF2.6654007040472685
aF-0.0859581630491284
aF-0.3979032416599004
aF-3.408907004041613
aF-0.7853370260257729
aF-0.019650669741727245
aF2.732972232592048
aF-0.5315802518864717
aF-0.9868097722765399
aF0.36567941563312845
aF-0.5447260299995231
aF20.82966855886217
aa(lp194
F45.61676021219349
aF2.1385355696976682
aF0.192897301948104
aF-0.5756748969611418
aF-4.384236006425506
aF-0.2018459934313912
aF2.465953838206654
aF0.8630372741941836
aF-1.948794834882606
aF-0.19346087826339903
aF0.6559732981198533
aF-0.7459236435542526
aF20.421319351490386
aa(lp195
F44.33768279338364
aF2.3777062198442436
aF-0.592915232482407
aF-0.030714306316728557
aF-3.3989485758916524
aF-0.3363918811500554
aF0.9872127758848523
aF2.5160276228666665
aF-1.3556430079431268
aF-0.5073841073451402
aF0.6079749738492766
aF-1.5879522729947735
aF19.906601679788658
aa(lp196
F46.18721519906538
aF1.8218544818936655
aF-1.4760000206634247
aF0.1613306836569633
aF-3.756925226624464
aF-0.38011938306503457
aF1.5960584370297728
aF1.461306667720038
aF-1.6202947160205858
aF0.008074497230584843
aF0.37020801718464247
aF-0.9284337105766088
aF19.98494023864767
aa(lp197
F45.17384224225579
aF2.7840658219520464
aF-1.454343695042251
aF-1.5326309046548712
aF-3.1710289996288847
aF-1.4538161071542475
aF2.7820512416323684
aF2.296632135408533
aF-2.715068886264597
aF-0.4182202524243218
aF0.4136906435224203
aF-0.9536369665663611
aF19.582383039521673
aa(lp198
F43.84892358799935
aF1.3540594985003533
aF-2.5549090228296927
aF-0.223514438485711
aF-3.7636415288021063
aF0.43737007427597774
aF1.5991690006046755
aF0.9452788751378602
aF-1.0775197878276002
aF-0.18939542830559675
aF0.07727222836925235
aF-1.1263805400182256
aF18.31157499289581
aa(lp199
F40.79760070243797
aF0.34619787437837113
aF-0.7029466782722207
aF-1.8504350248347783
aF-3.3130507097601463
aF-0.8923626815702972
aF2.2133498437137855
aF0.902238249267701
aF-2.8205179091610337
aF-0.07264382138156078
aF-0.24583602922452286
aF-0.8543611848363378
aF16.552004169370118
aa(lp200
F31.557942009817282
aF-0.5459671168943662
aF1.4302555959597736
aF-1.8555353665217278
aF0.8479611512118792
aF1.0292154203601531
aF0.07376821366079422
aF-0.83909353602845
aF1.8217713545958116
aF-1.0147735129582003
aF-0.13228390525261863
aF1.6887560199939062
aF14.297215802863658
aa(lp201
F34.57383432844681
aF-5.570723434378108
aF-2.8652558412506313
aF0.30960784966132704
aF-1.0824777972495274
aF0.7103469890420462
aF-0.5469701007269738
aF1.156513216045975
aF-0.9604947156095596
aF0.11731885480738857
aF-1.068482252180716
aF-1.478063763134899
aF9.764329047435044
aa(lp202
F31.64090109998495
aF-4.180615493531414
aF-0.8022796064594819
aF0.05443864386962505
aF-0.2433444405347842
aF-1.8433493255073232
aF-1.0691292253499165
aF-0.9119036423580076
aF1.1208915629772755
aF0.8326433808349895
aF-0.3048634907950287
aF0.9810867498184282
aF12.355083004232323
aaa(lp203
(lp204
F39.65843286422771
aF-3.211169351453945
aF-1.4552085421675842
aF2.213643566183
aF-1.596239287001132
aF0.9393279702973503
aF0.03496270927610974
aF-0.42451594575744056
aF-0.006700602229382882
aF-0.19268498198120027
aF0.09385543324340823
aF-0.2632408134251921
aF14.918824604938596
aa(lp205
F38.318660647155085
aF-0.584656500138995
aF2.497394698015709
aF2.4805060909670793
aF-0.8906210365916953
aF2.6051937346898013
aF-0.139670564569086
aF-0.6646544059162508
aF-2.1786299828139666
aF-2.9808570507980683
aF-0.6042105567767089
aF-1.05976312630178
aF21.376365794872022
aa(lp206
F42.15848297503596
aF-4.177868456003609
aF-1.9923975358309929
aF2.3842097387620353
aF-4.076165031170506
aF0.509559045007538
aF0.1776778137108495
aF1.4121647088180391
aF0.37401156722632733
aF-0.16918564590552432
aF0.6263884384308356
aF-0.9116695823449897
aF14.604640271180568
aa(lp207
F39.85486700607259
aF-0.14088059796355124
aF3.1080061553542473
aF4.355072645540561
aF0.07932942311326707
aF2.4540144454270605
aF0.46425452645976467
aF-0.49145506364657826
aF-0.36221356048705683
aF-0.8283216232656541
aF-0.24186883263788403
aF-0.20862488029615645
aF20.13431442091285
aa(lp208
F38.72204905331657
aF-5.987198101835002
aF-1.3802365359108166
aF2.1723845765671395
aF-5.819999316035573
aF0.9279027907698418
aF-1.3773007429105468
aF-0.1553941991937478
aF1.8468054015516981
aF-0.47131442976222937
aF-0.14788042262751544
aF-1.595044804564929
aF13.369456581645128
aa(lp209
F40.841353625099806
aF-2.3113644871302936
aF1.2468704393573447
aF2.344091831056444
aF-2.2622193383000884
aF1.863726395255833
aF-0.45516671322843266
aF-0.21422210461812408
aF-2.964346764517737
aF-0.9635337926737524
aF0.16844097605276892
aF-0.7841500817574172
aF18.223411077428747
aa(lp210
F37.45775659732811
aF-1.2035303881568082
aF1.1898616047432755
aF2.710016832793094
aF-0.8821283988068469
aF-1.7566820101290357
aF-0.73083515540951
aF-0.15084063500108547
aF1.187481529471899
aF-1.3438699148227107
aF0.6349446621990498
aF1.4975536591340821
aF15.896158097067847
aa(lp211
F36.7371629600124
aF-6.17357514563094
aF-0.7897168178654214
aF1.1919452654186706
aF-3.661186832231393
aF2.3333263423105333
aF-0.5680228894271053
aF-0.5645946605551334
aF-0.25027491372132393
aF0.7859448175343167
aF0.01605694072017219
aF-2.0881853441394327
aF13.235127453810136
aa(lp212
F38.17265737246426
aF-1.2524990495802961
aF1.421083540027057
aF2.1653992262082244
aF-0.5494475273417849
aF0.2809902541743295
aF0.29207307022242257
aF1.0211697185741162
aF-0.012041243305945873
aF-0.7488532404616635
aF0.49486929099650867
aF0.18087252641651513
aF17.51046850004179
aa(lp213
F45.30275067111698
aF7.241465915863234
aF2.6028003057947844
aF0.17778742450457186
aF-4.513238200449814
aF-3.5900828910059075
aF-1.404935156425462
aF-0.3066921687106926
aF1.054727288158951
aF0.09108368885294166
aF-1.539978589978176
aF-0.28118441300280417
aF23.60610620901159
aa(lp214
F44.13286568662662
aF0.7562128822602379
aF0.21548719587422083
aF-0.42528797481485925
aF-4.086616610263898
aF-1.0786809684370717
aF1.4563281818148055
aF4.558795736117859
aF-1.6635847117531861
aF-0.46598389164310383
aF1.089540474016055
aF-1.726127539157431
aF20.520236062394723
aa(lp215
F42.76615507285388
aF0.20373511451223747
aF1.1750027795177147
aF2.551183561657902
aF-4.52882325949978
aF-0.7316959655445651
aF0.8024616808335513
aF0.758950662415262
aF-0.9113511548764586
aF-0.6776939480979123
aF0.6339225186717751
aF-0.5799736008161149
aF18.64692789121363
aa(lp216
F43.47312053916803
aF2.004302889734768
aF0.328615677429657
aF-0.06741134654885694
aF-3.7476056982512187
aF-1.2600595676773432
aF0.8392410390118152
aF1.4738804487450385
aF-0.9345632651116091
aF0.0870128827205151
aF0.5716122005429074
aF-1.4647489899842623
aF20.17375789132476
aa(lp217
F44.03825499492573
aF2.2812456721702796
aF-0.533472228996922
aF0.09768367434944886
aF-2.9047677615846514
aF-1.2338280407057898
aF0.4239268282752375
aF2.5985670264069984
aF-0.738649261426593
aF-0.6908974096946559
aF-0.019051876938008028
aF-0.7326835408187585
aF19.722177795656947
aa(lp218
F43.344332026971
aF1.195853126063461
aF0.7884938503729049
aF-0.07812980428230892
aF-4.217078254559443
aF-0.7883961604616276
aF1.8488375211556929
aF1.8358205673762076
aF-1.0713251229800618
aF-0.5979745313786082
aF0.5064806377803346
aF-0.8099336417319408
aF19.663516791308712
aa(lp219
F45.17761296373078
aF1.6669368844322672
aF-1.6887350399122383
aF0.03222720772460577
aF-2.8053086468671538
aF-0.7242644839493321
aF0.9130864254276435
aF2.1948656780703693
aF-1.2376547830600657
aF-0.9540487253929548
aF0.8958304055042223
aF-0.9642631464396502
aF19.096214045325333
aa(lp220
F43.10945676755384
aF1.9483704979856808
aF-0.9146045238888085
aF-0.28620201500779596
aF-4.425426993884214
aF-0.7498286703033525
aF2.9281226399638687
aF1.5724010378598843
aF-2.7439655388713335
aF-0.3184397199005814
aF0.7832311733107648
aF-0.3822130719515725
aF18.448020221125642
aa(lp221
F40.35372619673012
aF2.727402480813889
aF0.24287777793747622
aF-2.7169994017144434
aF-2.6983684619049444
aF-1.4065564433238202
aF2.004873337914394
aF1.8921423407156455
aF-2.260041138757839
aF0.03241685201680089
aF0.1225429162600069
aF-0.6206828830803232
aF18.05849617567685
aa(lp222
F36.186534843284036
aF-1.777443546437358
aF-0.6867990251891907
aF-0.224369215110228
aF-0.0867300454148876
aF0.15132558061516543
aF1.4258280000870758
aF0.8571671314592313
aF0.9238671433695043
aF-0.7892447549232753
aF-1.1273766072897502
aF-0.0679816772111782
aF14.530376050431013
aa(lp223
F34.95737396287688
aF-1.0885521367788187
aF0.9245102126402476
aF-1.100533635547923
aF-1.6720409261631914
aF0.43936488553638964
aF-2.2641388344629316
aF-0.9388983520628844
aF0.3554344778911246
aF-0.2607968554637395
aF-0.8170313015323788
aF-0.3820454346048364
aF14.859668385262744
aa(lp224
F29.524403787840022
aF-8.330691829300385
aF-3.1433234314237435
aF2.0772401717899767
aF2.0485943165685887
aF-0.03253891287119942
aF0.18499563579471257
aF0.5129382982536791
aF0.21831603250992088
aF1.6131911421265885
aF0.7061584481400801
aF0.2602714401612464
aF7.748924240767982
aa(lp225
F35.794934042542806
aF-0.2645766554611284
aF0.4294539378674669
aF-1.4333046462626378
aF-2.919838754912584
aF-1.1924649346920515
aF0.6383076091722297
aF0.25187530467569175
aF-1.1211731845921546
aF-0.9412237876827557
aF-0.24186666226025044
aF0.04576763837011377
aF14.193585898476085
aa(lp226
F30.43383215261865
aF-4.753793979068852
aF-3.7425764413390197
aF-1.728927322299024
aF-0.9159670147352768
aF1.0986318176235232
aF0.42476582888376635
aF-0.6485794440210692
aF-0.553680904109796
aF-0.002385749887470673
aF0.2252214684519199
aF1.1660445363886751
aF9.878915200031653
aaa(lp227
(lp228
F35.75154295982393
aF-2.6848169394437824
aF-1.3557868951066026
aF0.25993790872439315
aF-1.0892902823880242
aF-1.0164236966871347
aF0.10882425232724773
aF-0.21964797461083457
aF-0.9510618499395094
aF0.14930123150902244
aF0.14467175951459169
aF-0.021523802686571017
aF13.93460513811735
aa(lp229
F49.009134658987016
aF4.024970567388282
aF-0.13630860791536126
aF2.489895854635286
aF-1.1903277886258552
aF0.9697363826000682
aF1.3876922961981197
aF-0.8057038790444521
aF-0.16145018807644684
aF0.8415893490028942
aF-0.16165947989953156
aF-1.0672306346663514
aF22.9768753818203
aa(lp230
F32.517725795871534
aF-6.802010139357634
aF0.24648729540977993
aF2.6825414882274816
aF-3.8700945276198224
aF0.250315390893001
aF-2.6605859611553533
aF-2.2517511393500618
aF-0.7330334057289974
aF-2.287361530505813
aF0.4106409725310697
aF0.8602879926017333
aF12.246775731895317
aa(lp231
F38.73605942118888
aF-1.6766984231351452
aF-1.3428244635988076
aF0.8203136477741555
aF1.3958930342491835
aF1.8515206507359458
aF3.3447896424019827
aF2.7659880219622703
aF-0.8025542772918397
aF0.15951921193220198
aF-1.6198330433913308
aF-2.2439369183844824
aF15.873896546049515
aa(lp232
F43.61720248627518
aF1.4286287885008058
aF3.7301540047992368
aF3.5517767719922686
aF-3.2156288791707563
aF0.8133041615003432
aF-1.2632724365631751
aF-1.7586918947603312
aF0.6723622330949377
aF-0.8458908906846975
aF-0.24652605813813167
aF0.030256544016568077
aF21.922494012336784
aa(lp233
F38.111261663249316
aF-4.1028030390979655
aF-0.9276751104875519
aF1.328977987276686
aF-2.295737676686838
aF1.9738694640997712
aF0.357284735602306
aF1.4329709619034967
aF-0.3703523288007884
aF-1.0339852311702589
aF1.4701754928100477
aF0.21173516623251387
aF12.920157441279805
aa(lp234
F40.753114379465714
aF-1.9458337250607758
aF1.269065784708684
aF2.8813462125582463
aF-3.997305417302022
aF0.16905201079431675
aF-0.9200762741313958
aF-0.6007242453272548
aF0.6444520434644838
aF1.8574643388942715
aF0.11487421907975759
aF-1.6088577329891471
aF17.019075162229903
aa(lp235
F41.60041653046749
aF-1.030969838373015
aF-0.25417074548078933
aF2.8141081569871558
aF-2.918243300679211
aF-0.358993173933428
aF-1.8620633588290065
aF-1.5167044233682156
aF-1.6908026552437492
aF-1.935001567287036
aF-0.7355137913102114
aF0.06444982794370835
aF19.42930311197811
aa(lp236
F39.95608159505537
aF-3.5446550614826613
aF-2.0605417787746974
aF2.0349107415528147
aF-0.6666803478910124
aF2.497484952978476
aF3.567479725162559
aF1.668670121889949
aF1.5545929040981865
aF-1.236073390850425
aF-0.42211394381699946
aF-1.5477031665672694
aF14.203956495558305
aa(lp237
F37.01581695521445
aF-1.3057574807270484
aF2.2455923996614215
aF1.884189110805845
aF-3.298631006788567
aF-0.03213935480996932
aF-1.4607026359545747
aF-0.3757236103648481
aF-1.0654557491211492
aF1.0981402757058993
aF2.1678796438249752
aF0.5360179746906896
aF15.770625631796051
aa(lp238
F38.424061211282265
aF-6.5744720223982815
aF-3.0415283139901126
aF1.4048601778746568
aF-3.678679696540966
aF-0.39190668101011195
aF-1.3174382917799745
aF-1.8911758913606715
aF-0.7754339097187816
aF-2.193319146300327
aF-0.8242593118096398
aF-0.48065002587793426
aF13.816791469839877
aa(lp239
F52.31329379979336
aF12.500352256402618
aF4.358325657087592
aF-0.6435196137213416
aF-5.9859718614959085
aF-2.837555866542992
aF2.619461503698858
aF4.379777620368101
aF-0.3741280769025274
aF0.5600435867098331
aF-0.7696411257188549
aF-0.5165684900585599
aF29.64055220774839
aa(lp240
F44.29577215033748
aF-2.255439863676032
aF-2.2409273345205216
aF1.5565958201952066
aF-3.6299172470538723
aF-0.34924993969001117
aF1.211103001092956
aF2.2055508522301865
aF-1.0005468351077962
aF-0.7287795873488123
aF0.7933802020102896
aF-0.2670214743412562
aF18.35170696763677
aa(lp241
F43.25692509434781
aF2.1136602788233585
aF0.6233441971001149
aF0.13050452752737407
aF-3.5408598520356342
aF0.27196188877808714
aF1.0225502460589646
aF0.7818562703619221
aF-1.075713941007662
aF-0.31147292246561553
aF0.09633808882905451
aF-0.9461054276009492
aF19.654711383018444
aa(lp242
F46.348245868843826
aF3.0112780894574165
aF-0.42579852258361733
aF0.1903362220040103
aF-3.518683773225355
aF-1.5446597846060488
aF0.6318897687460333
aF1.2424221862314881
aF-0.6835462778657694
aF-0.6460513768349536
aF0.2292756791585742
aF-0.655310490754137
aF21.091254113621236
aa(lp243
F45.00409814336189
aF2.050942360551821
aF-0.20494933406886146
aF-0.5236854416148197
aF-4.513875085819402
aF-0.16800483655391119
aF1.4019755739346649
aF2.115369447464203
aF-2.589858887614924
aF-0.2140299229891488
aF0.34939955547380674
aF-0.7850496389949936
aF20.50297559777712
aa(lp244
F46.835174758858734
aF2.291339416962866
aF-2.1172101226912745
aF-0.09605599781426555
aF-3.0976642403502814
aF-1.0971863958307155
aF1.827908977036851
aF1.4037970548953198
aF-1.615029491429703
aF-0.9430984387374677
aF1.1022770182597976
aF-0.47916345274066763
aF20.364443227657034
aa(lp245
F45.16494058149613
aF2.3217540126310956
aF-0.8053979920779606
aF-0.8079926009381921
aF-3.56461028382136
aF0.16132226502832825
aF0.7725859454692914
aF1.7808681686543106
aF-1.7297790079652295
aF-0.34203115233991815
aF0.378193809530926
aF-1.2044421361539088
aF19.97938373235146
aa(lp246
F47.14206588500522
aF1.6764698971329155
aF-2.483136967866699
aF0.15188935717420032
aF-3.648141968411484
aF-0.8342452120123326
aF1.3701564323305606
aF2.0203911638111673
aF-1.8904141854996166
aF-0.6878412657930515
aF0.5219195759278847
aF-0.8615832272637005
aF19.794463068615503
aa(lp247
F44.335882264317455
aF2.3377879923847713
aF-1.4581127949358683
aF-1.1698063909664818
aF-3.592848309374173
aF-0.40520714676823255
aF2.1515225536250413
aF0.9081724873639185
aF-1.9980140304267027
aF-0.7478572033894826
aF1.0324829441231622
aF-1.0109973204155822
aF19.183190793559696
aa(lp248
F44.197313870793415
aF1.7263280638409226
aF-2.3865734682652557
aF-1.4982367509967163
aF-3.0051778911064564
aF-0.5763194126469473
aF0.6177574898477467
aF0.684209641525912
aF-1.8087399353009623
aF0.22561109490391396
aF-0.6484497561873479
aF-0.23958925272095843
aF18.624017336314598
aa(lp249
F38.165585891596976
aF-3.2180750904602924
aF-1.4777394291209565
aF0.09864610291598841
aF-2.3328895791719186
aF0.23948109773802395
aF3.0156726879016307
aF2.143397894223005
aF-0.9623354301998979
aF-1.3238378755630043
aF0.669200802005265
aF-1.5575402678102848
aF14.282587879180578
aa(lp250
F36.49759310945925
aF1.0930959424568962
aF-1.3023612935573063
aF-3.0075541062911393
aF-2.927738297987681
aF-2.1880252572259526
aF0.16000286563441124
aF-0.4851550482244139
aF-2.748941066958153
aF-0.6781701489664492
aF-1.6110810785033012
aF-0.39856225236671616
aF15.36613414226105
aa(lp251
F28.395904630855526
aF-7.40404613825005
aF-1.120333659997775
aF-0.5328726743126746
aF1.3992870741148054
aF1.6367753138657346
aF-1.1658359274758892
aF-0.07259216868702295
aF3.278834679973515
aF3.2408208713967848
aF1.7099705443897495
aF2.005879227218
aF8.049474548472999
aa(lp252
F35.832110846302264
aF-3.1482569455553375
aF-0.8123450407089463
aF0.5745101676017196
aF-1.54770003658613
aF-2.01923568922267
aF0.036184607548404524
aF0.18787233409001725
aF-2.033507196579038
aF-1.4849077910396153
aF-0.8270937494571063
aF-1.129203033946516
aF15.558688246327431
aa(lp253
F61.64005120382683
aF-27.137634480683623
aF-1.6452298176296825
aF3.798952741343157
aF-0.3702576366646736
aF2.9247653239023963
aF-0.6725223278570207
aF-2.4735685670224465
aF-0.7213999326945053
aF-0.037173931146739975
aF0.7644167527157217
aF-0.9481223065628877
aF10.53989255712017
aaa(lp254
(lp255
F33.32477240064941
aF-3.6175579479109787
aF-0.9888814965155626
aF0.04872474424163004
aF-0.209870335638698
aF-0.37289645656562154
aF-0.47090753643719463
aF-0.04305160627977584
aF-0.2351388790386978
aF0.5971999610394144
aF0.07604161080209651
aF0.19667723211041024
aF12.2612791248771
aa(lp256
F52.05643156590001
aF0.47708851857286927
aF-3.8742727629061386
aF4.724779799259709
aF-2.6970355480178663
aF-1.6632096031963222
aF0.7402604110922473
aF-2.792057243092085
aF-3.4926690942239933
aF-1.4963573678679927
aF-0.9736972790417184
aF-1.8900883956180081
aF23.691540727149665
aa(lp257
F32.723790287535024
aF-1.2110395619999803
aF5.593066226883064
aF1.4936377759575263
aF-0.9979830982110174
aF2.707809658198639
aF0.29584273359738134
aF1.171332603792763
aF1.905689642491464
aF-0.25460853342582945
aF1.0990730089421696
aF1.3042708049547207
aF14.98139483028402
aa(lp258
F36.59962532069216
aF-4.886850894764137
aF-4.238567107648004
aF0.45132935023866305
aF-1.821694900237735
aF0.6754359909946406
aF1.5068797843929362
aF-0.8025177656725745
aF-1.969484966295681
aF0.08673228008650247
aF-1.4247739476958619
aF-1.4765479055071826
aF12.818345367413851
aa(lp259
F46.16105335957764
aF7.261585196764804
aF5.958421421253182
aF-0.11467870414260461
aF-4.1399338625612
aF-0.4002176038719495
aF-0.9094317413670486
aF1.7896615374338547
aF0.8511343451181542
aF-1.6854186622882654
aF0.46901872260215616
aF-0.07809494236381365
aF24.69655348937554
aa(lp260
F33.55807089965385
aF-12.065696381004908
aF-2.711017803951373
aF5.535073615670066
aF-0.07921854855671429
aF2.6945435900253516
aF-0.29837761982248656
aF-1.0782383366095263
aF1.5498970661434552
aF1.6537433550727216
aF0.7713006066537826
aF0.3210414857386155
aF8.54845855789879
aa(lp261
F48.73391304226453
aF8.166836241263313
aF3.3445724424320096
aF0.941871169494036
aF-6.108358872797897
aF-0.4686434153836825
aF0.09592141861457854
aF-0.9873598243371695
aF-1.3540399692215157
aF-1.8896694686810909
aF-1.2652101691171196
aF-0.9902678436358366
aF25.952938369117327
aa(lp262
F39.91381052510817
aF-2.1575492975009887
aF2.7573391756221337
aF1.224938523689872
aF-3.3856140468904425
aF0.8306729360820944
aF-1.2987515883967462
aF1.4541881989074636
aF0.7317357133037932
aF-0.2081000492570484
aF0.25019707166907756
aF-0.2443833083737595
aF17.167062790921747
aa(lp263
F37.476295373758326
aF-4.095907085683281
aF-1.2363789962033844
aF2.907412646645149
aF-0.9142050934905415
aF0.6993277921431494
aF0.12883259933708324
aF-1.0492079419238496
aF0.2366613734179146
aF0.43135055385953425
aF0.6827531036751449
aF-0.3114921188979283
aF13.499179719290556
aa(lp264
F37.35773474200579
aF-4.965498570109418
aF-1.6149623550340066
aF2.455944865233013
aF-2.333921662859742
aF0.3409822607642057
aF0.18178140848275018
aF-1.4184505160331518
aF-1.7475722012992612
aF-1.9443793056338596
aF-1.0627926644858694
aF-0.48857738079987717
aF16.419966534853703
aa(lp265
F50.14950243854291
aF11.133980397047036
aF4.394174961304139
aF-2.772184694487592
aF-6.800672517289681
aF-2.879220277314998
aF0.1204298029296591
aF3.216714170118717
aF0.3564866955855272
aF0.40908360550026046
aF-0.0035213256682578575
aF-0.3998755458849881
aF26.343426274763818
aa(lp266
F43.87379409014401
aF-0.9781963861875158
aF-1.452160410888821
aF2.359482792728043
aF-4.5444076240627975
aF-1.1817453626372598
aF2.340586615798589
aF2.808791305609172
aF-1.394940972831956
aF-1.2558887332710662
aF0.33110712855897784
aF0.3420242957569758
aF19.344873921275454
aa(lp267
F42.49177716504025
aF2.572369477654102
aF1.3258592679408348
aF0.3948263398412043
aF-2.583902709568891
aF-0.56499497222454
aF0.704153294552765
aF1.3025922892465402
aF-0.7920372565658009
aF-0.4488082098764623
aF0.42881352462397626
aF-0.41885897505326974
aF19.98858655225551
aa(lp268
F45.94797776936967
aF1.7925052140848627
aF-0.2508586539899225
aF-0.14238078597723663
aF-4.146143619812016
aF-0.3647691181481556
aF0.5463799979458964
aF1.1215628674915574
aF-1.2101999374386612
aF-0.332795398514229
aF0.6106448962151918
aF-0.819123914659873
aF20.7474910106991
aa(lp269
F42.93887086482464
aF2.7191724224728477
aF0.2535912650280862
aF-0.12819185955480134
aF-3.0091430451965744
aF-0.5898765742938231
aF1.1506939087753842
aF2.0770262936908184
aF-1.2290864358492684
aF-0.5640271659623077
aF0.6099932335565845
aF-0.7170918072543653
aF19.95755769954512
aa(lp270
F44.40805048223208
aF2.0478625553950507
aF-0.21540261172119246
aF0.0113431256288406
aF-3.5547038842588705
aF-0.9965734957206869
aF1.17685389617019
aF1.9631641299357687
aF-1.3944299684095578
aF-1.3252461709059715
aF0.9358732209798453
aF-0.39047008816378004
aF19.988672586834262
aa(lp271
F43.977158855760784
aF2.0377615824180424
aF-1.02030178918542
aF0.05256240466046337
aF-2.934950535094763
aF-1.05534007342629
aF1.075062999255604
aF1.716577310119451
aF-1.3344269578363872
aF-0.2559132483061859
aF0.10156050486681123
aF-0.739027429675024
aF19.63893222940054
aa(lp272
F44.96415925598189
aF2.0712602262241795
aF-0.852788008085249
aF-1.2102949506648564
aF-4.2084934901066555
aF-0.15358440162841824
aF1.2737627004323897
aF2.347935829439606
aF-1.6786438921828621
aF-1.7182860196610497
aF1.7489621777801703
aF-1.1141235101568117
aF19.358379654078885
aa(lp273
F44.578831400477654
aF2.3242493301476324
aF-2.0693394280345787
aF-1.7372824923382355
aF-2.4946479975093356
aF-1.3623135717548258
aF1.9861253408177724
aF1.6440660865729142
aF-2.53395781492452
aF0.6135517312208852
aF-0.5387883991313511
aF-0.1516648192672274
aF18.535502607929462
aa(lp274
F39.96081927450922
aF-0.09669296960043416
aF-2.1267366640176277
aF-0.5008687541897042
aF-2.2512614145676806
aF0.36893733519049077
aF2.1750373495263977
aF1.983399669357148
aF-0.40025976942293395
aF-1.149860506075286
aF0.8113514262629861
aF-0.9201362010746137
aF16.790587506999135
aa(lp275
F34.33112980719696
aF1.4525134032527653
aF2.4366862261914655
aF-2.8812507886659104
aF-0.9635012578665445
aF-0.25157450898214845
aF-2.045319187795217
aF-2.476669690666947
aF-0.7091051412752714
aF-0.5715112603501612
aF-1.5798474549603791
aF0.27673816229328146
aF16.14881553192646
aa(lp276
F31.731764789500538
aF-6.457283311817665
aF-1.6935516862865425
aF-0.1415740104114558
aF-0.22041988942842838
aF0.773626592035545
aF2.0235510451641767
aF3.0556817363415814
aF0.3840082085218085
aF0.49462010543820845
aF-0.028625641897666143
aF-0.778809648033687
aF7.964004975058145
aa(lp277
F31.30200068262606
aF-4.016465834646409
aF-2.2192242569854925
aF1.8701405851464385
aF0.3785013953380616
aF-1.5686330257915282
aF-2.7736350297593213
aF-1.1567945372236434
aF0.24827244537586995
aF0.7737836099590243
aF0.19816611883400415
aF1.912575874820305
aF12.626151475655481
aa(lp278
F37.23769347668104
aF-1.249516248071957
aF0.7948491854810205
aF-1.035479444695043
aF-0.39417448651021003
aF1.943068466388733
aF1.6435666269873048
aF1.1938736586463468
aF-0.15048737881887167
aF-1.4184929154978179
aF0.7188337765292291
aF0.7759273946084864
aF14.624464364407709
aa(lp279
F30.67672177516473
aF-3.4651609104455923
aF-3.3069138334542636
aF-0.2603793384651751
aF-0.657802710710304
aF-2.129577623614389
aF-1.0602779747255227
aF-1.4452579814886115
aF-0.06442148879634664
aF1.0804619914569673
aF-2.4598402962986574
aF-3.070649177312265
aF10.310784819619549
aaa.