(lp0
(lp1
(lp2
F40.61689034054308
aF0.3179439688616835
aF-2.3092602306873298
aF-0.9046849605248204
aF-1.064096264991976
aF0.17159193418275312
aF0.5394162953262236
aF-1.502748626822348
aF-1.428721975507784
aF0.5542042113203056
aF-1.3016507006457114
aF-1.266265101289878
aF16.609608553413363
aa(lp3
F42.37232056146827
aF3.053465597215669
aF-0.40269650409854596
aF-2.3159944049886905
aF-1.3447706449690033
aF1.775734780234413
aF-0.46793749711017696
aF-1.2096035914961714
aF-1.5539595117544691
aF0.16811023555777954
aF0.04339778087373203
aF-0.020562085334626445
aF20.23275475684937
aa(lp4
F41.455722777629106
aF2.60496492140157
aF-1.080148461310291
aF-0.3338403140150401
aF-0.9975214764359359
aF-0.5490333507220901
aF1.0833142378546434
aF-1.4073975037746966
aF-0.49236580882386205
aF0.4208486569552153
aF-1.6531139140869575
aF-1.1889019435816461
aF18.703679748313228
aa(lp5
F46.49202077756681
aF0.7063882618958859
aF-2.832317142428649
aF0.7497611067470308
aF-2.5501397666993815
aF1.4051173958987087
aF0.5546380757254192
aF0.6285510758954308
aF-1.463508437156003
aF0.409643785851442
aF-0.06056265594014698
aF-2.450093207747881
aF18.582377190841086
aa(lp6
F41.35679918731302
aF2.7814183297015083
aF0.1892709914337558
aF-1.8748747283324168
aF-0.8118911386876209
aF0.5706956359948809
aF0.7573976705360668
aF-0.5136064074967451
aF-1.2025968776342242
aF-0.3002104644886606
aF-0.7505114720622797
aF0.17870146074731752
aF18.863754066371158
aa(lp7
F42.983589403912305
aF1.3945031282207432
aF-2.1894310159866164
aF0.622980850443613
aF-1.8513670177940365
aF-0.3311093506684748
aF1.4677666557855131
aF-0.11530815304656039
aF-2.0145675119359963
aF0.56081982271042
aF-0.5811494297083024
aF-1.3517999637040636
aF18.585043227369574
aa(lp8
F40.08183355074972
aF1.9975665974361476
aF0.01214694099682756
aF-1.1372390460573991
aF-1.9281195226393784
aF-0.23211482717300808
aF1.7966199346392997
aF-0.4111475050002674
aF-1.8045489506900603
aF-0.43944692410448616
aF-0.531248187564168
aF-0.6088374060544287
aF17.87196421230204
aa(lp9
F38.38628976921483
aF0.418592814341201
aF-0.1499573468981279
aF-0.12235290883801603
aF-1.591116180331567
aF-0.49612313143554515
aF0.7500717686937889
aF-0.10269059756562013
aF-1.1311056499629886
aF0.29611499264472674
aF-0.55754445067371
aF-1.053497613675634
aF16.629898772365593
aa(lp10
F37.141298906667544
aF-0.7558652824388092
aF-0.7011097258187784
aF-1.5068048533151108
aF-1.3854588934114418
aF0.2206751353620842
aF2.1596805134979027
aF2.1084161116383715
aF-0.1571209977497332
aF-1.1611479266476008
aF-2.363735591218302
aF-0.6235642052878292
aF14.268302428278297
aa(lp11
F30.73490655228874
aF-3.725121248181063
aF0.6026025782458533
aF0.6213382553877697
aF-0.30399336530606624
aF0.27850387392593845
aF-2.073890599316388
aF-2.202121692115962
aF-1.2363654753944462
aF-1.6620980376540098
aF-0.21409896890476465
aF0.6532950537744284
aF8.870135482717423
aaa(lp12
(lp13
F39.63479645347814
aF-0.13757749162021046
aF-2.296994233976327
aF-1.1216214586830051
aF-1.2473846741396843
aF-0.05760657695401594
aF0.6046731388430759
aF-1.191031322107581
aF-1.5442074643027441
aF0.46261766719920067
aF-0.5946473917705668
aF-0.779749090371174
aF15.264526532612136
aa(lp14
F43.87182508380169
aF3.3434463307185647
aF-1.1889118756605326
aF8.527313684680848e-05
aF-1.8716914999945482
aF-0.023152092826153277
aF1.5418728221471578
aF-0.7453393679315665
aF-1.2752569761632733
aF0.7620702396728547
aF-0.4950761904210028
aF-0.44206626645508806
aF19.9590761567187
aa(lp15
F41.74414477794276
aF0.8370068966425566
aF-1.4744874340010587
aF-0.7335303172541365
aF-2.1150980830472133
aF0.15547329370604687
aF0.45674746335627325
aF-1.0773464271029187
aF-2.104159586380474
aF0.1782365132665149
aF-0.7014384721466825
aF-1.4520849076699363
aF17.634628563626833
aa(lp16
F42.90996673463192
aF2.7594874381332746
aF-2.079982627892881
aF-0.9179394026382809
aF-0.4413035346655274
aF-0.27607427858178
aF1.6859735790421606
aF-0.3747944004227217
aF-1.9951001703662277
aF0.9692827415578572
aF-0.7066745400315813
aF-1.160603235727349
aF18.482308264910802
aa(lp17
F41.69523733611801
aF2.1265060269319154
aF-0.22264631697418769
aF-0.3465406555113206
aF-1.7614369067818187
aF0.11800061752491114
aF0.7572838014856961
aF-0.10343322953486295
aF-1.1058927501902003
aF-0.34965811495534455
aF-0.8753771193943314
aF-0.7212756243557997
aF18.750469365171845
aa(lp18
F42.653709330912534
aF1.7337336988891836
aF-1.6357439638095665
aF0.6141977241583165
aF-1.6207161761601827
aF-0.5075591018899304
aF2.0741452398395532
aF-0.29335320994117947
aF-1.8069678347898295
aF0.6656105639328129
aF-0.6593194325281095
aF-0.8791910809916139
aF18.483044416863127
aa(lp19
F40.74582637677204
aF2.2541105031831017
aF0.1985014239277404
aF-1.2677930539744184
aF-0.656676521977237
aF-0.1300780507464999
aF0.6697125395775199
aF0.2032323840522874
aF-1.4593324621185504
aF-0.1313360234973058
aF-0.6844556052339296
aF-1.265420663555433
aF18.48197706778834
aa(lp20
F39.26479461931891
aF1.3226294846724025
aF-0.41081373393481324
aF-0.22239762033435329
aF-1.3384837626266841
aF-0.19389068864317802
aF1.8181640879680647
aF-0.5833567949731393
aF-2.0356816091327867
aF-0.1930944621549609
aF-0.9553735502156327
aF-0.23499433260600788
aF17.952501443280916
aa(lp21
F37.943251170876344
aF-0.30328437925963825
aF0.4323273445928464
aF-0.09623531673113828
aF-0.6559401900837099
aF-0.4657138881154126
aF-0.051678839835335166
aF0.9652091342574046
aF-0.7625416398246581
aF-0.940733620138331
aF-1.149399845075731
aF-0.3592249842145182
aF16.95034107726203
aa(lp22
F35.963196868353904
aF-0.7772428133158144
aF0.6565283523006568
aF0.9451298523400935
aF-0.37623766391965896
aF0.0037131791526218427
aF0.08282760622533747
aF-1.4722903570290164
aF-1.1085407136568737
aF1.2216727771008016
aF-0.5319304479238973
aF-2.5879019046789757
aF16.16563106081366
aa(lp23
F35.03157927090956
aF-3.247086109796889
aF-1.6075987962211307
aF-0.13119774667567646
aF-1.362185100472343
aF-0.8662461153766317
aF-1.0964720142590512
aF0.33325178583541154
aF0.8286240542682606
aF-0.619648903747928
aF-0.7465204764525762
aF1.9121749431894792
aF10.314572132694142
aaa(lp24
(lp25
F37.76573177142992
aF-1.0275140098300544
aF-2.143380046360998
aF-1.3295542371830005
aF-1.019376847229047
aF0.5072399919656727
aF-0.24334259756911142
aF-1.669093471217513
aF-1.2577147015785137
aF0.02996499722668828
aF-1.17308538226562
aF-0.7048756126744024
aF14.848231345629555
aa(lp26
F51.08770025443663
aF6.936128661670929
aF-2.403226999249652
aF-1.3945309942286694
aF-1.4205853708514973
aF0.038363490455377125
aF1.9375190937100573
aF-0.7245212063888433
aF-2.4279548800534383
aF1.2223015003578352
aF-0.8836280581589837
aF-2.1967185628444996
aF24.96009779937937
aa(lp27
F40.94047483964722
aF-0.8393342965382931
aF-2.1357901808689026
aF0.6778072814952668
aF-1.8439732252665189
aF-0.06224346530345154
aF0.25718070086665
aF-1.1988153196530968
aF-1.4534687595335278
aF0.7065881042506417
aF-0.3154615974499365
aF-0.5353202568585379
aF16.229956523995853
aa(lp28
F43.747420790483794
aF1.7852300705426023
aF-1.6075293141032136
aF-0.14771240965196064
aF-1.6850757454222498
aF0.4972137274076871
aF-0.4900345196789002
aF-0.07849004337356358
aF-1.8249106241737951
aF-0.9789245804108184
aF-0.27970420277374797
aF-1.361287488841094
aF19.940184854625794
aa(lp29
F44.25719589860852
aF1.8690858706839102
aF-0.7474950759706565
aF-0.36511223407769494
aF-2.011043429267249
aF0.2732753186716112
aF1.4177491101878075
aF-1.6407909252479986
aF-1.0240549207845264
aF1.0172944215774409
aF-0.9627264960892195
aF-1.6853452759035081
aF19.74403689847996
aa(lp30
F43.69467625311118
aF2.869884329200919
aF-1.7885455709708156
aF-0.6775697044692603
aF-0.9016439504190525
aF-0.11471216035895998
aF0.6922545566198872
aF-0.20149069474201586
aF-1.6285585614959481
aF0.16101325678065442
aF-0.7493337450718137
aF-0.9713506473973936
aF19.54662514497458
aa(lp31
F43.24203124170819
aF1.905168807154699
aF-1.0723095960177655
aF-0.05002059452069116
aF-2.6546498711169457
aF0.903448704735828
aF1.28683324308723
aF-1.105307166772484
aF-2.662281611718724
aF0.5910876614678909
aF0.014776823825424557
aF-0.9785787297299116
aF19.344674540703522
aa(lp32
F42.47915333788279
aF2.101380195763531
aF-1.73340469520879
aF-0.46095504208332677
aF-1.3029746997841822
aF0.5202734181412026
aF0.20067707073344387
aF-0.701655632715974
aF-1.4016617231754422
aF-0.6495302282973752
aF-0.08645951525755108
aF-0.7232856576610172
aF18.974659465691133
aa(lp33
F40.35922811875259
aF1.8183923467701018
aF-1.1535294494357118
aF-2.0495870308096755
aF-1.225395622455913
aF-0.3776479857657406
aF1.5228732210665594
aF-0.6885177344466137
aF-2.5912436887556662
aF0.3394476651897603
aF-0.9076789505744669
aF-0.8995859272925311
aF17.95901773845876
aa(lp34
F37.994415677976846
aF-0.5094497125937121
aF-0.8005390362045486
aF-1.034122098216196
aF-0.7751783070844409
aF-0.30665637117258937
aF0.5522972630646248
aF0.41708402198172717
aF-0.6427674840559532
aF-1.2111391762754518
aF-0.6992363612885442
aF-0.9809700123284247
aF16.321850767216194
aa(lp35
F34.268060247383865
aF-0.4919277218451157
aF0.33297522918815625
aF-1.286645187685771
aF-1.0435315965029055
aF2.1125928933689
aF0.26465157030781206
aF0.005683112224850351
aF-0.13913386109953318
aF-1.8369947628285608
aF-2.1538691842164215
aF0.027243144725213497
aF14.952286463681475
aa(lp36
F27.347411005899403
aF-8.374164420696687
aF-3.177733097823687
aF0.5892192070490475
aF0.6792406722563025
aF-1.9672311480425235
aF-1.3243710337611032
aF0.9500659389850933
aF2.144438084774016
aF4.0313156382910815
aF2.5065038379804836
aF1.522819398735437
aF3.1366427269540083
aaa(lp37
(lp38
F37.99382697085401
aF-0.8722679376264582
aF-2.16285720958296
aF-1.173554836816267
aF-0.54312467823736
aF0.3356034260807715
aF0.057648062817943733
aF-0.8596060856068067
aF-1.0134093391463481
aF0.11874813770385025
aF-0.6173468623601398
aF-0.5780570696366429
aF14.377296078469493
aa(lp39
F52.44622330622386
aF6.231452403544843
aF-3.6592153925186026
aF-0.38546284763060834
aF-2.8978254569822353
aF-0.271631654334823
aF1.5430685146921936
aF-3.1164126535482444
aF-3.640770592436619
aF2.3499529097277243
aF-1.522918148627571
aF-2.7069670023664427
aF25.511493134917117
aa(lp40
F41.37349215732459
aF-0.9829768097494467
aF-2.1820092875398003
aF-0.7397558983846203
aF-1.4219659459392102
aF1.0841333401952762
aF-0.9674697858951067
aF-0.752976380119366
aF-0.14915320322775516
aF-0.6839967263753992
aF-0.2489958296321756
aF-0.8849777883799275
aF16.569869399557348
aa(lp41
F44.23045302678757
aF1.9555316903062918
aF-1.9081856047132115
aF0.32464151043084954
aF-0.8602122202212206
aF0.322178053967843
aF0.36203751883923263
aF-1.9003810050803145
aF-1.697925223518947
aF0.24368201878390738
aF0.17826961327208007
aF-1.3407773125061833
aF19.71722964372714
aa(lp42
F44.58686492536844
aF2.6356859418808254
aF-1.912605729173412
aF-1.1122798260208757
aF-1.414126511596742
aF0.4155296947935195
aF0.4791199766286356
aF-0.8795105370234866
aF-1.5171607441180253
aF0.8164642823426638
aF-1.6392110328284604
aF-0.6935939729323031
aF19.787542762011423
aa(lp43
F43.94339947727457
aF1.8960935114238213
aF-1.6727479850128613
aF-0.35705008737665306
aF-1.8010632096684167
aF0.4863488175428387
aF0.1292338392725466
aF-1.1520500607472814
aF-1.5910573854228085
aF-0.05291967046481072
aF0.06204002250429547
aF-1.9475090989962804
aF19.563231599516655
aa(lp44
F42.937915388896485
aF2.35808534133983
aF-2.2302117787183784
aF-0.2444836963251757
aF-1.651927881095018
aF0.11266193666654256
aF0.9630161382277261
aF-1.3811508896943736
aF-2.401009407431423
aF0.4580443744600657
aF-1.0994758626986425
aF-0.6484729709776575
aF19.499052255471355
aa(lp45
F42.67245808205914
aF2.3079816916182363
aF-1.4296431241263219
aF-1.8700756049216534
aF-1.366857982742472
aF0.29967632952247425
aF1.3557201903699265
aF-1.2904806595277631
aF-2.0672999724064534
aF0.3715445690129373
aF-1.3842620244378776
aF-0.3121119871583883
aF18.99322878361818
aa(lp46
F40.946193016672936
aF1.367827653173367
aF-1.5378545921738915
aF-1.3019406523899049
aF-2.3290597296331716
aF0.2988826949175536
aF1.64380074799571
aF-1.2527287826597797
aF-2.183907174343
aF1.0977409720889328
aF-1.2358882830238755
aF-2.4886033163748227
aF17.86335113890492
aa(lp47
F34.50628018572764
aF-0.6932190538462013
aF0.8770087151504053
aF-1.1841113037450357
aF0.20537964530606456
aF0.1622733702369497
aF-1.2846121702343
aF1.9590251605701994
aF0.2240212308870364
aF-4.141371129757765
aF-0.07480956610745948
aF1.3712618109658596
aF16.16591212078172
aa(lp48
F35.28633111543485
aF-2.012579738876486
aF-0.9944604893411946
aF-0.42244254435342055
aF-1.6901534547795938
aF1.248007200893705
aF1.7213831054035806
aF-0.2549361366965076
aF-0.07970723241094602
aF1.4246650397048586
aF-1.3536553287660673
aF-1.4948604092566686
aF11.563316539818775
aa(lp49
F35.77209145379102
aF-3.2621766109958132
aF-0.7095578327650071
aF-0.6015227998355
aF-0.8672555344367845
aF-0.8746522043741637
aF-0.07410220861937478
aF0.5718292692091265
aF-1.4788287448159836
aF-1.5228583505015458
aF-0.10061875984057322
aF0.6044967859381818
aF13.719723477045473
aaa(lp50
(lp51
F39.33217616552837
aF-0.3018003104130253
aF-2.4076304633574175
aF-1.5426327426672928
aF-1.2177292582650232
aF0.529174675578161
aF0.5008624733344617
aF-1.0091308708194646
aF-1.0800566213884688
aF0.7641439787273715
aF-0.5924067120791421
aF-0.8519486795073151
aF14.654019779985347
aa(lp52
F44.31939450456532
aF2.730635562441125
aF-3.218748858038944
aF-1.6518365430063215
aF-1.1617192579664815
aF0.10739463567638341
aF-0.285030555382597
aF-2.773795425610468
aF-2.3847556228888247
aF0.29148120250150733
aF-0.2633112648443267
aF-1.9021359533328641
aF21.069900887921715
aa(lp53
F43.08257750064026
aF2.0267999206070746
aF-1.4676174292600184
aF-0.22966722064466394
aF-0.5263392891169751
aF0.044593639480168895
aF0.6827766315218775
aF-0.33505408751419297
aF-1.5973985339567665
aF0.3856805735284105
aF0.21021164788442026
aF-0.5481646220226125
aF18.02436704625644
aa(lp54
F44.10083829494219
aF1.341628323014575
aF-1.3395147920997053
aF-0.5812829047758481
aF-2.910518095907618
aF0.5854927966588686
aF0.7234790239764191
aF-0.7972880189843381
aF-1.4212779197900711
aF0.2123288045923578
aF-0.7972690708354772
aF-1.8365935104518691
aF18.94196406350389
aa(lp55
F42.726771708467844
aF2.3089658135062807
aF-1.1811780496520068
aF0.15542849383829171
aF-1.3246257494533231
aF-0.05711262413724119
aF0.4243603667953766
aF0.40373692900910885
aF-1.1162639829910246
aF0.15501974174620722
aF-0.8156395074444238
aF-0.7630183235180676
aF18.82111646131502
aa(lp56
F43.40174270580067
aF2.196568048222246
aF-1.7752334529955187
aF-0.6205742802315011
aF-1.4964768541642763
aF1.2090440310708592
aF0.578079957305519
aF-0.12276698900374491
aF-1.4857496576513034
aF-0.4446625862168566
aF0.29224028103181254
aF-1.2766743402275909
aF18.72151133493038
aa(lp57
F40.872576532768576
aF2.859100323215048
aF0.12187507587147972
aF-1.433748495964505
aF-0.964182277738145
aF-0.252492064581835
aF1.9128839567930316
aF-0.7051474040580654
aF-2.406717691769014
aF1.060916611199044
aF-0.8327398259591032
aF-1.0795660213393514
aF18.924000709566403
aa(lp58
F42.2752762846792
aF1.17678154746186
aF-0.6723412526789453
aF0.44387702615854374
aF-1.783877701834776
aF-0.19935102307124075
aF0.6545667691249055
aF-0.09250904024609738
aF-1.0483908135907396
aF-0.4909739350451758
aF-0.32797099365387894
aF-1.1316844508844741
aF18.612711945597827
aa(lp59
F41.310223891267796
aF1.7626365782607405
aF-1.9146107371845154
aF-0.6738459474316492
aF-1.386841381712136
aF0.6230111339380409
aF2.12770026232894
aF-0.6194598787582262
aF-2.7853755048311712
aF0.2770699272273885
aF-0.48396267454673914
aF-0.196828420796737
aF17.632714488671155
aa(lp60
F36.012765108960394
aF0.23105104630035345
aF1.6108756913574298
aF-1.5329615434782193
aF-1.0157205217097778
aF-0.23179261192143014
aF-0.6920147168874276
aF0.7789974274531821
aF-0.15415428004494314
aF-1.731741070490702
aF-0.7188574527376514
aF-0.10062002107877271
aF16.468724645858792
aa(lp61
F35.93986134303762
aF-2.1957646196788403
aF-1.9400298364447823
aF-1.4191942486677438
aF-1.5994135081462288
aF0.4911675189670923
aF1.431142863015992
aF0.5025753923074916
aF-0.9258833909028337
aF-0.659074128237529
aF-1.925197360190856
aF-0.7804873421869194
aF12.669093077117198
aa(lp62
F30.143882983663048
aF-6.473525877212739
aF-1.2381807563997236
aF1.3815972630529956
aF1.524674825083278
aF-0.7219234134995545
aF-2.7529685948043383
aF-1.106027975841017
aF-0.028214513097053473
aF-0.22787842967117355
aF0.3261584185291231
aF0.42966037971192295
aF9.52968069751903
aaa(lp63
(lp64
F38.49281285359104
aF-0.995350433882387
aF-2.1440281516917
aF-0.939810139585489
aF-1.1889825893156443
aF0.17598448420698123
aF0.49213415300674246
aF-0.7753415800081281
aF-0.5560021598941863
aF0.12629009700523572
aF-1.4673163112808598
aF-0.9217973301500905
aF14.913925593690639
aa(lp65
F47.05023367685826
aF4.301262561616292
aF-2.0865095339092488
aF-0.590731665242107
aF-1.930485982031598
aF-0.8160813694858037
aF0.21216154064347398
aF-2.0324871714119555
aF-3.1098683675723184
aF0.9722642435007749
aF-0.1341715844118323
aF-2.2096951132088143
aF23.082392970316995
aa(lp66
F43.033031389640186
aF0.02317368236796269
aF-2.4918491490311743
aF-0.42936060263751563
aF-2.3666876826097925
aF1.4207959464004174
aF0.3051942036457523
aF-1.4557871072426547
aF-1.4014070191259194
aF-0.15973594951860048
aF-0.8010781989521699
aF-0.7914658559735178
aF17.403187139184066
aa(lp67
F43.304661289808976
aF2.5439324918821837
aF-1.7331832258250737
aF-0.5985003031624494
aF-0.766717255585371
aF-0.08871341698850643
aF0.34227003687768576
aF-0.015277135541134745
aF-1.7902775145302388
aF-0.01532867980731048
aF-0.07840819436790025
aF-0.7162347251996115
aF19.253274885998206
aa(lp68
F44.30222019950138
aF1.2170210473555765
aF-0.7320556085637158
aF-0.021188347259022633
aF-2.2273108053980333
aF0.4306666089751042
aF0.6276891360703571
aF-1.069841136033169
aF-1.2316487423148965
aF0.5340962137754548
aF-0.7718160606117113
aF-1.0752803467021812
aF19.33107708413399
aa(lp69
F43.06111678044152
aF2.719783374655046
aF-1.040242575430557
aF-0.7028304241832279
aF-1.671620928342255
aF0.28935927229407793
aF0.4315754421090297
aF0.10891367218432679
aF-0.9095709297990271
aF-0.7983348947313846
aF0.025174349184714395
aF-0.7902911684053773
aF19.198429070639904
aa(lp70
F42.46968268025461
aF2.449529821882688
aF-1.582105551988153
aF-0.10825154115677271
aF-1.2181232396179615
aF-0.2724149802251401
aF0.7756011932960671
aF-0.29289410980509406
aF-2.058330639310847
aF0.32708210199827176
aF-0.45842986226205196
aF-1.132062986884546
aF19.045036391794763
aa(lp71
F42.74218268496027
aF2.058458197002307
aF-0.42122781330333636
aF-1.5547562706717608
aF-1.4271904703065825
aF0.05482094189169998
aF1.53500276015554
aF-0.8127110070713675
aF-2.0697669466037363
aF0.034344410754850854
aF0.08491469721948203
aF-0.25661517870107753
aF18.75080692416848
aa(lp72
F40.051253400530435
aF2.1010887948658774
aF-0.6792824590621164
aF-0.7067705655582449
aF-2.0561896163711584
aF-0.6259726003875523
aF1.2708950961688665
aF-0.5131703966010532
aF-1.9358536909167392
aF-0.005327948968910881
aF-0.5445889165703518
aF-0.3261269959088423
aF17.932093045375577
aa(lp73
F39.990033674316265
aF0.5114024090215781
aF-1.0784284061767888
aF-0.9566987181913145
aF-1.772435903169523
aF-1.0401318546683194
aF0.473610700524129
aF1.3557474319942382
aF-0.17197586076522042
aF-0.8276582617734467
aF-1.6494142766351434
aF-1.1975653748328665
aF16.683801140849578
aa(lp74
F35.64405730371134
aF-1.3445648428237476
aF-0.005415204366334803
aF-0.49891100738797156
aF-0.7982262021499289
aF2.947939347952537
aF1.8856000935481092
aF-1.0284831696713117
aF-1.4827152693031984
aF-1.4297348780214099
aF0.012117502456651885
aF-0.11762887056774518
aF14.146281377751198
aa(lp75
F36.18545571951604
aF-1.5484234215700328
aF-1.0345165565787777
aF-1.1000817293369192
aF-1.6020836064839064
aF-1.696606505547197
aF0.3820691711521229
aF2.0366591957422746
aF-0.3281288614715102
aF-0.12816461674302693
aF-1.2519446761825879
aF-0.1367932361392582
aF14.520254987358381
aa(lp76
F27.61187104085282
aF-7.8353414310311065
aF-1.962735186209529
aF0.7675969628677126
aF1.5483084533450988
aF0.7329583780259707
aF-0.5857556053594996
aF0.6795698844911663
aF1.442908949989976
aF1.4769214667528026
aF1.4290930794344288
aF1.3354855037908941
aF6.527096299471955
aaa(lp77
(lp78
F37.9374142295662
aF-0.8044666847373076
aF-1.7725607504819725
aF-0.8534786653043982
aF-0.5957805540156196
aF0.4945393854228032
aF0.25463098331235046
aF-1.0312823030792966
aF-1.2102370033260295
aF0.053801259282885504
aF-0.7633834292136067
aF-0.8477717204739131
aF15.171658738026402
aa(lp79
F49.99920033500834
aF4.844240335939554
aF-3.90825661958715
aF-1.718233158290016
aF-2.2759198261507243
aF-1.216849714327564
aF0.5130709679320464
aF-0.3128254899451549
aF-1.2591700446328973
aF0.6125854642398714
aF-2.1243891567837987
aF-3.05658379997322
aF23.282756936765697
aa(lp80
F42.02933402083975
aF-0.014772115922032647
aF-1.4520381625171512
aF-0.19816469544341242
aF-0.9988348937334
aF1.5706151448548122
aF0.0029678067488393967
aF-2.424096505819875
aF-2.753171575664918
aF0.41136180447702553
aF1.413421021899012
aF-0.03512429674078277
aF17.35323437905585
aa(lp81
F43.610200508473426
aF2.458895235005761
aF-1.4370930814977299
aF-0.3020731117486023
aF-1.7586076917681603
aF1.1302173425403845
aF-0.21252106425401193
aF0.11243166617644096
aF-0.6359522860855202
aF0.2171537934765383
aF-0.2481682057941717
aF-1.5273894830501116
aF19.066007955097582
aa(lp82
F43.62331324743233
aF2.524856144282978
aF-1.557469630117934
aF-0.7246275009122431
aF0.01574775109576443
aF-1.1197827135749812
aF1.0660725703706269
aF-0.22861221711241753
aF-1.4959448673546074
aF0.6509829917679817
aF-1.5793698587937048
aF-0.9914780085727151
aF19.19336116205811
aa(lp83
F43.509279118579045
aF2.2874449436161814
aF-1.7098386685915907
aF0.3447439644334453
aF-2.307488063271163
aF1.2029620578648008
aF0.6461051199758736
aF-0.5158564402173254
aF-1.4022353449967082
aF-0.4608871559424641
aF0.3261140080435345
aF-0.6515496665092929
aF19.09367932123494
aa(lp84
F42.51309557055307
aF2.5025433800840484
aF-1.0156995088308065
aF-1.3593628363283354
aF-0.4597896076320973
aF0.25995605648913195
aF0.5053443698231275
aF-0.5064842878302177
aF-1.8685373192097383
aF0.35010868043921245
aF-0.26893466995133947
aF-0.8957446759088465
aF18.96954541770374
aa(lp85
F41.338067073855626
aF2.0451887775867905
aF0.01578504201050923
aF-0.26530358975298857
aF-1.8613129916120175
aF-0.6486574901203015
aF0.6385123899313971
aF-0.852691858149476
aF-1.2648144088118758
aF1.0354623539074228
aF-0.7921546917368242
aF-1.1946791062958184
aF18.508771550854313
aa(lp86
F40.35375435084413
aF1.6389945170776872
aF-0.9747438081513047
aF-1.8136374580596173
aF-2.077611229097686
aF0.25042024034185656
aF1.2915811248457163
aF0.6792621716635631
aF-1.660534459240031
aF-1.3257826378766067
aF-0.6074507881492553
aF0.10174984319268932
aF17.27257207160017
aa(lp87
F37.52721479011513
aF-0.2847314747060543
aF-1.7182504913377419
aF-1.6585207061487361
aF0.16373784491372279
aF1.620879070511508
aF0.5822539142496114
aF-0.6515778986505422
aF-0.5321558228718104
aF-0.518987941214172
aF-1.0226682357332433
aF-0.5645760052074715
aF15.306492293087206
aa(lp88
F35.195753991986294
aF-3.307672016546099
aF-0.8012708578995853
aF-0.5629497884465856
aF-3.990440931099351
aF-3.2027424151108885
aF-0.3452827043442372
aF-0.628851401428119
aF-2.8142551949580925
aF-1.4586961231915465
aF-2.501457554912229
aF-1.1996043414234374
aF14.66362287348597
aa(lp89
F28.40248043640301
aF-5.7542342857149125
aF-0.7808366278204738
aF1.1652889082323115
aF2.717301263802055
aF1.1710863189106075
aF-0.02666984696410188
aF1.7356024189102492
aF3.575058368254047
aF2.669484184239101
aF2.6211033511662043
aF2.2510069094661134
aF5.3401794969888225
aaa(lp90
(lp91
F39.80440100115695
aF0.1748122411452801
aF-2.3472816621640806
aF-1.530205307048746
aF-0.9233781323628023
aF0.5001872655018034
aF0.5412971429856865
aF-0.9339870774503662
aF-1.1199510167002085
aF0.6287182558215558
aF-0.8864099662736992
aF-1.1891870138048626
aF15.837495731086879
aa(lp92
F46.00825763470624
aF2.899694992326204
aF-2.63666977580393
aF0.38417491180713625
aF-1.4359515569869286
aF-0.5199982246466386
aF-0.022880509491442547
aF-1.716893811162641
aF-1.6880566133846198
aF0.6710510895592535
aF-0.07946738308384182
aF-0.9394813315544339
aF20.83739565522724
aa(lp93
F42.532294926021486
aF1.0405206364872537
aF-1.317177331186846
aF-0.6115770277741346
aF-1.2288794154939833
aF0.47591703372195404
aF0.15124382739840764
aF-1.151229570774206
aF-1.0467252354801784
aF0.18560146534397287
aF-0.5186498063355586
aF-1.307555304983365
aF18.156876135591713
aa(lp94
F43.136183019879525
aF2.1497264397842093
aF-0.7665642876875993
aF-1.1501708788798273
aF-2.539430318125225
aF0.3362876046421406
aF0.9165631314814711
aF-0.04146258772259126
aF-1.727407578352315
aF0.5471124698680763
aF-0.5639656725566549
aF-1.500122062157771
aF18.788594651324903
aa(lp95
F42.89745283422112
aF2.559407680667219
aF-1.7699582690627103
aF-0.23744504198796879
aF-1.0733680573902302
aF-0.1852786726431635
aF1.0910666581093253
aF-1.1018348505890367
aF-1.6342789925205972
aF0.9304246228328228
aF-0.14837613821162488
aF-1.57612402182775
aF18.974789484552705
aa(lp96
F43.50973508901364
aF2.2214116311055916
aF-1.4294166973279054
aF-0.43789667359963913
aF-1.8145253882768282
aF0.5256026900045059
aF0.7151047932594206
aF-0.2740667457102579
aF-2.0379707983750475
aF0.5114570792926766
aF-0.3120764714606984
aF-1.5295938422552602
aF19.145302091747354
aa(lp97
F42.484505644261404
aF2.4923883645612728
aF-1.2179810732681846
aF-0.41537644519251865
aF-1.4165320740931167
aF0.013912485122686585
aF1.2842661563038702
aF-0.6631694214898466
aF-1.2270431304070093
aF0.3022267914940353
aF-0.6496025608776547
aF-0.8417232777713353
aF18.9376005287403
aa(lp98
F42.04499430927569
aF2.1082163136907623
aF-0.6596024612920661
aF-0.8734730931188415
aF-1.2268423927444478
aF-0.6333294190149863
aF1.0949230159026748
aF0.516780723507495
aF-2.3378218539619553
aF0.3901073746916771
aF-0.8510147748042356
aF-0.8799215877342199
aF18.813144889116032
aa(lp99
F39.0582155207755
aF2.2903761900821094
aF0.5239116111615193
aF-1.3362274450597191
aF-1.7925586449961195
aF0.7820659218836508
aF1.0552167266036765
aF-0.29497643114105865
aF-1.7151338931697064
aF-0.8411916615966937
aF0.05952092170785761
aF-0.26825749438487656
aF18.081729145940557
aa(lp100
F38.94778824741948
aF0.0777643788766047
aF0.08788924260401293
aF-0.6920353828755758
aF-1.8079480403006947
aF-0.5315699940551584
aF0.4435242925303473
aF-0.3786339930882249
aF-0.5732478575890352
aF-0.3143366799228642
aF-1.3877221326537603
aF-1.0691626356376938
aF17.05279614902901
aa(lp101
F34.58870693180331
aF-1.6721633491141261
aF-0.13755233605968317
aF-1.5703398128268875
aF-0.42851069888663873
aF1.0194998438889904
aF0.23966332732387619
aF1.3252376677524564
aF-0.26203162508835764
aF-1.7965284881474806
aF-0.7692812189774461
aF0.10480529312473913
aF13.941242503394804
aa(lp102
F34.465477618083284
aF-3.6851426840723525
aF-1.836765060907337
aF0.6167211334950216
aF-0.5687263654422413
aF-1.4036966600821401
aF-1.0628991212131091
aF-1.0774354592001125
aF-0.7343797620072082
aF0.286154898617093
aF-1.8430418082978925
aF-0.6232397039210398
aF12.678143071736972
aa(lp103
F29.66697949498044
aF-6.305990968521804
aF-2.792191591567606
aF-2.1232794961511816
aF-0.40251224773556116
aF0.9382197779141086
aF-0.6077703719891305
aF0.11043269974496323
aF1.6125190424753626
aF2.2316134540519847
aF2.836699469118595
aF0.8068878075950556
aF4.5246580126496045
aaa(lp104
(lp105
F38.757688122616706
aF-0.36963549880389246
aF-2.8063236772980473
aF-2.048709683103574
aF-0.7806096097484126
aF0.6153966286536238
aF0.3063643929193808
aF-0.7277602162863446
aF-0.9344009340170726
aF0.3771851786845391
aF-0.6840675292414092
aF-0.8989027379836396
aF13.989902997335605
aa(lp106
F45.51166448319347
aF4.21347066370757
aF-0.22058191350126544
aF0.5432165243107785
aF-0.9863296594224074
aF-1.4676927298594313
aF1.7625900326722725
aF-1.4814886978478168
aF-1.3103173815936708
aF1.3603590157723968
aF-1.1135394315626597
aF-1.56822748933381
aF23.08646483716018
aa(lp107
F40.72926205531156
aF1.0213593103548257
aF-2.4889992565284738
aF-1.7265108781598053
aF-0.8817629251660503
aF0.7948553927172528
aF-0.8677130430580218
aF-0.30720377341419614
aF-1.3547269312645556
aF0.7625325391574205
aF-0.7014611064743175
aF-1.2311469511402136
aF15.746660200234071
aa(lp108
F42.61769202948901
aF2.0168158845660784
aF-2.0556130893800786
aF-0.5930676733274052
aF-1.0528255287871195
aF-0.2894517741453491
aF1.460585366243114
aF-0.63011012484821
aF-0.9556365956675998
aF0.4485871346056457
aF-1.3178142939973827
aF-0.9080365090865896
aF17.597739660405114
aa(lp109
F42.32528105424196
aF1.9000489972717631
aF-1.2468365008897055
aF-1.0068513798871692
aF-1.0940855223174086
aF0.8661491867875966
aF0.7579836494396661
aF-0.8590171855897678
aF-1.3421089275125917
aF0.4925422708771585
aF-1.0412970479429267
aF-0.8354242089181745
aF18.187113497791557
aa(lp110
F41.00501800357602
aF3.036183739901322
aF-1.9706549458966776
aF-0.29902810160888116
aF-1.1865835205613993
aF0.5691688730721174
aF0.9378738006115345
aF-0.45125468763753696
aF-1.5913539014240685
aF0.36412925973630916
aF-0.7805467532633441
aF-0.6540430661052068
aF18.294658665083563
aa(lp111
F40.546516917845736
aF1.0131822977181968
aF0.31349419119592836
aF-0.5460635387603154
aF-1.3310740567077044
aF0.291224382015966
aF2.255126783340762
aF-1.365274511389379
aF-1.5762778084289955
aF0.20410718330280814
aF-0.7635892447261886
aF-0.5012401694955313
aF18.176814298285084
aa(lp112
F42.2909114126027
aF2.136797782546788
aF-2.616421542653037
aF-1.6381955537888002
aF0.5781110358965054
aF0.5650625176129341
aF-0.43621684347182643
aF-0.35205332010227475
aF-0.8686969856548801
aF0.5267080058974156
aF-1.074741936307699
aF-1.0354858153613784
aF17.552174441921515
aa(lp113
F37.11560851569138
aF1.1586416792654923
aF1.2018930626363669
aF-1.7087635063759872
aF-1.9200142603085024
aF0.34409427233883666
aF0.9368110205819012
aF0.8524720513973469
aF-0.9987126436729159
aF-1.1766445845785456
aF-1.1225380560750065
aF-0.3192988486341197
aF16.43776087033901
aa(lp114
F32.0642953547938
aF-2.4183157156656607
aF0.6726857484651504
aF1.1898267200293537
aF0.4252162163793155
aF1.4955074626835185
aF0.6957759822999385
aF-0.9396267712965249
aF-1.264130668899276
aF-1.2123533220956542
aF0.21172597058399245
aF1.530553254275048
aF13.269564082366072
aa(lp115
F36.84942053564987
aF-1.6830567899611375
aF-0.9117815523253052
aF-1.717891793709599
aF-1.6758652292415106
aF-1.2016992477908657
aF0.538760400537297
aF0.6179736691613057
aF0.007248720999561753
aF0.7830566340260406
aF-0.9528490668954377
aF-0.12111569894934915
aF10.807869728072824
aaa(lp116
(lp117
F37.55357769705132
aF-1.664144716759111
aF-3.0336245402116635
aF-1.5356508349679823
aF-1.6306118185982579
aF0.160767052833728
aF0.6382106861803012
aF-1.2368498535063652
aF-0.9817803878759941
aF0.8624151801101722
aF-0.467718484700043
aF-0.7138619546467283
aF12.848480512295128
aa(lp118
F49.58247773452773
aF6.31134530874133
aF-2.376439307832037
aF-0.9232666425851843
aF-0.29338447081912933
aF-0.36004644848067624
aF0.2110149268797502
aF-1.9521629213957803
aF-3.360528446700492
aF0.5062211970539683
aF-1.5882720286224927
aF-1.622444020760395
aF25.162112393076377
aa(lp119
F38.92095502704235
aF-0.2673688899669697
aF-2.1884321880761903
aF-2.195256140818702
aF-2.3660103972287847
aF0.8977165517474823
aF0.9782683062660618
aF-0.046036172828661126
aF-1.3135607340352773
aF-0.03418890149527615
aF-1.0337823927933487
aF-1.3230717991538614
aF15.643009791863795
aa(lp120
F43.71789840193577
aF1.4474817974644973
aF-2.3759575302149365
aF-0.4291040526643579
aF-0.8557361611727141
aF-1.6285663912766006
aF1.7054322587802377
aF-1.44324928938298
aF-2.0750265960534566
aF0.8566108088435347
aF-0.7872120516935908
aF-0.2883220538331339
aF18.321781581354397
aa(lp121
F42.813757731692306
aF2.817138595672031
aF-1.7100878786975064
aF-1.0176785171806757
aF-1.4484126141093534
aF0.23967484230929886
aF0.4266716881982269
aF-0.06576757750308548
aF-1.7420507816249537
aF0.873785912839584
aF-0.979406071337521
aF-0.875368475546967
aF18.834740732229406
aa(lp122
F43.062841894588566
aF2.734174107894589
aF-1.974123772947645
aF-0.5627591648317314
aF-2.06013522536576
aF-0.20187974788586416
aF2.385931208064032
aF-0.8631379571683855
aF-1.882066194271525
aF0.014230241054500214
aF-0.7109880558842018
aF-0.8250767306876752
aF19.06577291822949
aa(lp123
F42.2065092478538
aF1.999649687693986
aF-0.8219462876298778
aF-0.8675001054306151
aF-1.7006362637642847
aF0.06556601114709404
aF0.5465712961868384
aF0.8629727360251175
aF-2.3877916220009108
aF0.536100115676855
aF-0.5951530660306499
aF-1.000465197484652
aF18.529572943624565
aa(lp124
F40.950304675565974
aF2.1153328452060394
aF-1.1640276712776705
aF-0.21928004325552175
aF-1.7476493399801512
aF-0.23395074314532355
aF2.0571887282955474
aF-0.7989780917005087
aF-1.5223262687028065
aF-0.1731762962597872
aF-0.8754230323012692
aF-0.16519271778357925
aF18.361297515352454
aa(lp125
F39.33636785654462
aF0.9346297980161988
aF1.0744521312986544
aF-1.9578278825530142
aF-2.0088237531202093
aF0.46676601295128095
aF0.32225824071381015
aF0.8584854188561019
aF-1.2507203379522487
aF-0.8787110836390328
aF-0.3433471760994877
aF-0.979403416178226
aF17.500580476233488
aa(lp126
F38.022184619038555
aF1.1272034814439484
aF-1.4918067976196645
aF-1.4171756385213286
aF-1.221614720921671
aF-0.11503668597994549
aF2.313471638701415
aF-0.3832193899367057
aF-1.3211151413740105
aF-0.06762349068898477
aF-1.722700619065681
aF-0.962116588693981
aF16.468088107884867
aa(lp127
F34.045188399464216
aF-4.224224442917428
aF-0.04433099269668417
aF0.6121783317153341
aF0.9984952550654841
aF-0.08646502451737768
aF-0.7475082078207657
aF1.8240968239977844
aF-0.19223449796570669
aF-2.2828951412084617
aF-0.6924262455717021
aF0.47137523812555177
aF13.802719789587222
aa(lp128
F34.16798875827948
aF-2.1086788564885066
aF-0.9021006136448853
aF-1.0249405889654275
aF-1.851285028334007
aF0.13032277681074647
aF-0.16531295724624923
aF-1.5168927402696788
aF-1.9445546365611601
aF0.0013554347780361242
aF-1.6661922619941198
aF-1.461109317687215
aF12.400796525185365
aaa(lp129
(lp130
F38.76696484341809
aF0.15642394507189014
aF-1.9390911876109092
aF-1.4606027287337175
aF-1.0036658325543366
aF0.26056825612121637
aF0.43685561194439637
aF-0.8569510466931247
aF-1.306946499291121
aF-0.0996912491402448
aF-0.9579687004584054
aF-0.8715356877350593
aF15.926233223103734
aa(lp131
F49.72620903376372
aF3.2572683502870348
aF-3.941756598067066
aF0.3290562310016928
aF-1.3937352468740452
aF-0.727210506905162
aF0.1111637999402561
aF-1.75845411676671
aF-2.165263105780409
aF2.2531408014965226
aF-0.7792793259528684
aF-1.6534949289264689
aF21.481828029181017
aa(lp132
F41.89192743576372
aF1.3882057287473708
aF-1.7992199089551122
aF-1.0052444987142521
aF-0.9833858834220803
aF0.9007430840912006
aF0.20651398037032465
aF-0.6290895790841917
aF-1.4901717255816553
aF-0.7095533641437923
aF0.16209849540680554
aF-1.3298015112259947
aF18.411197752422822
aa(lp133
F44.49580995831277
aF2.2230323400608456
aF-1.875507701642141
aF-0.48819245773871156
aF-2.0405086186192376
aF0.21875224945379093
aF0.7701323264879649
aF-0.5089537915446573
aF-1.280812996206884
aF0.8526499410631752
aF-1.1545316843778393
aF-1.459142397890173
aF19.105226283330634
aa(lp134
F44.87941971980324
aF2.072249866178448
aF-2.474463010820832
aF0.11276709610442531
aF-1.730165438272037
aF0.808629648296094
aF-0.3374756718598625
aF-0.13978803735213985
aF-1.3435380236436116
aF-0.3715604900588781
aF0.009118131391975204
aF-1.5419098001022453
aF19.59228538183059
aa(lp135
F43.525360485617966
aF2.9607230584572184
aF-0.7907932626655816
aF-1.540055367628193
aF-1.3487197983093953
aF0.5413359719506196
aF1.2559109715625718
aF-0.2993827672885359
aF-1.7722371845290574
aF0.8509827637827055
aF-0.8158424787197565
aF-1.154931031775336
aF19.355452584826523
aa(lp136
F42.6351738212624
aF2.116978082163425
aF-1.2628653386171915
aF0.06558692001271432
aF-1.6043927578787929
aF0.8490742682236556
aF0.5618481979454346
aF-0.872645515050472
aF-1.297957196864193
aF0.12256512167622657
aF-0.4003024003208844
aF-1.1854278889572782
aF19.09684960097204
aa(lp137
F42.55264180319214
aF2.5035979060274807
aF-0.4115446673952765
aF-1.7052302731323912
aF-1.444832351484671
aF0.03400204493609882
aF0.894175075758171
aF-0.6654743965877421
aF-1.964509304426324
aF0.0957481321668131
aF-0.5201585392790329
aF-0.7077846337783502
aF19.027177506980728
aa(lp138
F38.59497667179786
aF2.463529465026225
aF-0.09486459979259587
aF-0.919339785613827
aF-1.4966929666646154
aF-0.13657766075443029
aF2.433789194958841
aF-0.9855056895022077
aF-2.272000754571101
aF-0.13658100070027374
aF-0.7677345352178526
aF0.3081042186018872
aF18.02337439235377
aa(lp139
F41.933532714051935
aF0.9786701035059695
aF-2.574414120491649
aF-3.3293519715430233
aF-0.8695356843840543
aF1.4729414968408798
aF0.6348457456115918
aF0.22111784136545543
aF-0.8106506830042224
aF-0.5680679883656713
aF-0.7948363105944936
aF-0.8514830505488141
aF16.656109540519264
aa(lp140
F30.39392989182528
aF-2.7209507781661824
aF2.5031794233322215
aF1.7800825140782832
aF0.6650943503108147
aF1.1611192124718448
aF-0.4995140013392908
aF-0.2468243531398503
aF-1.5533660123336503
aF-1.1077174735141175
aF-0.3197381876542168
aF1.1675421382917706
aF14.967397807508053
aa(lp141
F36.9739622883202
aF-2.3458833899303304
aF-2.3066530757312194
aF-0.3776111294899168
aF-1.509251578835399
aF-0.25814788924794074
aF0.47153081991786155
aF-0.15758224200240745
aF-0.2566032256789177
aF-0.4884097522956924
aF-1.162315882158576
aF-0.8716183720548191
aF12.035715672060096
aa(lp142
F32.03258555846879
aF-4.166069662431862
aF-1.2880131752989317
aF-0.858757058105413
aF-0.19752431127629644
aF-2.485454046561109
aF-1.0827136278615943
aF0.5168226108786255
aF-0.2685634806699321
aF-1.100220710336572
aF-0.136618057524604
aF-0.0948588502922204
aF10.99490406832165
aaa(lp143
(lp144
F36.85151871089852
aF-2.15441988623613
aF-3.308998918705804
aF-1.8830359310252667
aF-0.6474806299738136
aF0.7864746036112962
aF0.8547980730602319
aF-0.5785356274321315
aF-0.6014507604736224
aF0.6060119680541698
aF-0.39020135227891617
aF-0.5123514646069287
aF12.117033112644231
aa(lp145
F49.54472030115096
aF6.428833773966716
aF-0.7865802510459083
aF-0.4296140904244483
aF-2.990690851564425
aF-0.29557514397116635
aF-1.4050247323896143
aF-2.991007608704039
aF-3.132875081552754
aF0.19712352972080627
aF-1.7784657235855432
aF-2.476440047360299
aF26.60788945517293
aa(lp146
F40.37770904743121
aF-1.016151006936569
aF-4.544799512688975
aF-2.9838452745945085
aF-1.0697073982306982
aF0.09795549680893062
aF1.3604132837127774
aF0.02665772989836257
aF-1.6271017497683764
aF-0.20763709499669192
aF-1.8818855275437527
aF-1.3374415341035122
aF14.9867876314738
aa(lp147
F43.90547721607362
aF2.4005675446019974
aF-1.1008767054366508
aF-0.18993672005381668
aF-0.9783964439176485
aF1.1019028763355543
aF0.5809990958596081
aF-1.0108700425892698
aF-1.0178934160610995
aF0.8363182274497032
aF0.36347186960238054
aF-1.0464747897242836
aF18.801735405155945
aa(lp148
F42.47826176259424
aF1.3828250592578273
aF-2.374965307507964
aF-1.174054690345678
aF-2.7396677011582002
aF0.4245035773786555
aF-0.16152340674305687
aF-1.3297402447846873
aF-2.2488329553802107
aF-0.8171658498775035
aF-1.114402776655512
aF-1.1351952019982987
aF19.28544918192971
aa(lp149
F44.57598458733631
aF1.5155396988809113
aF-2.7259536168441714
aF-0.7703335967474039
aF-1.1861626421382025
aF-0.2701603983338455
aF0.9594284215637805
aF-1.2444885873588853
aF-2.293457785817482
aF-0.2722137584572273
aF0.19812923697483154
aF-1.097849773574884
aF18.859462821407874
aa(lp150
F43.087045904431704
aF2.1045612419564517
aF-0.7782259587363658
aF-0.8310317884587212
aF-1.5970768991336073
aF0.6422168297700775
aF0.6129656643541415
aF0.2591551770509085
aF-2.42793017856809
aF0.24532707094542908
aF-0.684427872108861
aF-0.2586406589299787
aF19.207511499450575
aa(lp151
F41.81231550869685
aF2.374116458396644
aF-1.659516199579061
aF-0.531912514241371
aF-1.9268597639282434
aF0.37869807610546224
aF0.9891471195287536
aF-1.2910120027434144
aF-1.4620738672472395
aF-0.27407151518784834
aF-0.14552173235791155
aF-1.352512420940731
aF18.891131277837157
aa(lp152
F41.22570751868603
aF1.3096072312676486
aF-0.8243424091397538
aF-1.0984644283526046
aF-1.04061749081858
aF-1.3601368810785401
aF0.5943469281985144
aF-0.2612579710454326
aF-1.6767949739585146
aF0.21544137453942003
aF-1.5492018939869108
aF-1.1742329432042662
aF18.429001766612924
aa(lp153
F40.49310736115494
aF1.7186855127463239
aF-0.6070895022316328
aF-0.8762192218759774
aF-1.3889212216808862
aF0.6141743029013813
aF0.3978841239538945
aF-0.12237432758452227
aF-1.25487130525996
aF-0.33470624893701195
aF-1.0561727931646268
aF-0.22471856630428333
aF18.321243409460894
aa(lp154
F40.326641822911164
aF0.9403561369241944
aF-1.7528622814106964
aF-1.6415395254529337
aF-1.8710542076056695
aF0.9187571102686318
aF1.587530839629692
aF-0.9088493379311211
aF-1.8602119321141206
aF-0.09683086357867768
aF-1.0320593339759845
aF-1.6284962028127423
aF17.492801831774134
aa(lp155
F31.312263367207002
aF-1.8599253516186862
aF2.1198321305482617
aF0.015286945143680786
aF0.04308962781322956
aF-0.959093224164838
aF-0.10017541092872329
aF1.3692533653864474
aF-0.26128591369631016
aF-1.3313505721696948
aF-0.7907433545065334
aF-0.060315886334948665
aF14.63469618256834
aa(lp156
F38.87832453353302
aF-1.7778567137129577
aF-3.205134208854135
aF-2.149867615190134
aF-1.4581283188301786
aF1.0861806212352834
aF0.6324217069047836
aF-1.524248702443815
aF-1.4341237961799569
aF-0.8547044271172937
aF-1.2885481806808077
aF-0.492941202659294
aF13.557059953931473
aaa.