(lp0
S'test.txt'
p1
aS'bob/0.wav'
p2
aS'cheval/0.wav'
p3
aS'cheval/1.wav'
p4
aS'cheval/2.wav'
p5
aS'cheval/3.wav'
p6
aS'cheval/4.wav'
p7
aS'caca/0.wav'
p8
aS'caca/1.wav'
p9
aS'caca/2.wav'
p10
aS'un/0.wav'
p11
aS'un/1.wav'
p12
aS'un/2.wav'
p13
aS'un/3.wav'
p14
aS'un/4.wav'
p15
aS'un/5.wav'
p16
aS'un/6.wav'
p17
aS'un/7.wav'
p18
aS'un/8.wav'
p19
aS'un/9.wav'
p20
aS'deux/0.wav'
p21
aS'deux/1.wav'
p22
aS'deux/2.wav'
p23
aS'deux/3.wav'
p24
aS'deux/4.wav'
p25
aS'deux/5.wav'
p26
aS'deux/6.wav'
p27
aS'deux/7.wav'
p28
aS'deux/8.wav'
p29
aS'deux/9.wav'
p30
aS'trois/0.wav'
p31
aS'trois/1.wav'
p32
aS'trois/2.wav'
p33
aS'trois/3.wav'
p34
aS'trois/4.wav'
p35
aS'trois/5.wav'
p36
aS'trois/6.wav'
p37
aS'trois/7.wav'
p38
aS'trois/8.wav'
p39
aS'trois/9.wav'
p40
aS'quatre/0.wav'
p41
aS'quatre/1.wav'
p42
aS'quatre/2.wav'
p43
aS'quatre/3.wav'
p44
aS'quatre/4.wav'
p45
aS'quatre/5.wav'
p46
aS'quatre/6.wav'
p47
aS'quatre/7.wav'
p48
aS'quatre/8.wav'
p49
aS'quatre/9.wav'
p50
aS'quatre/10.wav'
p51
aS'quatre/11.wav'
p52
aS'cinq/0.wav'
p53
aS'cinq/1.wav'
p54
aS'cinq/2.wav'
p55
aS'cinq/3.wav'
p56
aS'cinq/4.wav'
p57
aS'cinq/5.wav'
p58
aS'cinq/6.wav'
p59
aS'cinq/7.wav'
p60
aS'cinq/8.wav'
p61
aS'cinq/9.wav'
p62
aS'cinq/10.wav'
p63
aS'un/10.wav'
p64
aS'un/11.wav'
p65
aS'deux/10.wav'
p66
aS'deux/11.wav'
p67
aS'trois/10.wav'
p68
aS'trois/11.wav'
p69
aS'handling/passe_haut_0.txt'
p70
aS'handling/hann_0.txt'
p71
aS'handling/fft_0.txt'
p72
aS'handling/mel_88.txt'
p73
aS'handling/mel_tab_88.txt'
p74
aS'handling/fft_inverse_88.txt'
p75
aS'handling/fft_88.txt'
p76
aS'handling/mel_0.txt'
p77
aS'handling/mel_tab_0.txt'
p78
aS'handling/fft_inverse_0.txt'
p79
aS'mod/cinq/0.wav'
p80
aS'mod/cinq/1.wav'
p81
aS'mod/cinq/2.wav'
p82
aS'mod/cinq/3.wav'
p83
aS'mod/cinq/4.wav'
p84
aS'mod/cinq/5.wav'
p85
aS'mod/cinq/6.wav'
p86
aS'mod/cinq/7.wav'
p87
aS'mod/cinq/8.wav'
p88
aS'mod/cinq/9.wav'
p89
aS'mod/cinq/10.wav'
p90
aS'mod/deux/0.wav'
p91
aS'mod/deux/1.wav'
p92
aS'mod/deux/2.wav'
p93
aS'mod/deux/3.wav'
p94
aS'mod/deux/4.wav'
p95
aS'mod/deux/5.wav'
p96
aS'mod/deux/6.wav'
p97
aS'mod/deux/7.wav'
p98
aS'mod/deux/8.wav'
p99
aS'mod/deux/9.wav'
p100
aS'mod/deux/10.wav'
p101
aS'mod/deux/11.wav'
p102
aS'mod/quatre/0.wav'
p103
aS'mod/quatre/1.wav'
p104
aS'mod/quatre/2.wav'
p105
aS'mod/quatre/3.wav'
p106
aS'mod/quatre/4.wav'
p107
aS'mod/quatre/5.wav'
p108
aS'mod/quatre/6.wav'
p109
aS'mod/quatre/7.wav'
p110
aS'mod/quatre/8.wav'
p111
aS'mod/quatre/9.wav'
p112
aS'mod/quatre/10.wav'
p113
aS'mod/quatre/11.wav'
p114
aS'mod/trois/0.wav'
p115
aS'mod/trois/1.wav'
p116
aS'mod/trois/2.wav'
p117
aS'mod/trois/3.wav'
p118
aS'mod/trois/4.wav'
p119
aS'mod/trois/5.wav'
p120
aS'mod/trois/6.wav'
p121
aS'mod/trois/7.wav'
p122
aS'mod/trois/8.wav'
p123
aS'mod/trois/9.wav'
p124
aS'mod/trois/10.wav'
p125
aS'mod/trois/11.wav'
p126
aS'mod/un/0.wav'
p127
aS'mod/un/1.wav'
p128
aS'mod/un/2.wav'
p129
aS'mod/un/3.wav'
p130
aS'mod/un/4.wav'
p131
aS'mod/un/5.wav'
p132
aS'mod/un/6.wav'
p133
aS'mod/un/7.wav'
p134
aS'mod/un/8.wav'
p135
aS'mod/un/9.wav'
p136
aS'mod/un/10.wav'
p137
aS'mod/un/11.wav'
p138
aS'handling/passe_haut_0_0.txt'
p139
aS'handling/hann_0_0.txt'
p140
aS'handling/fft_0_0.txt'
p141
aS'handling/mel_0_0.txt'
p142
aS'handling/mel_tab_0_0.txt'
p143
aS'handling/fft_inverse_0_0.txt'
p144
aS'handling/passe_haut_1_0.txt'
p145
aS'handling/hann_1_0.txt'
p146
aS'handling/fft_1_0.txt'
p147
aS'handling/passe_haut_2_0.txt'
p148
aS'handling/hann_2_0.txt'
p149
aS'handling/fft_2_0.txt'
p150
aS'handling/mel_1_0.txt'
p151
aS'handling/mel_tab_1_0.txt'
p152
aS'handling/fft_inverse_1_0.txt'
p153
aS'handling/passe_haut_3_0.txt'
p154
aS'handling/hann_3_0.txt'
p155
aS'handling/fft_3_0.txt'
p156
aS'handling/mel_3_0.txt'
p157
aS'handling/mel_tab_3_0.txt'
p158
aS'handling/fft_inverse_3_0.txt'
p159
aS'handling/passe_haut_4_0.txt'
p160
aS'handling/hann_4_0.txt'
p161
aS'handling/fft_4_0.txt'
p162
aS'handling/mel_4_0.txt'
p163
aS'handling/mel_tab_4_0.txt'
p164
aS'handling/fft_inverse_4_0.txt'
p165
aS'handling/vecteurs_4_0.txt'
p166
aS'handling/vecteurs_3_0.txt'
p167
aS'handling/passe_haut_3_1.txt'
p168
aS'handling/hann_3_1.txt'
p169
aS'handling/fft_3_1.txt'
p170
aS'handling/mel_3_1.txt'
p171
aS'handling/mel_tab_3_1.txt'
p172
aS'handling/fft_inverse_3_1.txt'
p173
aS'handling/vecteurs_3_1.txt'
p174
aS'handling/passe_haut_3_2.txt'
p175
aS'handling/hann_3_2.txt'
p176
aS'handling/fft_3_2.txt'
p177
aS'handling/mel_3_2.txt'
p178
aS'handling/mel_tab_3_2.txt'
p179
aS'handling/fft_inverse_3_2.txt'
p180
aS'handling/vecteurs_3_2.txt'
p181
aS'handling/passe_haut_3_3.txt'
p182
aS'handling/hann_3_3.txt'
p183
aS'handling/fft_3_3.txt'
p184
aS'handling/mel_3_3.txt'
p185
aS'handling/mel_tab_3_3.txt'
p186
aS'handling/fft_inverse_3_3.txt'
p187
aS'handling/vecteurs_3_3.txt'
p188
aS'handling/passe_haut_3_4.txt'
p189
aS'handling/hann_3_4.txt'
p190
aS'handling/fft_3_4.txt'
p191
aS'handling/mel_3_4.txt'
p192
aS'handling/mel_tab_3_4.txt'
p193
aS'handling/fft_inverse_3_4.txt'
p194
aS'handling/vecteurs_3_4.txt'
p195
aS'handling/passe_haut_3_5.txt'
p196
aS'handling/hann_3_5.txt'
p197
aS'handling/fft_3_5.txt'
p198
aS'handling/mel_3_5.txt'
p199
aS'handling/mel_tab_3_5.txt'
p200
aS'handling/fft_inverse_3_5.txt'
p201
aS'handling/vecteurs_3_5.txt'
p202
aS'handling/passe_haut_3_6.txt'
p203
aS'handling/hann_3_6.txt'
p204
aS'handling/fft_3_6.txt'
p205
aS'handling/mel_3_6.txt'
p206
aS'handling/mel_tab_3_6.txt'
p207
aS'handling/fft_inverse_3_6.txt'
p208
aS'handling/vecteurs_3_6.txt'
p209
aS'handling/passe_haut_3_7.txt'
p210
aS'handling/hann_3_7.txt'
p211
aS'handling/fft_3_7.txt'
p212
aS'handling/mel_3_7.txt'
p213
aS'handling/mel_tab_3_7.txt'
p214
aS'handling/fft_inverse_3_7.txt'
p215
aS'handling/vecteurs_3_7.txt'
p216
aS'handling/passe_haut_3_8.txt'
p217
aS'handling/hann_3_8.txt'
p218
aS'handling/fft_3_8.txt'
p219
aS'handling/mel_3_8.txt'
p220
aS'handling/mel_tab_3_8.txt'
p221
aS'handling/fft_inverse_3_8.txt'
p222
aS'handling/vecteurs_3_8.txt'
p223
aS'handling/passe_haut_3_9.txt'
p224
aS'handling/hann_3_9.txt'
p225
aS'handling/fft_3_9.txt'
p226
aS'handling/mel_3_9.txt'
p227
aS'handling/mel_tab_3_9.txt'
p228
aS'handling/fft_inverse_3_9.txt'
p229
aS'handling/vecteurs_3_9.txt'
p230
aS'handling/passe_haut_3_10.txt'
p231
aS'handling/hann_3_10.txt'
p232
aS'handling/fft_3_10.txt'
p233
aS'handling/mel_3_10.txt'
p234
aS'handling/mel_tab_3_10.txt'
p235
aS'handling/fft_inverse_3_10.txt'
p236
aS'handling/vecteurs_3_10.txt'
p237
aS'handling/passe_haut_3_11.txt'
p238
aS'handling/hann_3_11.txt'
p239
aS'handling/fft_3_11.txt'
p240
aS'handling/mel_3_11.txt'
p241
aS'handling/mel_tab_3_11.txt'
p242
aS'handling/fft_inverse_3_11.txt'
p243
aS'handling/vecteurs_3_11.txt'
p244
aS'vide/vide.wav'
p245
aS'handling/passe_haut_5_0.txt'
p246
aS'handling/hann_5_0.txt'
p247
aS'handling/fft_5_0.txt'
p248
aS'handling/mel_5_0.txt'
p249
aS'handling/mel_tab_5_0.txt'
p250
aS'handling/fft_inverse_5_0.txt'
p251
aS'handling/vecteurs_5_0.txt'
p252
aS'tmp/aa828294b7a11acd2d1a308c2f89bc07923453e6f012bb455de1ad61.wav'
p253
aS'handling/passe_haut_4_1.txt'
p254
aS'handling/hann_4_1.txt'
p255
aS'handling/fft_4_1.txt'
p256
aS'handling/mel_4_1.txt'
p257
aS'handling/mel_tab_4_1.txt'
p258
aS'handling/fft_inverse_4_1.txt'
p259
aS'handling/vecteurs_4_1.txt'
p260
aS'handling/passe_haut_4_2.txt'
p261
aS'handling/hann_4_2.txt'
p262
aS'handling/fft_4_2.txt'
p263
aS'handling/mel_4_2.txt'
p264
aS'handling/mel_tab_4_2.txt'
p265
aS'handling/fft_inverse_4_2.txt'
p266
aS'handling/vecteurs_4_2.txt'
p267
aS'handling/passe_haut_4_3.txt'
p268
aS'handling/hann_4_3.txt'
p269
aS'handling/fft_4_3.txt'
p270
aS'handling/mel_4_3.txt'
p271
aS'handling/mel_tab_4_3.txt'
p272
aS'handling/fft_inverse_4_3.txt'
p273
aS'handling/vecteurs_4_3.txt'
p274
aS'handling/passe_haut_4_4.txt'
p275
aS'handling/hann_4_4.txt'
p276
aS'handling/fft_4_4.txt'
p277
aS'handling/mel_4_4.txt'
p278
aS'handling/mel_tab_4_4.txt'
p279
aS'handling/fft_inverse_4_4.txt'
p280
aS'handling/vecteurs_4_4.txt'
p281
aS'handling/passe_haut_4_5.txt'
p282
aS'handling/hann_4_5.txt'
p283
aS'handling/fft_4_5.txt'
p284
aS'handling/mel_4_5.txt'
p285
aS'handling/mel_tab_4_5.txt'
p286
aS'handling/fft_inverse_4_5.txt'
p287
aS'handling/vecteurs_4_5.txt'
p288
aS'handling/passe_haut_4_6.txt'
p289
aS'handling/hann_4_6.txt'
p290
aS'handling/fft_4_6.txt'
p291
aS'handling/mel_4_6.txt'
p292
aS'handling/mel_tab_4_6.txt'
p293
aS'handling/fft_inverse_4_6.txt'
p294
aS'handling/vecteurs_4_6.txt'
p295
aS'handling/passe_haut_4_7.txt'
p296
aS'handling/hann_4_7.txt'
p297
aS'handling/fft_4_7.txt'
p298
aS'handling/mel_4_7.txt'
p299
aS'handling/mel_tab_4_7.txt'
p300
aS'handling/fft_inverse_4_7.txt'
p301
aS'handling/vecteurs_4_7.txt'
p302
aS'handling/passe_haut_4_8.txt'
p303
aS'handling/hann_4_8.txt'
p304
aS'handling/fft_4_8.txt'
p305
aS'handling/mel_4_8.txt'
p306
aS'handling/mel_tab_4_8.txt'
p307
aS'handling/fft_inverse_4_8.txt'
p308
aS'handling/vecteurs_4_8.txt'
p309
aS'handling/passe_haut_4_9.txt'
p310
aS'handling/hann_4_9.txt'
p311
aS'handling/fft_4_9.txt'
p312
aS'handling/mel_4_9.txt'
p313
aS'handling/mel_tab_4_9.txt'
p314
aS'handling/fft_inverse_4_9.txt'
p315
aS'handling/vecteurs_4_9.txt'
p316
aS'handling/passe_haut_4_10.txt'
p317
aS'handling/hann_4_10.txt'
p318
aS'handling/fft_4_10.txt'
p319
aS'handling/mel_4_10.txt'
p320
aS'handling/mel_tab_4_10.txt'
p321
aS'handling/fft_inverse_4_10.txt'
p322
aS'handling/vecteurs_4_10.txt'
p323
aS'handling/passe_haut_4_11.txt'
p324
aS'handling/hann_4_11.txt'
p325
aS'handling/fft_4_11.txt'
p326
aS'handling/mel_4_11.txt'
p327
aS'handling/mel_tab_4_11.txt'
p328
aS'handling/fft_inverse_4_11.txt'
p329
aS'handling/vecteurs_4_11.txt'
p330
aS'handling/vecteurs_1_0.txt'
p331
aS'handling/passe_haut_1_1.txt'
p332
aS'handling/hann_1_1.txt'
p333
aS'handling/fft_1_1.txt'
p334
aS'handling/mel_1_1.txt'
p335
aS'handling/mel_tab_1_1.txt'
p336
aS'handling/fft_inverse_1_1.txt'
p337
aS'handling/vecteurs_1_1.txt'
p338
aS'handling/passe_haut_1_2.txt'
p339
aS'handling/hann_1_2.txt'
p340
aS'handling/fft_1_2.txt'
p341
aS'handling/mel_1_2.txt'
p342
aS'handling/mel_tab_1_2.txt'
p343
aS'handling/fft_inverse_1_2.txt'
p344
aS'handling/vecteurs_1_2.txt'
p345
aS'handling/passe_haut_1_3.txt'
p346
aS'handling/hann_1_3.txt'
p347
aS'handling/fft_1_3.txt'
p348
aS'handling/mel_1_3.txt'
p349
aS'handling/mel_tab_1_3.txt'
p350
aS'handling/fft_inverse_1_3.txt'
p351
aS'handling/vecteurs_1_3.txt'
p352
aS'handling/passe_haut_1_4.txt'
p353
aS'handling/hann_1_4.txt'
p354
aS'handling/fft_1_4.txt'
p355
aS'handling/mel_1_4.txt'
p356
aS'handling/mel_tab_1_4.txt'
p357
aS'handling/fft_inverse_1_4.txt'
p358
aS'handling/vecteurs_1_4.txt'
p359
aS'handling/passe_haut_1_5.txt'
p360
aS'handling/hann_1_5.txt'
p361
aS'handling/fft_1_5.txt'
p362
aS'handling/mel_1_5.txt'
p363
aS'handling/mel_tab_1_5.txt'
p364
aS'handling/fft_inverse_1_5.txt'
p365
aS'handling/vecteurs_1_5.txt'
p366
aS'handling/passe_haut_1_6.txt'
p367
aS'handling/hann_1_6.txt'
p368
aS'handling/fft_1_6.txt'
p369
aS'handling/mel_1_6.txt'
p370
aS'handling/mel_tab_1_6.txt'
p371
aS'handling/fft_inverse_1_6.txt'
p372
aS'handling/vecteurs_1_6.txt'
p373
aS'handling/passe_haut_1_7.txt'
p374
aS'handling/hann_1_7.txt'
p375
aS'handling/fft_1_7.txt'
p376
aS'handling/mel_1_7.txt'
p377
aS'handling/mel_tab_1_7.txt'
p378
aS'handling/fft_inverse_1_7.txt'
p379
aS'handling/vecteurs_1_7.txt'
p380
aS'handling/passe_haut_1_8.txt'
p381
aS'handling/hann_1_8.txt'
p382
aS'handling/fft_1_8.txt'
p383
aS'handling/mel_1_8.txt'
p384
aS'handling/mel_tab_1_8.txt'
p385
aS'handling/fft_inverse_1_8.txt'
p386
aS'handling/vecteurs_1_8.txt'
p387
aS'handling/passe_haut_1_9.txt'
p388
aS'handling/hann_1_9.txt'
p389
aS'handling/fft_1_9.txt'
p390
aS'handling/mel_1_9.txt'
p391
aS'handling/mel_tab_1_9.txt'
p392
aS'handling/fft_inverse_1_9.txt'
p393
aS'handling/vecteurs_1_9.txt'
p394
aS'handling/passe_haut_1_10.txt'
p395
aS'handling/hann_1_10.txt'
p396
aS'handling/fft_1_10.txt'
p397
aS'handling/mel_1_10.txt'
p398
aS'handling/mel_tab_1_10.txt'
p399
aS'handling/fft_inverse_1_10.txt'
p400
aS'handling/vecteurs_1_10.txt'
p401
aS'handling/passe_haut_1_11.txt'
p402
aS'handling/hann_1_11.txt'
p403
aS'handling/fft_1_11.txt'
p404
aS'handling/mel_1_11.txt'
p405
aS'handling/mel_tab_1_11.txt'
p406
aS'handling/fft_inverse_1_11.txt'
p407
aS'handling/vecteurs_1_11.txt'
p408
aS'handling/vecteurs_0_0.txt'
p409
aS'handling/passe_haut_0_1.txt'
p410
aS'handling/hann_0_1.txt'
p411
aS'handling/fft_0_1.txt'
p412
aS'handling/mel_0_1.txt'
p413
aS'handling/mel_tab_0_1.txt'
p414
aS'handling/fft_inverse_0_1.txt'
p415
aS'handling/vecteurs_0_1.txt'
p416
aS'handling/passe_haut_0_2.txt'
p417
aS'handling/hann_0_2.txt'
p418
aS'handling/fft_0_2.txt'
p419
aS'handling/mel_0_2.txt'
p420
aS'handling/mel_tab_0_2.txt'
p421
aS'handling/fft_inverse_0_2.txt'
p422
aS'handling/vecteurs_0_2.txt'
p423
aS'handling/passe_haut_0_3.txt'
p424
aS'handling/hann_0_3.txt'
p425
aS'handling/fft_0_3.txt'
p426
aS'handling/mel_0_3.txt'
p427
aS'handling/mel_tab_0_3.txt'
p428
aS'handling/fft_inverse_0_3.txt'
p429
aS'handling/vecteurs_0_3.txt'
p430
aS'handling/passe_haut_0_4.txt'
p431
aS'handling/hann_0_4.txt'
p432
aS'handling/fft_0_4.txt'
p433
aS'handling/mel_0_4.txt'
p434
aS'handling/mel_tab_0_4.txt'
p435
aS'handling/fft_inverse_0_4.txt'
p436
aS'handling/vecteurs_0_4.txt'
p437
aS'handling/passe_haut_0_5.txt'
p438
aS'handling/hann_0_5.txt'
p439
aS'handling/fft_0_5.txt'
p440
aS'handling/mel_0_5.txt'
p441
aS'handling/mel_tab_0_5.txt'
p442
aS'handling/fft_inverse_0_5.txt'
p443
aS'handling/vecteurs_0_5.txt'
p444
aS'handling/passe_haut_0_6.txt'
p445
aS'handling/hann_0_6.txt'
p446
aS'handling/fft_0_6.txt'
p447
aS'handling/mel_0_6.txt'
p448
aS'handling/mel_tab_0_6.txt'
p449
aS'handling/fft_inverse_0_6.txt'
p450
aS'handling/vecteurs_0_6.txt'
p451
aS'handling/passe_haut_0_7.txt'
p452
aS'handling/hann_0_7.txt'
p453
aS'handling/fft_0_7.txt'
p454
aS'handling/mel_0_7.txt'
p455
aS'handling/mel_tab_0_7.txt'
p456
aS'handling/fft_inverse_0_7.txt'
p457
aS'handling/vecteurs_0_7.txt'
p458
aS'handling/passe_haut_0_8.txt'
p459
aS'handling/hann_0_8.txt'
p460
aS'handling/fft_0_8.txt'
p461
aS'handling/mel_0_8.txt'
p462
aS'handling/mel_tab_0_8.txt'
p463
aS'handling/fft_inverse_0_8.txt'
p464
aS'handling/vecteurs_0_8.txt'
p465
aS'handling/passe_haut_0_9.txt'
p466
aS'handling/hann_0_9.txt'
p467
aS'handling/fft_0_9.txt'
p468
aS'handling/mel_0_9.txt'
p469
aS'handling/mel_tab_0_9.txt'
p470
aS'handling/fft_inverse_0_9.txt'
p471
aS'handling/vecteurs_0_9.txt'
p472
aS'handling/passe_haut_0_10.txt'
p473
aS'handling/hann_0_10.txt'
p474
aS'handling/fft_0_10.txt'
p475
aS'handling/mel_0_10.txt'
p476
aS'handling/mel_tab_0_10.txt'
p477
aS'handling/fft_inverse_0_10.txt'
p478
aS'handling/vecteurs_0_10.txt'
p479
aS'tmp/10c627f6bfd998852b3a1663ded750b72fd29fb18dc4353097fe77c4.wav'
p480
aS'tmp/25b61ba4a41099132cc7dd3e9c278856a9bec17af41b0dda616a9720.wav'
p481
aS'tmp/0935755353d237d6554d1eaa531d0f5de17dc93fcb24d7f4918e61d4.wav'
p482
aS'tmp/9e66b667dc75d4096265ee5c45c150922c0dccb14619f00266466c34.wav'
p483
aS'tmp/ca563f06b7450944b96517de651b8ea900687256f8d71be27529b040.wav'
p484
aS'tmp/ed51530cb2af7775d9a621b2012a91ccf78fb92dba65e1f3a45b9b27.wav'
p485
aS'handling/passe_haut_ed51530cb2af7775d9a621b2012a91ccf78fb92dba65e1f3a45b9b27_0.txt'
p486
aS'handling/hann_ed51530cb2af7775d9a621b2012a91ccf78fb92dba65e1f3a45b9b27_0.txt'
p487
aS'handling/fft_ed51530cb2af7775d9a621b2012a91ccf78fb92dba65e1f3a45b9b27_0.txt'
p488
aS'handling/mel_ed51530cb2af7775d9a621b2012a91ccf78fb92dba65e1f3a45b9b27_0.txt'
p489
aS'handling/fft_inverse_ed51530cb2af7775d9a621b2012a91ccf78fb92dba65e1f3a45b9b27_0.txt'
p490
aS'handling/vecteurs_ed51530cb2af7775d9a621b2012a91ccf78fb92dba65e1f3a45b9b27_0.txt'
p491
a.