(lp0
S'test.txt'
p1
aS'bob/0.wav'
p2
aS'cheval/0.wav'
p3
aS'cheval/1.wav'
p4
aS'cheval/2.wav'
p5
aS'cheval/3.wav'
p6
aS'cheval/4.wav'
p7
aS'caca/0.wav'
p8
aS'caca/1.wav'
p9
aS'caca/2.wav'
p10
aS'un/0.wav'
p11
aS'un/1.wav'
p12
aS'un/2.wav'
p13
aS'un/3.wav'
p14
aS'un/4.wav'
p15
aS'un/5.wav'
p16
aS'un/6.wav'
p17
aS'un/7.wav'
p18
aS'un/8.wav'
p19
aS'un/9.wav'
p20
aS'deux/0.wav'
p21
aS'deux/1.wav'
p22
aS'deux/2.wav'
p23
aS'deux/3.wav'
p24
aS'deux/4.wav'
p25
aS'deux/5.wav'
p26
aS'deux/6.wav'
p27
aS'deux/7.wav'
p28
aS'deux/8.wav'
p29
aS'deux/9.wav'
p30
aS'trois/0.wav'
p31
aS'trois/1.wav'
p32
aS'trois/2.wav'
p33
aS'trois/3.wav'
p34
aS'trois/4.wav'
p35
aS'trois/5.wav'
p36
aS'trois/6.wav'
p37
aS'trois/7.wav'
p38
aS'trois/8.wav'
p39
aS'trois/9.wav'
p40
aS'quatre/0.wav'
p41
aS'quatre/1.wav'
p42
aS'quatre/2.wav'
p43
aS'quatre/3.wav'
p44
aS'quatre/4.wav'
p45
aS'quatre/5.wav'
p46
aS'quatre/6.wav'
p47
aS'quatre/7.wav'
p48
aS'quatre/8.wav'
p49
aS'quatre/9.wav'
p50
aS'quatre/10.wav'
p51
aS'quatre/11.wav'
p52
aS'cinq/0.wav'
p53
aS'cinq/1.wav'
p54
aS'cinq/2.wav'
p55
aS'cinq/3.wav'
p56
aS'cinq/4.wav'
p57
aS'cinq/5.wav'
p58
aS'cinq/6.wav'
p59
aS'cinq/7.wav'
p60
aS'cinq/8.wav'
p61
aS'cinq/9.wav'
p62
aS'cinq/10.wav'
p63
aS'cinq/11.wav'
p64
aS'un/10.wav'
p65
aS'un/11.wav'
p66
aS'deux/10.wav'
p67
aS'deux/11.wav'
p68
aS'trois/10.wav'
p69
aS'trois/11.wav'
p70
aS'handling/passe_haut_0.txt'
p71
aS'handling/hann_0.txt'
p72
aS'handling/fft_0.txt'
p73
aS'handling/mel_88.txt'
p74
aS'handling/mel_tab_88.txt'
p75
aS'handling/fft_inverse_88.txt'
p76
aS'handling/fft_88.txt'
p77
aS'handling/mel_0.txt'
p78
aS'handling/mel_tab_0.txt'
p79
aS'handling/fft_inverse_0.txt'
p80
aS'mod/cinq/0.wav'
p81
aS'mod/cinq/1.wav'
p82
aS'mod/cinq/2.wav'
p83
aS'mod/cinq/3.wav'
p84
aS'mod/cinq/4.wav'
p85
aS'mod/cinq/5.wav'
p86
aS'mod/cinq/6.wav'
p87
aS'mod/cinq/7.wav'
p88
aS'mod/cinq/8.wav'
p89
aS'mod/cinq/9.wav'
p90
aS'mod/cinq/10.wav'
p91
aS'mod/deux/0.wav'
p92
aS'mod/deux/1.wav'
p93
aS'mod/deux/2.wav'
p94
aS'mod/deux/3.wav'
p95
aS'mod/deux/4.wav'
p96
aS'mod/deux/5.wav'
p97
aS'mod/deux/6.wav'
p98
aS'mod/deux/7.wav'
p99
aS'mod/deux/8.wav'
p100
aS'mod/deux/9.wav'
p101
aS'mod/deux/10.wav'
p102
aS'mod/deux/11.wav'
p103
aS'mod/quatre/0.wav'
p104
aS'mod/quatre/1.wav'
p105
aS'mod/quatre/2.wav'
p106
aS'mod/quatre/3.wav'
p107
aS'mod/quatre/4.wav'
p108
aS'mod/quatre/5.wav'
p109
aS'mod/quatre/6.wav'
p110
aS'mod/quatre/7.wav'
p111
aS'mod/quatre/8.wav'
p112
aS'mod/quatre/9.wav'
p113
aS'mod/quatre/10.wav'
p114
aS'mod/quatre/11.wav'
p115
aS'mod/trois/0.wav'
p116
aS'mod/trois/1.wav'
p117
aS'mod/trois/2.wav'
p118
aS'mod/trois/3.wav'
p119
aS'mod/trois/4.wav'
p120
aS'mod/trois/5.wav'
p121
aS'mod/trois/6.wav'
p122
aS'mod/trois/7.wav'
p123
aS'mod/trois/8.wav'
p124
aS'mod/trois/9.wav'
p125
aS'mod/trois/10.wav'
p126
aS'mod/trois/11.wav'
p127
aS'mod/un/0.wav'
p128
aS'mod/un/1.wav'
p129
aS'mod/un/2.wav'
p130
aS'mod/un/3.wav'
p131
aS'mod/un/4.wav'
p132
aS'mod/un/5.wav'
p133
aS'mod/un/6.wav'
p134
aS'mod/un/7.wav'
p135
aS'mod/un/8.wav'
p136
aS'mod/un/9.wav'
p137
aS'mod/un/10.wav'
p138
aS'mod/un/11.wav'
p139
aS'handling/passe_haut_0_0.txt'
p140
aS'handling/hann_0_0.txt'
p141
aS'handling/fft_0_0.txt'
p142
aS'handling/mel_0_0.txt'
p143
aS'handling/mel_tab_0_0.txt'
p144
aS'handling/fft_inverse_0_0.txt'
p145
aS'handling/passe_haut_1_0.txt'
p146
aS'handling/hann_1_0.txt'
p147
aS'handling/fft_1_0.txt'
p148
aS'handling/passe_haut_2_0.txt'
p149
aS'handling/hann_2_0.txt'
p150
aS'handling/fft_2_0.txt'
p151
aS'handling/mel_1_0.txt'
p152
aS'handling/mel_tab_1_0.txt'
p153
aS'handling/fft_inverse_1_0.txt'
p154
aS'handling/passe_haut_3_0.txt'
p155
aS'handling/hann_3_0.txt'
p156
aS'handling/fft_3_0.txt'
p157
aS'handling/mel_3_0.txt'
p158
aS'handling/mel_tab_3_0.txt'
p159
aS'handling/fft_inverse_3_0.txt'
p160
aS'handling/passe_haut_4_0.txt'
p161
aS'handling/hann_4_0.txt'
p162
aS'handling/fft_4_0.txt'
p163
aS'handling/mel_4_0.txt'
p164
aS'handling/mel_tab_4_0.txt'
p165
aS'handling/fft_inverse_4_0.txt'
p166
aS'handling/vecteurs_4_0.txt'
p167
aS'handling/vecteurs_3_0.txt'
p168
aS'handling/passe_haut_3_1.txt'
p169
aS'handling/hann_3_1.txt'
p170
aS'handling/fft_3_1.txt'
p171
aS'handling/mel_3_1.txt'
p172
aS'handling/mel_tab_3_1.txt'
p173
aS'handling/fft_inverse_3_1.txt'
p174
aS'handling/vecteurs_3_1.txt'
p175
aS'handling/passe_haut_3_2.txt'
p176
aS'handling/hann_3_2.txt'
p177
aS'handling/fft_3_2.txt'
p178
aS'handling/mel_3_2.txt'
p179
aS'handling/mel_tab_3_2.txt'
p180
aS'handling/fft_inverse_3_2.txt'
p181
aS'handling/vecteurs_3_2.txt'
p182
aS'handling/passe_haut_3_3.txt'
p183
aS'handling/hann_3_3.txt'
p184
aS'handling/fft_3_3.txt'
p185
aS'handling/mel_3_3.txt'
p186
aS'handling/mel_tab_3_3.txt'
p187
aS'handling/fft_inverse_3_3.txt'
p188
aS'handling/vecteurs_3_3.txt'
p189
aS'handling/passe_haut_3_4.txt'
p190
aS'handling/hann_3_4.txt'
p191
aS'handling/fft_3_4.txt'
p192
aS'handling/mel_3_4.txt'
p193
aS'handling/mel_tab_3_4.txt'
p194
aS'handling/fft_inverse_3_4.txt'
p195
aS'handling/vecteurs_3_4.txt'
p196
aS'handling/passe_haut_3_5.txt'
p197
aS'handling/hann_3_5.txt'
p198
aS'handling/fft_3_5.txt'
p199
aS'handling/mel_3_5.txt'
p200
aS'handling/mel_tab_3_5.txt'
p201
aS'handling/fft_inverse_3_5.txt'
p202
aS'handling/vecteurs_3_5.txt'
p203
aS'handling/passe_haut_3_6.txt'
p204
aS'handling/hann_3_6.txt'
p205
aS'handling/fft_3_6.txt'
p206
aS'handling/mel_3_6.txt'
p207
aS'handling/mel_tab_3_6.txt'
p208
aS'handling/fft_inverse_3_6.txt'
p209
aS'handling/vecteurs_3_6.txt'
p210
aS'handling/passe_haut_3_7.txt'
p211
aS'handling/hann_3_7.txt'
p212
aS'handling/fft_3_7.txt'
p213
aS'handling/mel_3_7.txt'
p214
aS'handling/mel_tab_3_7.txt'
p215
aS'handling/fft_inverse_3_7.txt'
p216
aS'handling/vecteurs_3_7.txt'
p217
aS'handling/passe_haut_3_8.txt'
p218
aS'handling/hann_3_8.txt'
p219
aS'handling/fft_3_8.txt'
p220
aS'handling/mel_3_8.txt'
p221
aS'handling/mel_tab_3_8.txt'
p222
aS'handling/fft_inverse_3_8.txt'
p223
aS'handling/vecteurs_3_8.txt'
p224
aS'handling/passe_haut_3_9.txt'
p225
aS'handling/hann_3_9.txt'
p226
aS'handling/fft_3_9.txt'
p227
aS'handling/mel_3_9.txt'
p228
aS'handling/mel_tab_3_9.txt'
p229
aS'handling/fft_inverse_3_9.txt'
p230
aS'handling/vecteurs_3_9.txt'
p231
aS'handling/passe_haut_3_10.txt'
p232
aS'handling/hann_3_10.txt'
p233
aS'handling/fft_3_10.txt'
p234
aS'handling/mel_3_10.txt'
p235
aS'handling/mel_tab_3_10.txt'
p236
aS'handling/fft_inverse_3_10.txt'
p237
aS'handling/vecteurs_3_10.txt'
p238
aS'handling/passe_haut_3_11.txt'
p239
aS'handling/hann_3_11.txt'
p240
aS'handling/fft_3_11.txt'
p241
aS'handling/mel_3_11.txt'
p242
aS'handling/mel_tab_3_11.txt'
p243
aS'handling/fft_inverse_3_11.txt'
p244
aS'handling/vecteurs_3_11.txt'
p245
aS'vide/vide.wav'
p246
aS'handling/passe_haut_5_0.txt'
p247
aS'handling/hann_5_0.txt'
p248
aS'handling/fft_5_0.txt'
p249
aS'handling/mel_5_0.txt'
p250
aS'handling/mel_tab_5_0.txt'
p251
aS'handling/fft_inverse_5_0.txt'
p252
aS'handling/vecteurs_5_0.txt'
p253
a.