(lp0
S'../../db/filesList.txt'
p1
aS'handling/fft_Adrien_0.txt'
p2
aS'handling/fft_Adrien_1.txt'
p3
aS'handling/fft_Adrien_2.txt'
p4
aS'handling/fft_Adrien_3.txt'
p5
aS'handling/fft_Adrien_4.txt'
p6
aS'handling/fft_Adrien_5.txt'
p7
aS'handling/fft_Adrien_6.txt'
p8
aS'handling/fft_Adrien_7.txt'
p9
aS'handling/fft_Adrien_8.txt'
p10
aS'handling/fft_Adrien_9.txt'
p11
aS'handling/fft_cinqbis_0.txt'
p12
aS'handling/fft_cinqbis_1.txt'
p13
aS'handling/fft_cinqbis_10.txt'
p14
aS'handling/fft_cinqbis_2.txt'
p15
aS'handling/fft_cinqbis_3.txt'
p16
aS'handling/fft_cinqbis_4.txt'
p17
aS'handling/fft_cinqbis_5.txt'
p18
aS'handling/fft_cinqbis_6.txt'
p19
aS'handling/fft_cinqbis_7.txt'
p20
aS'handling/fft_cinqbis_8.txt'
p21
aS'handling/fft_cinqbis_9.txt'
p22
aS'handling/fft_cinq_0.txt'
p23
aS'handling/fft_cinq_1.txt'
p24
aS'handling/fft_cinq_10.txt'
p25
aS'handling/fft_cinq_2.txt'
p26
aS'handling/fft_cinq_3.txt'
p27
aS'handling/fft_cinq_4.txt'
p28
aS'handling/hann_cinq_6.txt'
p29
aS'handling/hann_cinq_7.txt'
p30
aS'handling/hann_cinq_8.txt'
p31
aS'handling/hann_cinq_9.txt'
p32
aS'handling/hann_deux_best_0.txt'
p33
aS'handling/hann_deux_best_1.txt'
p34
aS'handling/hann_deux_best_10.txt'
p35
aS'handling/hann_deux_best_11.txt'
p36
aS'handling/hann_deux_best_2.txt'
p37
aS'handling/hann_deux_best_3.txt'
p38
aS'handling/hann_deux_best_4.txt'
p39
aS'handling/hann_deux_best_5.txt'
p40
aS'handling/hann_deux_best_6.txt'
p41
aS'handling/hann_deux_best_7.txt'
p42
aS'handling/hann_deux_best_8.txt'
p43
aS'handling/hann_deux_best_9.txt'
p44
aS'handling/hann_Julien_0.txt'
p45
aS'handling/hann_Julien_1.txt'
p46
aS'handling/hann_Julien_2.txt'
p47
aS'handling/passe_haut_cinq_3.txt'
p48
aS'handling/passe_haut_cinq_4.txt'
p49
aS'handling/passe_haut_cinq_5.txt'
p50
aS'handling/passe_haut_cinq_6.txt'
p51
aS'handling/passe_haut_cinq_7.txt'
p52
aS'handling/passe_haut_cinq_8.txt'
p53
aS'handling/passe_haut_cinq_9.txt'
p54
aS'handling/passe_haut_deux_best_0.txt'
p55
aS'handling/passe_haut_deux_best_1.txt'
p56
aS'handling/passe_haut_deux_best_10.txt'
p57
aS'handling/passe_haut_deux_best_11.txt'
p58
aS'handling/passe_haut_deux_best_2.txt'
p59
aS'handling/passe_haut_deux_best_3.txt'
p60
aS'handling/passe_haut_deux_best_4.txt'
p61
aS'handling/passe_haut_deux_best_5.txt'
p62
aS'handling/passe_haut_deux_best_6.txt'
p63
aS'handling/fft_inverse_cinq_2.txt'
p64
aS'handling/fft_inverse_cinq_3.txt'
p65
aS'handling/fft_inverse_cinq_4.txt'
p66
aS'handling/fft_inverse_cinq_5.txt'
p67
aS'handling/fft_inverse_cinq_6.txt'
p68
aS'handling/fft_inverse_cinq_7.txt'
p69
aS'handling/fft_inverse_cinq_8.txt'
p70
aS'handling/fft_inverse_cinq_9.txt'
p71
aS'handling/fft_inverse_deux_best_0.txt'
p72
aS'handling/fft_inverse_deux_best_1.txt'
p73
aS'handling/fft_inverse_deux_best_10.txt'
p74
aS'handling/fft_inverse_deux_best_11.txt'
p75
aS'handling/fft_inverse_deux_best_2.txt'
p76
aS'handling/fft_inverse_deux_best_3.txt'
p77
aS'handling/fft_inverse_deux_best_4.txt'
p78
aS'handling/fft_cinq_5.txt'
p79
aS'handling/fft_deux_best_9.txt'
p80
aS'handling/fft_inverse_cinq_10.txt'
p81
aS'handling/fft_inverse_deux_best_5.txt'
p82
aS'handling/fft_inverse_trois_best_6.txt'
p83
aS'handling/fft_trois_best_1.txt'
p84
aS'handling/hann_Adrien_0.txt'
p85
aS'handling/hann_cinq_5.txt'
p86
aS'handling/hann_Julien_3.txt'
p87
aS'handling/mel_Adrien_3.txt'
p88
aS'handling/mel_cinq_4.txt'
p89
aS'handling/mel_Julien_2.txt'
p90
aS'handling/passe_haut_Adrien_1.txt'
p91
aS'handling/passe_haut_cinq_2.txt'
p92
aS'handling/passe_haut_deux_best_7.txt'
p93
aS'handling/passe_haut_trois_best_5.txt'
p94
aS'handling/vecteurs_Adrien_7.txt'
p95
aS'handling/vecteurs_deux_best_10.txt'
p96
aS'handling/vecteurs_trois_best_0.txt'
p97
aS'handling/mel_cinq_5.txt'
p98
aS'handling/mel_cinq_6.txt'
p99
aS'handling/mel_cinq_7.txt'
p100
aS'handling/mel_cinq_8.txt'
p101
aS'handling/mel_cinq_9.txt'
p102
aS'handling/mel_deux_best_0.txt'
p103
aS'handling/mel_deux_best_1.txt'
p104
aS'handling/mel_deux_best_10.txt'
p105
aS'handling/mel_deux_best_11.txt'
p106
aS'handling/mel_deux_best_2.txt'
p107
aS'handling/mel_deux_best_3.txt'
p108
aS'handling/mel_deux_best_4.txt'
p109
aS'handling/mel_deux_best_5.txt'
p110
aS'handling/mel_deux_best_6.txt'
p111
aS'handling/mel_deux_best_7.txt'
p112
aS'handling/mel_deux_best_8.txt'
p113
aS'handling/mel_deux_best_9.txt'
p114
aS'handling/mel_Julien_0.txt'
p115
aS'handling/mel_Julien_1.txt'
p116
aS'handling/fft_cinq_6.txt'
p117
aS'handling/fft_cinq_7.txt'
p118
aS'handling/fft_cinq_8.txt'
p119
aS'handling/fft_cinq_9.txt'
p120
aS'handling/fft_deux_best_0.txt'
p121
aS'handling/fft_deux_best_1.txt'
p122
aS'handling/fft_deux_best_10.txt'
p123
aS'handling/fft_deux_best_11.txt'
p124
aS'handling/fft_deux_best_2.txt'
p125
aS'handling/fft_deux_best_3.txt'
p126
aS'handling/fft_deux_best_4.txt'
p127
aS'handling/fft_deux_best_5.txt'
p128
aS'handling/fft_deux_best_6.txt'
p129
aS'handling/fft_deux_best_7.txt'
p130
aS'handling/fft_deux_best_8.txt'
p131
aS'handling/vecteurs_Adrien_8.txt'
p132
aS'handling/vecteurs_Adrien_9.txt'
p133
aS'handling/vecteurs_cinqbis_0.txt'
p134
aS'handling/vecteurs_cinqbis_1.txt'
p135
aS'handling/vecteurs_cinqbis_10.txt'
p136
aS'handling/vecteurs_cinqbis_2.txt'
p137
aS'handling/vecteurs_cinqbis_3.txt'
p138
aS'handling/vecteurs_cinqbis_4.txt'
p139
aS'handling/vecteurs_cinqbis_5.txt'
p140
aS'handling/vecteurs_cinqbis_6.txt'
p141
aS'handling/vecteurs_cinqbis_7.txt'
p142
aS'handling/vecteurs_cinqbis_8.txt'
p143
aS'handling/vecteurs_cinqbis_9.txt'
p144
aS'handling/vecteurs_cinq_0.txt'
p145
aS'handling/vecteurs_cinq_1.txt'
p146
aS'handling/vecteurs_cinq_10.txt'
p147
aS'handling/vecteurs_cinq_2.txt'
p148
aS'handling/vecteurs_cinq_3.txt'
p149
aS'handling/vecteurs_cinq_4.txt'
p150
aS'handling/vecteurs_cinq_5.txt'
p151
aS'handling/vecteurs_cinq_6.txt'
p152
aS'handling/vecteurs_cinq_7.txt'
p153
aS'handling/vecteurs_cinq_8.txt'
p154
aS'handling/vecteurs_cinq_9.txt'
p155
aS'handling/vecteurs_deux_best_0.txt'
p156
aS'handling/vecteurs_deux_best_1.txt'
p157
aS'handling/hann_Adrien_1.txt'
p158
aS'handling/hann_Adrien_2.txt'
p159
aS'handling/hann_Adrien_3.txt'
p160
aS'handling/hann_Adrien_4.txt'
p161
aS'handling/hann_Adrien_5.txt'
p162
aS'handling/hann_Adrien_6.txt'
p163
aS'handling/hann_Adrien_7.txt'
p164
aS'handling/hann_Adrien_8.txt'
p165
aS'handling/hann_Adrien_9.txt'
p166
aS'handling/hann_cinqbis_0.txt'
p167
aS'handling/hann_cinqbis_1.txt'
p168
aS'handling/hann_cinqbis_10.txt'
p169
aS'handling/hann_cinqbis_2.txt'
p170
aS'handling/hann_cinqbis_3.txt'
p171
aS'handling/hann_cinqbis_4.txt'
p172
aS'handling/hann_cinqbis_5.txt'
p173
aS'handling/hann_cinqbis_6.txt'
p174
aS'handling/hann_cinqbis_7.txt'
p175
aS'handling/hann_cinqbis_8.txt'
p176
aS'handling/hann_cinqbis_9.txt'
p177
aS'handling/hann_cinq_0.txt'
p178
aS'handling/hann_cinq_1.txt'
p179
aS'handling/hann_cinq_10.txt'
p180
aS'handling/hann_cinq_2.txt'
p181
aS'handling/hann_cinq_3.txt'
p182
aS'handling/hann_cinq_4.txt'
p183
aS'handling/hann_Julien_4.txt'
p184
aS'handling/hann_test_0.txt'
p185
aS'handling/hann_trois_best_0.txt'
p186
aS'handling/hann_trois_best_1.txt'
p187
aS'handling/hann_trois_best_10.txt'
p188
aS'handling/hann_trois_best_11.txt'
p189
aS'handling/hann_trois_best_2.txt'
p190
aS'handling/hann_trois_best_3.txt'
p191
aS'handling/hann_trois_best_4.txt'
p192
aS'handling/hann_trois_best_5.txt'
p193
aS'handling/hann_trois_best_6.txt'
p194
aS'handling/hann_trois_best_7.txt'
p195
aS'handling/hann_trois_best_8.txt'
p196
aS'handling/hann_trois_best_9.txt'
p197
aS'handling/hann_un_best_0.txt'
p198
aS'handling/hann_un_best_1.txt'
p199
aS'handling/hann_un_best_10.txt'
p200
aS'handling/hann_un_best_11.txt'
p201
aS'handling/hann_un_best_2.txt'
p202
aS'handling/hann_un_best_3.txt'
p203
aS'handling/hann_un_best_4.txt'
p204
aS'handling/hann_un_best_5.txt'
p205
aS'handling/hann_un_best_6.txt'
p206
aS'handling/hann_un_best_7.txt'
p207
aS'handling/hann_un_best_8.txt'
p208
aS'handling/hann_un_best_9.txt'
p209
aS'handling/mel_Adrien_0.txt'
p210
aS'handling/mel_Adrien_1.txt'
p211
aS'handling/mel_Adrien_2.txt'
p212
aS'handling/mel_Julien_3.txt'
p213
aS'handling/mel_Julien_4.txt'
p214
aS'handling/mel_test_0.txt'
p215
aS'handling/mel_trois_best_0.txt'
p216
aS'handling/mel_trois_best_1.txt'
p217
aS'handling/mel_trois_best_10.txt'
p218
aS'handling/mel_trois_best_11.txt'
p219
aS'handling/mel_trois_best_2.txt'
p220
aS'handling/mel_trois_best_3.txt'
p221
aS'handling/mel_trois_best_4.txt'
p222
aS'handling/mel_trois_best_5.txt'
p223
aS'handling/mel_trois_best_6.txt'
p224
aS'handling/mel_trois_best_7.txt'
p225
aS'handling/mel_trois_best_8.txt'
p226
aS'handling/mel_trois_best_9.txt'
p227
aS'handling/mel_un_best_0.txt'
p228
aS'handling/mel_un_best_1.txt'
p229
aS'handling/mel_un_best_10.txt'
p230
aS'handling/mel_un_best_11.txt'
p231
aS'handling/mel_un_best_2.txt'
p232
aS'handling/mel_un_best_3.txt'
p233
aS'handling/mel_un_best_4.txt'
p234
aS'handling/mel_un_best_5.txt'
p235
aS'handling/mel_un_best_6.txt'
p236
aS'handling/mel_un_best_7.txt'
p237
aS'handling/mel_un_best_8.txt'
p238
aS'handling/mel_un_best_9.txt'
p239
aS'handling/passe_haut_Adrien_0.txt'
p240
aS'handling/passe_haut_deux_best_8.txt'
p241
aS'handling/passe_haut_deux_best_9.txt'
p242
aS'handling/passe_haut_Julien_0.txt'
p243
aS'handling/passe_haut_Julien_1.txt'
p244
aS'handling/passe_haut_Julien_2.txt'
p245
aS'handling/passe_haut_Julien_3.txt'
p246
aS'handling/passe_haut_Julien_4.txt'
p247
aS'handling/passe_haut_test_0.txt'
p248
aS'handling/passe_haut_trois_best_0.txt'
p249
aS'handling/passe_haut_trois_best_1.txt'
p250
aS'handling/passe_haut_trois_best_10.txt'
p251
aS'handling/passe_haut_trois_best_11.txt'
p252
aS'handling/passe_haut_trois_best_2.txt'
p253
aS'handling/passe_haut_trois_best_3.txt'
p254
aS'handling/passe_haut_trois_best_4.txt'
p255
aS'handling/fft_inverse_deux_best_6.txt'
p256
aS'handling/fft_inverse_deux_best_7.txt'
p257
aS'handling/fft_inverse_deux_best_8.txt'
p258
aS'handling/fft_inverse_deux_best_9.txt'
p259
aS'handling/fft_inverse_Julien_0.txt'
p260
aS'handling/fft_inverse_Julien_1.txt'
p261
aS'handling/fft_inverse_Julien_2.txt'
p262
aS'handling/fft_inverse_Julien_3.txt'
p263
aS'handling/fft_inverse_Julien_4.txt'
p264
aS'handling/fft_inverse_test_0.txt'
p265
aS'handling/fft_inverse_trois_best_0.txt'
p266
aS'handling/fft_inverse_trois_best_1.txt'
p267
aS'handling/fft_inverse_trois_best_10.txt'
p268
aS'handling/fft_inverse_trois_best_11.txt'
p269
aS'handling/fft_inverse_trois_best_2.txt'
p270
aS'handling/fft_inverse_trois_best_3.txt'
p271
aS'handling/fft_inverse_trois_best_4.txt'
p272
aS'handling/fft_inverse_trois_best_5.txt'
p273
aS'handling/vecteurs_deux_best_11.txt'
p274
aS'handling/vecteurs_deux_best_2.txt'
p275
aS'handling/vecteurs_deux_best_3.txt'
p276
aS'handling/vecteurs_deux_best_4.txt'
p277
aS'handling/vecteurs_deux_best_5.txt'
p278
aS'handling/vecteurs_deux_best_6.txt'
p279
aS'handling/vecteurs_deux_best_7.txt'
p280
aS'handling/vecteurs_deux_best_8.txt'
p281
aS'handling/vecteurs_deux_best_9.txt'
p282
aS'handling/vecteurs_Julien_0.txt'
p283
aS'handling/vecteurs_Julien_1.txt'
p284
aS'handling/vecteurs_Julien_2.txt'
p285
aS'handling/vecteurs_Julien_3.txt'
p286
aS'handling/vecteurs_Julien_4.txt'
p287
aS'handling/vecteurs_test_0.txt'
p288
aS'handling/fft_inverse_trois_best_7.txt'
p289
aS'handling/fft_inverse_trois_best_8.txt'
p290
aS'handling/fft_inverse_trois_best_9.txt'
p291
aS'handling/fft_inverse_un_best_0.txt'
p292
aS'handling/fft_inverse_un_best_1.txt'
p293
aS'handling/fft_inverse_un_best_10.txt'
p294
aS'handling/fft_inverse_un_best_11.txt'
p295
aS'handling/fft_inverse_un_best_2.txt'
p296
aS'handling/fft_inverse_un_best_3.txt'
p297
aS'handling/fft_inverse_un_best_4.txt'
p298
aS'handling/fft_inverse_un_best_5.txt'
p299
aS'handling/fft_inverse_un_best_6.txt'
p300
aS'handling/fft_inverse_un_best_7.txt'
p301
aS'handling/fft_inverse_un_best_8.txt'
p302
aS'handling/fft_inverse_un_best_9.txt'
p303
aS'handling/fft_Julien_0.txt'
p304
aS'handling/fft_Julien_1.txt'
p305
aS'handling/fft_Julien_2.txt'
p306
aS'handling/fft_Julien_3.txt'
p307
aS'handling/fft_Julien_4.txt'
p308
aS'handling/fft_test_0.txt'
p309
aS'handling/fft_trois_best_0.txt'
p310
aS'handling/fft_inverse_Adrien_0.txt'
p311
aS'handling/fft_inverse_Adrien_1.txt'
p312
aS'handling/fft_inverse_Adrien_2.txt'
p313
aS'handling/fft_inverse_Adrien_3.txt'
p314
aS'handling/fft_inverse_Adrien_4.txt'
p315
aS'handling/fft_inverse_Adrien_5.txt'
p316
aS'handling/fft_inverse_Adrien_6.txt'
p317
aS'handling/fft_inverse_Adrien_7.txt'
p318
aS'handling/fft_inverse_Adrien_8.txt'
p319
aS'handling/fft_inverse_Adrien_9.txt'
p320
aS'handling/fft_inverse_cinqbis_0.txt'
p321
aS'handling/fft_inverse_cinqbis_1.txt'
p322
aS'handling/fft_inverse_cinqbis_10.txt'
p323
aS'handling/fft_inverse_cinqbis_2.txt'
p324
aS'handling/fft_inverse_cinqbis_3.txt'
p325
aS'handling/fft_inverse_cinqbis_4.txt'
p326
aS'handling/fft_inverse_cinqbis_5.txt'
p327
aS'handling/fft_inverse_cinqbis_6.txt'
p328
aS'handling/fft_inverse_cinqbis_7.txt'
p329
aS'handling/fft_inverse_cinqbis_8.txt'
p330
aS'handling/fft_inverse_cinqbis_9.txt'
p331
aS'handling/fft_inverse_cinq_0.txt'
p332
aS'handling/fft_inverse_cinq_1.txt'
p333
aS'handling/passe_haut_Adrien_2.txt'
p334
aS'handling/passe_haut_Adrien_3.txt'
p335
aS'handling/passe_haut_Adrien_4.txt'
p336
aS'handling/passe_haut_Adrien_5.txt'
p337
aS'handling/passe_haut_Adrien_6.txt'
p338
aS'handling/passe_haut_Adrien_7.txt'
p339
aS'handling/passe_haut_Adrien_8.txt'
p340
aS'handling/passe_haut_Adrien_9.txt'
p341
aS'handling/passe_haut_cinqbis_0.txt'
p342
aS'handling/passe_haut_cinqbis_1.txt'
p343
aS'handling/passe_haut_cinqbis_10.txt'
p344
aS'handling/passe_haut_cinqbis_2.txt'
p345
aS'handling/passe_haut_cinqbis_3.txt'
p346
aS'handling/passe_haut_cinqbis_4.txt'
p347
aS'handling/passe_haut_cinqbis_5.txt'
p348
aS'handling/passe_haut_cinqbis_6.txt'
p349
aS'handling/passe_haut_cinqbis_7.txt'
p350
aS'handling/passe_haut_cinqbis_8.txt'
p351
aS'handling/passe_haut_cinqbis_9.txt'
p352
aS'handling/passe_haut_cinq_0.txt'
p353
aS'handling/passe_haut_cinq_1.txt'
p354
aS'handling/passe_haut_cinq_10.txt'
p355
aS'handling/mel_Adrien_4.txt'
p356
aS'handling/mel_Adrien_5.txt'
p357
aS'handling/mel_Adrien_6.txt'
p358
aS'handling/mel_Adrien_7.txt'
p359
aS'handling/mel_Adrien_8.txt'
p360
aS'handling/mel_Adrien_9.txt'
p361
aS'handling/mel_cinqbis_0.txt'
p362
aS'handling/mel_cinqbis_1.txt'
p363
aS'handling/mel_cinqbis_10.txt'
p364
aS'handling/mel_cinqbis_2.txt'
p365
aS'handling/mel_cinqbis_3.txt'
p366
aS'handling/mel_cinqbis_4.txt'
p367
aS'handling/mel_cinqbis_5.txt'
p368
aS'handling/mel_cinqbis_6.txt'
p369
aS'handling/mel_cinqbis_7.txt'
p370
aS'handling/mel_cinqbis_8.txt'
p371
aS'handling/mel_cinqbis_9.txt'
p372
aS'handling/mel_cinq_0.txt'
p373
aS'handling/mel_cinq_1.txt'
p374
aS'handling/mel_cinq_10.txt'
p375
aS'handling/mel_cinq_2.txt'
p376
aS'handling/mel_cinq_3.txt'
p377
aS'handling/passe_haut_trois_best_6.txt'
p378
aS'handling/passe_haut_trois_best_7.txt'
p379
aS'handling/passe_haut_trois_best_8.txt'
p380
aS'handling/passe_haut_trois_best_9.txt'
p381
aS'handling/passe_haut_un_best_0.txt'
p382
aS'handling/passe_haut_un_best_1.txt'
p383
aS'handling/passe_haut_un_best_10.txt'
p384
aS'handling/passe_haut_un_best_11.txt'
p385
aS'handling/passe_haut_un_best_2.txt'
p386
aS'handling/passe_haut_un_best_3.txt'
p387
aS'handling/passe_haut_un_best_4.txt'
p388
aS'handling/passe_haut_un_best_5.txt'
p389
aS'handling/passe_haut_un_best_6.txt'
p390
aS'handling/passe_haut_un_best_7.txt'
p391
aS'handling/passe_haut_un_best_8.txt'
p392
aS'handling/passe_haut_un_best_9.txt'
p393
aS'handling/vecteurs_Adrien_0.txt'
p394
aS'handling/vecteurs_Adrien_1.txt'
p395
aS'handling/vecteurs_Adrien_2.txt'
p396
aS'handling/vecteurs_Adrien_3.txt'
p397
aS'handling/vecteurs_Adrien_4.txt'
p398
aS'handling/vecteurs_Adrien_5.txt'
p399
aS'handling/vecteurs_Adrien_6.txt'
p400
aS'handling/vecteurs_trois_best_1.txt'
p401
aS'handling/vecteurs_trois_best_10.txt'
p402
aS'handling/vecteurs_trois_best_11.txt'
p403
aS'handling/vecteurs_trois_best_2.txt'
p404
aS'handling/vecteurs_trois_best_3.txt'
p405
aS'handling/vecteurs_trois_best_4.txt'
p406
aS'handling/vecteurs_trois_best_5.txt'
p407
aS'handling/vecteurs_trois_best_6.txt'
p408
aS'handling/vecteurs_trois_best_7.txt'
p409
aS'handling/vecteurs_trois_best_8.txt'
p410
aS'handling/vecteurs_trois_best_9.txt'
p411
aS'handling/vecteurs_un_best_0.txt'
p412
aS'handling/vecteurs_un_best_1.txt'
p413
aS'handling/vecteurs_un_best_10.txt'
p414
aS'handling/vecteurs_un_best_11.txt'
p415
aS'handling/vecteurs_un_best_2.txt'
p416
aS'handling/vecteurs_un_best_3.txt'
p417
aS'handling/vecteurs_un_best_4.txt'
p418
aS'handling/vecteurs_un_best_5.txt'
p419
aS'handling/vecteurs_un_best_6.txt'
p420
aS'handling/vecteurs_un_best_7.txt'
p421
aS'handling/vecteurs_un_best_8.txt'
p422
aS'handling/vecteurs_un_best_9.txt'
p423
aS'handling/fft_trois_best_10.txt'
p424
aS'handling/fft_trois_best_11.txt'
p425
aS'handling/fft_trois_best_2.txt'
p426
aS'handling/fft_trois_best_3.txt'
p427
aS'handling/fft_trois_best_4.txt'
p428
aS'handling/fft_trois_best_5.txt'
p429
aS'handling/fft_trois_best_6.txt'
p430
aS'handling/fft_trois_best_7.txt'
p431
aS'handling/fft_trois_best_8.txt'
p432
aS'handling/fft_trois_best_9.txt'
p433
aS'handling/fft_un_best_0.txt'
p434
aS'handling/fft_un_best_1.txt'
p435
aS'handling/fft_un_best_10.txt'
p436
aS'handling/fft_un_best_11.txt'
p437
aS'handling/fft_un_best_2.txt'
p438
aS'handling/fft_un_best_3.txt'
p439
aS'handling/fft_un_best_4.txt'
p440
aS'handling/fft_un_best_5.txt'
p441
aS'handling/fft_un_best_6.txt'
p442
aS'handling/fft_un_best_7.txt'
p443
aS'handling/fft_un_best_8.txt'
p444
aS'handling/fft_un_best_9.txt'
p445
aS'tests/Adrien.txt'
p446
aS'tests/Julien.txt'
p447
aS'users/registre.txt'
p448
aS'filesList.txt'
p449
aS'hmmList.txt'
p450
aS'deux_best/raw/11.wav'
p451
aS'tmp/cut_pomme_9.wav'
p452
aS'trois_best/raw/7.wav'
p453
aS'Adrien/A_0.wav'
p454
aS'Adrien/A_1.wav'
p455
aS'Adrien/A_2.wav'
p456
aS'Adrien/A_3.wav'
p457
aS'Adrien/A_4.wav'
p458
aS'Adrien/A_5.wav'
p459
aS'Adrien/A_6.wav'
p460
aS'Adrien/A_7.wav'
p461
aS'Adrien/A_8.wav'
p462
aS'Adrien/A_9.wav'
p463
aS'Adrien/raw/0.wav'
p464
aS'Adrien/raw/1.wav'
p465
aS'Adrien/raw/2.wav'
p466
aS'Adrien/raw/3.wav'
p467
aS'Adrien/raw/4.wav'
p468
aS'Adrien/raw/5.wav'
p469
aS'Adrien/raw/6.wav'
p470
aS'Adrien/raw/7.wav'
p471
aS'Adrien/raw/8.wav'
p472
aS'Adrien/raw/9.wav'
p473
aS'bob/1.wav'
p474
aS'Cinq/0.wav'
p475
aS'Cinq/1.wav'
p476
aS'Cinq/10.wav'
p477
aS'Cinq/2.wav'
p478
aS'Cinq/3.wav'
p479
aS'Cinq/4.wav'
p480
aS'Cinq/5.wav'
p481
aS'Cinq/6.wav'
p482
aS'Cinq/7.wav'
p483
aS'Cinq/8.wav'
p484
aS'Cinq/9.wav'
p485
aS'Deux/0.wav'
p486
aS'Deux/1.wav'
p487
aS'Deux/10.wav'
p488
aS'Deux/11.wav'
p489
aS'Deux/2.wav'
p490
aS'Deux/3.wav'
p491
aS'Deux/4.wav'
p492
aS'Deux/5.wav'
p493
aS'Deux/6.wav'
p494
aS'Deux/7.wav'
p495
aS'Deux/8.wav'
p496
aS'Deux/9.wav'
p497
aS'deux_best/0.wav'
p498
aS'deux_best/1.wav'
p499
aS'deux_best/10.wav'
p500
aS'deux_best/11.wav'
p501
aS'deux_best/2.wav'
p502
aS'deux_best/3.wav'
p503
aS'deux_best/4.wav'
p504
aS'deux_best/5.wav'
p505
aS'deux_best/6.wav'
p506
aS'deux_best/7.wav'
p507
aS'deux_best/8.wav'
p508
aS'deux_best/9.wav'
p509
aS'deux_best/raw/0.wav'
p510
aS'deux_best/raw/1.wav'
p511
aS'deux_best/raw/10.wav'
p512
aS'deux_best/raw/2.wav'
p513
aS'deux_best/raw/3.wav'
p514
aS'deux_best/raw/4.wav'
p515
aS'deux_best/raw/5.wav'
p516
aS'deux_best/raw/6.wav'
p517
aS'deux_best/raw/7.wav'
p518
aS'deux_best/raw/8.wav'
p519
aS'deux_best/raw/9.wav'
p520
aS'Julien/J_0.wav'
p521
aS'Julien/J_1.wav'
p522
aS'Julien/J_2.wav'
p523
aS'Julien/J_3.wav'
p524
aS'Julien/J_4.wav'
p525
aS'Julien/raw/0.wav'
p526
aS'Julien/raw/1.wav'
p527
aS'Julien/raw/2.wav'
p528
aS'Julien/raw/3.wav'
p529
aS'Julien/raw/4.wav'
p530
aS'noise/bob.wav'
p531
aS'noise/pomme.wav'
p532
aS'noise/toto.wav'
p533
aS'Quatre/0.wav'
p534
aS'Quatre/1.wav'
p535
aS'Quatre/10.wav'
p536
aS'Quatre/11.wav'
p537
aS'Quatre/2.wav'
p538
aS'Quatre/3.wav'
p539
aS'Quatre/4.wav'
p540
aS'Quatre/5.wav'
p541
aS'Quatre/6.wav'
p542
aS'Quatre/7.wav'
p543
aS'Quatre/8.wav'
p544
aS'Quatre/9.wav'
p545
aS'quatre_best/4_0.wav'
p546
aS'quatre_best/4_1.wav'
p547
aS'quatre_best/4_10.wav'
p548
aS'quatre_best/4_11.wav'
p549
aS'quatre_best/4_2.wav'
p550
aS'quatre_best/4_3.wav'
p551
aS'quatre_best/4_4.wav'
p552
aS'quatre_best/4_5.wav'
p553
aS'quatre_best/4_6.wav'
p554
aS'quatre_best/4_7.wav'
p555
aS'quatre_best/4_8.wav'
p556
aS'quatre_best/4_9.wav'
p557
aS'tmp/cut_pomme_4.wav'
p558
aS'tmp/pomme_3.wav'
p559
aS'tmp/00c8dec799e515594381513257f066abceed045845984230879de364.wav'
p560
aS'tmp/6d1fc6acdc3477cbccd43101aa7b70e59b6c93179b457fca61796aff.wav'
p561
aS'tmp/9b003b59fd71e3d18bb4e0c8b8259113fb535d60760b32a5610bd187.wav'
p562
aS'tmp/cf797b5b5b546e2ea9fa5544fb7db9f9e040aeac29f9ced06f30a165.wav'
p563
aS'tmp/cut_00c8dec799e515594381513257f066abceed045845984230879de364.wav'
p564
aS'tmp/cut_6d1fc6acdc3477cbccd43101aa7b70e59b6c93179b457fca61796aff.wav'
p565
aS'tmp/cut_9b003b59fd71e3d18bb4e0c8b8259113fb535d60760b32a5610bd187.wav'
p566
aS'tmp/cut_cf797b5b5b546e2ea9fa5544fb7db9f9e040aeac29f9ced06f30a165.wav'
p567
aS'tmp/cut_da3f76c2c1387ea5b5476f6476602ceab7e8610be9f2a0222a29d18b.wav'
p568
aS'tmp/cut_ece74e9b3838c963fc8462e2c87b3b4106caf836151a1429bde6c5ce.wav'
p569
aS'tmp/cut_pomme_0.wav'
p570
aS'tmp/cut_pomme_1.wav'
p571
aS'tmp/cut_pomme_2.wav'
p572
aS'tmp/cut_pomme_3.wav'
p573
aS'tmp/pomme_4.wav'
p574
aS'tmp/pomme_5.wav'
p575
aS'tmp/pomme_6.wav'
p576
aS'tmp/pomme_7.wav'
p577
aS'tmp/pomme_8.wav'
p578
aS'tmp/pomme_9.wav'
p579
aS'tmp/sync_cut_00c8dec799e515594381513257f066abceed045845984230879de364.wav'
p580
aS'tmp/sync_cut_6d1fc6acdc3477cbccd43101aa7b70e59b6c93179b457fca61796aff.wav'
p581
aS'tmp/sync_cut_9b003b59fd71e3d18bb4e0c8b8259113fb535d60760b32a5610bd187.wav'
p582
aS'tmp/sync_cut_cf797b5b5b546e2ea9fa5544fb7db9f9e040aeac29f9ced06f30a165.wav'
p583
aS'tmp/sync_cut_da3f76c2c1387ea5b5476f6476602ceab7e8610be9f2a0222a29d18b.wav'
p584
aS'tmp/sync_cut_ece74e9b3838c963fc8462e2c87b3b4106caf836151a1429bde6c5ce.wav'
p585
aS'tmp/sync_pomme_0.wav'
p586
aS'tmp/sync_pomme_1.wav'
p587
aS'tmp/sync_pomme_2.wav'
p588
aS'tmp/sync_pomme_3.wav'
p589
aS'tmp/sync_pomme_4.wav'
p590
aS'tmp/sync_pomme_5.wav'
p591
aS'tmp/sync_pomme_6.wav'
p592
aS'tmp/sync_pomme_7.wav'
p593
aS'tmp/sync_pomme_8.wav'
p594
aS'tmp/sync_pomme_9.wav'
p595
aS'tmp/sync_toto_0.wav'
p596
aS'tmp/sync_toto_1.wav'
p597
aS'tmp/toto_0.wav'
p598
aS'tmp/toto_1.wav'
p599
aS'tmp/cut_pomme_5.wav'
p600
aS'tmp/cut_pomme_6.wav'
p601
aS'tmp/cut_pomme_7.wav'
p602
aS'tmp/cut_pomme_8.wav'
p603
aS'tmp/cut_toto_0.wav'
p604
aS'tmp/cut_toto_1.wav'
p605
aS'tmp/da3f76c2c1387ea5b5476f6476602ceab7e8610be9f2a0222a29d18b.wav'
p606
aS'tmp/ece74e9b3838c963fc8462e2c87b3b4106caf836151a1429bde6c5ce.wav'
p607
aS'tmp/pomme_0.wav'
p608
aS'tmp/pomme_1.wav'
p609
aS'tmp/pomme_2.wav'
p610
aS'Trois/1.wav'
p611
aS'Trois/10.wav'
p612
aS'Trois/11.wav'
p613
aS'Trois/2.wav'
p614
aS'Trois/3.wav'
p615
aS'Trois/4.wav'
p616
aS'Trois/5.wav'
p617
aS'Trois/6.wav'
p618
aS'Trois/7.wav'
p619
aS'Trois/8.wav'
p620
aS'Trois/9.wav'
p621
aS'trois_best/0.wav'
p622
aS'trois_best/1.wav'
p623
aS'trois_best/10.wav'
p624
aS'trois_best/11.wav'
p625
aS'trois_best/2.wav'
p626
aS'trois_best/3.wav'
p627
aS'trois_best/4.wav'
p628
aS'trois_best/5.wav'
p629
aS'trois_best/6.wav'
p630
aS'trois_best/7.wav'
p631
aS'trois_best/8.wav'
p632
aS'trois_best/9.wav'
p633
aS'trois_best/raw/0.wav'
p634
aS'trois_best/raw/1.wav'
p635
aS'trois_best/raw/10.wav'
p636
aS'trois_best/raw/11.wav'
p637
aS'trois_best/raw/2.wav'
p638
aS'trois_best/raw/3.wav'
p639
aS'trois_best/raw/4.wav'
p640
aS'trois_best/raw/5.wav'
p641
aS'trois_best/raw/6.wav'
p642
aS'trois_best/raw/8.wav'
p643
aS'trois_best/raw/9.wav'
p644
aS'trois_best/raw/vide.wav'
p645
aS'trois_best/vide.wav'
p646
aS'Un/0.wav'
p647
aS'Un/1.wav'
p648
aS'Un/10.wav'
p649
aS'Un/11.wav'
p650
aS'Un/2.wav'
p651
aS'Un/3.wav'
p652
aS'Un/4.wav'
p653
aS'Un/5.wav'
p654
aS'Un/6.wav'
p655
aS'Un/7.wav'
p656
aS'Un/8.wav'
p657
aS'Un/9.wav'
p658
aS'un_best/1_0.wav'
p659
aS'un_best/1_1.wav'
p660
aS'un_best/1_10.wav'
p661
aS'un_best/1_11.wav'
p662
aS'un_best/1_2.wav'
p663
aS'un_best/1_3.wav'
p664
aS'un_best/1_4.wav'
p665
aS'un_best/1_5.wav'
p666
aS'un_best/1_6.wav'
p667
aS'un_best/1_7.wav'
p668
aS'un_best/1_8.wav'
p669
aS'un_best/1_9.wav'
p670
aS'un_best/raw/0.wav'
p671
aS'un_best/raw/1.wav'
p672
aS'un_best/raw/10.wav'
p673
aS'un_best/raw/11.wav'
p674
aS'un_best/raw/2.wav'
p675
aS'un_best/raw/3.wav'
p676
aS'un_best/raw/4.wav'
p677
aS'un_best/raw/5.wav'
p678
aS'un_best/raw/6.wav'
p679
aS'un_best/raw/7.wav'
p680
aS'un_best/raw/8.wav'
p681
aS'un_best/raw/9.wav'
p682
aS'handling/passe_haut_bob_0.txt'
p683
aS'tmp/bob.wav'
p684
a.