(lp0
S'test.txt'
p1
aS'bob/0.wav'
p2
aS'cheval/0.wav'
p3
aS'cheval/1.wav'
p4
aS'cheval/2.wav'
p5
aS'cheval/3.wav'
p6
aS'cheval/4.wav'
p7
aS'caca/0.wav'
p8
aS'caca/1.wav'
p9
aS'caca/2.wav'
p10
aS'un/0.wav'
p11
aS'un/1.wav'
p12
aS'un/2.wav'
p13
aS'un/3.wav'
p14
aS'un/4.wav'
p15
aS'un/5.wav'
p16
aS'un/6.wav'
p17
aS'un/7.wav'
p18
aS'un/8.wav'
p19
aS'un/9.wav'
p20
aS'deux/0.wav'
p21
aS'deux/1.wav'
p22
aS'deux/2.wav'
p23
aS'deux/3.wav'
p24
aS'deux/4.wav'
p25
aS'deux/5.wav'
p26
aS'deux/6.wav'
p27
aS'deux/7.wav'
p28
aS'deux/8.wav'
p29
aS'deux/9.wav'
p30
aS'trois/0.wav'
p31
aS'trois/1.wav'
p32
aS'trois/2.wav'
p33
aS'trois/3.wav'
p34
aS'trois/4.wav'
p35
aS'trois/5.wav'
p36
aS'trois/6.wav'
p37
aS'trois/7.wav'
p38
aS'trois/8.wav'
p39
aS'trois/9.wav'
p40
aS'quatre/0.wav'
p41
aS'quatre/1.wav'
p42
aS'quatre/2.wav'
p43
aS'quatre/3.wav'
p44
aS'quatre/4.wav'
p45
aS'quatre/5.wav'
p46
aS'quatre/6.wav'
p47
aS'quatre/7.wav'
p48
aS'quatre/8.wav'
p49
aS'quatre/9.wav'
p50
aS'quatre/10.wav'
p51
aS'quatre/11.wav'
p52
aS'cinq/0.wav'
p53
aS'cinq/1.wav'
p54
aS'cinq/2.wav'
p55
aS'cinq/3.wav'
p56
aS'cinq/4.wav'
p57
aS'cinq/5.wav'
p58
aS'cinq/6.wav'
p59
aS'cinq/7.wav'
p60
aS'cinq/8.wav'
p61
aS'cinq/9.wav'
p62
aS'cinq/10.wav'
p63
aS'cinq/11.wav'
p64
aS'un/10.wav'
p65
aS'un/11.wav'
p66
aS'deux/10.wav'
p67
aS'deux/11.wav'
p68
aS'trois/10.wav'
p69
aS'trois/11.wav'
p70
aS'handling/passe_haut_0.txt'
p71
aS'handling/hann_0.txt'
p72
aS'handling/fft_0.txt'
p73
a.