(lp0
S'test.txt'
p1
aS'bob/0.wav'
p2
aS'cheval/0.wav'
p3
aS'cheval/1.wav'
p4
aS'cheval/2.wav'
p5
aS'cheval/3.wav'
p6
aS'cheval/4.wav'
p7
aS'caca/0.wav'
p8
aS'caca/1.wav'
p9
aS'caca/2.wav'
p10
aS'un/0.wav'
p11
aS'un/1.wav'
p12
aS'un/2.wav'
p13
aS'un/3.wav'
p14
aS'un/4.wav'
p15
aS'un/5.wav'
p16
aS'un/6.wav'
p17
aS'un/7.wav'
p18
aS'un/8.wav'
p19
aS'un/9.wav'
p20
aS'deux/0.wav'
p21
aS'deux/1.wav'
p22
aS'deux/2.wav'
p23
aS'deux/3.wav'
p24
aS'deux/4.wav'
p25
aS'deux/5.wav'
p26
aS'deux/6.wav'
p27
aS'deux/7.wav'
p28
aS'deux/8.wav'
p29
aS'deux/9.wav'
p30
aS'trois/0.wav'
p31
aS'trois/1.wav'
p32
aS'trois/2.wav'
p33
aS'trois/3.wav'
p34
aS'trois/4.wav'
p35
aS'trois/5.wav'
p36
aS'trois/6.wav'
p37
aS'trois/7.wav'
p38
aS'trois/8.wav'
p39
aS'trois/9.wav'
p40
aS'quatre/0.wav'
p41
aS'quatre/1.wav'
p42
aS'quatre/2.wav'
p43
aS'quatre/3.wav'
p44
aS'quatre/4.wav'
p45
aS'quatre/5.wav'
p46
aS'quatre/6.wav'
p47
aS'quatre/7.wav'
p48
aS'quatre/8.wav'
p49
aS'quatre/9.wav'
p50
aS'quatre/10.wav'
p51
aS'quatre/11.wav'
p52
aS'cinq/0.wav'
p53
aS'cinq/1.wav'
p54
aS'cinq/2.wav'
p55
aS'cinq/3.wav'
p56
aS'cinq/4.wav'
p57
aS'cinq/5.wav'
p58
aS'cinq/6.wav'
p59
aS'cinq/7.wav'
p60
aS'cinq/8.wav'
p61
aS'cinq/9.wav'
p62
aS'cinq/10.wav'
p63
aS'un/10.wav'
p64
aS'un/11.wav'
p65
aS'deux/10.wav'
p66
aS'deux/11.wav'
p67
aS'trois/10.wav'
p68
aS'trois/11.wav'
p69
aS'handling/passe_haut_0.txt'
p70
aS'handling/hann_0.txt'
p71
aS'handling/fft_0.txt'
p72
aS'handling/mel_88.txt'
p73
aS'handling/mel_tab_88.txt'
p74
aS'handling/fft_inverse_88.txt'
p75
aS'handling/fft_88.txt'
p76
aS'handling/mel_0.txt'
p77
aS'handling/mel_tab_0.txt'
p78
aS'handling/fft_inverse_0.txt'
p79
aS'mod/cinq/0.wav'
p80
aS'mod/cinq/1.wav'
p81
aS'mod/cinq/2.wav'
p82
aS'mod/cinq/3.wav'
p83
aS'mod/cinq/4.wav'
p84
aS'mod/cinq/5.wav'
p85
aS'mod/cinq/6.wav'
p86
aS'mod/cinq/7.wav'
p87
aS'mod/cinq/8.wav'
p88
aS'mod/cinq/9.wav'
p89
aS'mod/cinq/10.wav'
p90
aS'mod/deux/0.wav'
p91
aS'mod/deux/1.wav'
p92
aS'mod/deux/2.wav'
p93
aS'mod/deux/3.wav'
p94
aS'mod/deux/4.wav'
p95
aS'mod/deux/5.wav'
p96
aS'mod/deux/6.wav'
p97
aS'mod/deux/7.wav'
p98
aS'mod/deux/8.wav'
p99
aS'mod/deux/9.wav'
p100
aS'mod/deux/10.wav'
p101
aS'mod/deux/11.wav'
p102
aS'mod/quatre/0.wav'
p103
aS'mod/quatre/1.wav'
p104
aS'mod/quatre/2.wav'
p105
aS'mod/quatre/3.wav'
p106
aS'mod/quatre/4.wav'
p107
aS'mod/quatre/5.wav'
p108
aS'mod/quatre/6.wav'
p109
aS'mod/quatre/7.wav'
p110
aS'mod/quatre/8.wav'
p111
aS'mod/quatre/9.wav'
p112
aS'mod/quatre/10.wav'
p113
aS'mod/quatre/11.wav'
p114
aS'mod/trois/0.wav'
p115
aS'mod/trois/1.wav'
p116
aS'mod/trois/2.wav'
p117
aS'mod/trois/3.wav'
p118
aS'mod/trois/4.wav'
p119
aS'mod/trois/5.wav'
p120
aS'mod/trois/6.wav'
p121
aS'mod/trois/7.wav'
p122
aS'mod/trois/8.wav'
p123
aS'mod/trois/9.wav'
p124
aS'mod/trois/10.wav'
p125
aS'mod/trois/11.wav'
p126
aS'mod/un/0.wav'
p127
aS'mod/un/1.wav'
p128
aS'mod/un/2.wav'
p129
aS'mod/un/3.wav'
p130
aS'mod/un/4.wav'
p131
aS'mod/un/5.wav'
p132
aS'mod/un/6.wav'
p133
aS'mod/un/7.wav'
p134
aS'mod/un/8.wav'
p135
aS'mod/un/9.wav'
p136
aS'mod/un/10.wav'
p137
aS'mod/un/11.wav'
p138
aS'cinqbis/5_0.wav'
p139
aS'cinqbis/5_1.wav'
p140
aS'cinqbis/5_2.wav'
p141
aS'cinqbis/5_3.wav'
p142
aS'cinqbis/5_4.wav'
p143
aS'cinqbis/5_5.wav'
p144
aS'cinqbis/5_6.wav'
p145
aS'cinqbis/5_7.wav'
p146
aS'cinqbis/5_8.wav'
p147
aS'cinqbis/5_9.wav'
p148
aS'cinqbis/5_10.wav'
p149
aS'handling/passe_haut_cinq_0.txt'
p150
aS'handling/hann_cinq_0.txt'
p151
aS'handling/fft_cinq_0.txt'
p152
aS'handling/mel_cinq_0.txt'
p153
aS'handling/fft_inverse_cinq_0.txt'
p154
aS'handling/vecteurs_cinq_0.txt'
p155
aS'handling/passe_haut_cinq_1.txt'
p156
aS'handling/hann_cinq_1.txt'
p157
aS'handling/fft_cinq_1.txt'
p158
aS'handling/mel_cinq_1.txt'
p159
aS'handling/fft_inverse_cinq_1.txt'
p160
aS'handling/vecteurs_cinq_1.txt'
p161
aS'handling/passe_haut_cinq_2.txt'
p162
aS'handling/hann_cinq_2.txt'
p163
aS'handling/fft_cinq_2.txt'
p164
aS'handling/mel_cinq_2.txt'
p165
aS'handling/fft_inverse_cinq_2.txt'
p166
aS'handling/vecteurs_cinq_2.txt'
p167
aS'handling/passe_haut_cinq_3.txt'
p168
aS'handling/hann_cinq_3.txt'
p169
aS'handling/fft_cinq_3.txt'
p170
aS'handling/mel_cinq_3.txt'
p171
aS'handling/fft_inverse_cinq_3.txt'
p172
aS'handling/vecteurs_cinq_3.txt'
p173
aS'handling/passe_haut_cinq_4.txt'
p174
aS'handling/hann_cinq_4.txt'
p175
aS'handling/fft_cinq_4.txt'
p176
aS'handling/mel_cinq_4.txt'
p177
aS'handling/fft_inverse_cinq_4.txt'
p178
aS'handling/vecteurs_cinq_4.txt'
p179
aS'handling/passe_haut_cinq_5.txt'
p180
aS'handling/hann_cinq_5.txt'
p181
aS'handling/fft_cinq_5.txt'
p182
aS'handling/mel_cinq_5.txt'
p183
aS'handling/fft_inverse_cinq_5.txt'
p184
aS'handling/vecteurs_cinq_5.txt'
p185
aS'handling/passe_haut_cinq_6.txt'
p186
aS'handling/hann_cinq_6.txt'
p187
aS'handling/fft_cinq_6.txt'
p188
aS'handling/mel_cinq_6.txt'
p189
aS'handling/fft_inverse_cinq_6.txt'
p190
aS'handling/vecteurs_cinq_6.txt'
p191
aS'handling/passe_haut_cinq_7.txt'
p192
aS'handling/hann_cinq_7.txt'
p193
aS'handling/fft_cinq_7.txt'
p194
aS'handling/mel_cinq_7.txt'
p195
aS'handling/fft_inverse_cinq_7.txt'
p196
aS'handling/vecteurs_cinq_7.txt'
p197
aS'handling/passe_haut_cinq_8.txt'
p198
aS'handling/hann_cinq_8.txt'
p199
aS'handling/fft_cinq_8.txt'
p200
aS'handling/mel_cinq_8.txt'
p201
aS'handling/fft_inverse_cinq_8.txt'
p202
aS'handling/vecteurs_cinq_8.txt'
p203
aS'handling/passe_haut_cinq_9.txt'
p204
aS'handling/hann_cinq_9.txt'
p205
aS'handling/fft_cinq_9.txt'
p206
aS'handling/mel_cinq_9.txt'
p207
aS'handling/fft_inverse_cinq_9.txt'
p208
aS'handling/vecteurs_cinq_9.txt'
p209
aS'handling/passe_haut_cinq_10.txt'
p210
aS'handling/hann_cinq_10.txt'
p211
aS'handling/fft_cinq_10.txt'
p212
aS'handling/mel_cinq_10.txt'
p213
aS'handling/fft_inverse_cinq_10.txt'
p214
aS'handling/vecteurs_cinq_10.txt'
p215
aS'handling/passe_haut_deux_0.txt'
p216
aS'handling/hann_deux_0.txt'
p217
aS'handling/fft_deux_0.txt'
p218
aS'handling/mel_deux_0.txt'
p219
aS'handling/fft_inverse_deux_0.txt'
p220
aS'handling/vecteurs_deux_0.txt'
p221
aS'handling/passe_haut_deux_1.txt'
p222
aS'handling/hann_deux_1.txt'
p223
aS'handling/fft_deux_1.txt'
p224
aS'handling/mel_deux_1.txt'
p225
aS'handling/fft_inverse_deux_1.txt'
p226
aS'handling/vecteurs_deux_1.txt'
p227
aS'handling/passe_haut_deux_2.txt'
p228
aS'handling/hann_deux_2.txt'
p229
aS'handling/fft_deux_2.txt'
p230
aS'handling/mel_deux_2.txt'
p231
aS'handling/fft_inverse_deux_2.txt'
p232
aS'handling/vecteurs_deux_2.txt'
p233
aS'handling/passe_haut_deux_3.txt'
p234
aS'handling/hann_deux_3.txt'
p235
aS'handling/fft_deux_3.txt'
p236
aS'handling/mel_deux_3.txt'
p237
aS'handling/fft_inverse_deux_3.txt'
p238
aS'handling/vecteurs_deux_3.txt'
p239
aS'handling/passe_haut_deux_4.txt'
p240
aS'handling/hann_deux_4.txt'
p241
aS'handling/fft_deux_4.txt'
p242
aS'handling/mel_deux_4.txt'
p243
aS'handling/fft_inverse_deux_4.txt'
p244
aS'handling/vecteurs_deux_4.txt'
p245
aS'handling/passe_haut_deux_5.txt'
p246
aS'handling/hann_deux_5.txt'
p247
aS'handling/fft_deux_5.txt'
p248
aS'handling/mel_deux_5.txt'
p249
aS'handling/fft_inverse_deux_5.txt'
p250
aS'handling/vecteurs_deux_5.txt'
p251
aS'handling/passe_haut_deux_6.txt'
p252
aS'handling/hann_deux_6.txt'
p253
aS'handling/fft_deux_6.txt'
p254
aS'handling/mel_deux_6.txt'
p255
aS'handling/fft_inverse_deux_6.txt'
p256
aS'handling/vecteurs_deux_6.txt'
p257
aS'handling/passe_haut_deux_7.txt'
p258
aS'handling/hann_deux_7.txt'
p259
aS'handling/fft_deux_7.txt'
p260
aS'handling/mel_deux_7.txt'
p261
aS'handling/fft_inverse_deux_7.txt'
p262
aS'handling/vecteurs_deux_7.txt'
p263
aS'handling/passe_haut_deux_8.txt'
p264
aS'handling/hann_deux_8.txt'
p265
aS'handling/fft_deux_8.txt'
p266
aS'handling/mel_deux_8.txt'
p267
aS'handling/fft_inverse_deux_8.txt'
p268
aS'handling/vecteurs_deux_8.txt'
p269
aS'handling/passe_haut_deux_9.txt'
p270
aS'handling/hann_deux_9.txt'
p271
aS'handling/fft_deux_9.txt'
p272
aS'handling/mel_deux_9.txt'
p273
aS'handling/fft_inverse_deux_9.txt'
p274
aS'handling/vecteurs_deux_9.txt'
p275
aS'handling/passe_haut_deux_10.txt'
p276
aS'handling/hann_deux_10.txt'
p277
aS'handling/fft_deux_10.txt'
p278
aS'handling/mel_deux_10.txt'
p279
aS'handling/fft_inverse_deux_10.txt'
p280
aS'handling/vecteurs_deux_10.txt'
p281
aS'handling/passe_haut_deux_11.txt'
p282
aS'handling/hann_deux_11.txt'
p283
aS'handling/fft_deux_11.txt'
p284
aS'handling/mel_deux_11.txt'
p285
aS'handling/fft_inverse_deux_11.txt'
p286
aS'handling/vecteurs_deux_11.txt'
p287
aS'handling/passe_haut_quatre_0.txt'
p288
aS'handling/hann_quatre_0.txt'
p289
aS'handling/fft_quatre_0.txt'
p290
aS'handling/mel_quatre_0.txt'
p291
aS'handling/fft_inverse_quatre_0.txt'
p292
aS'handling/vecteurs_quatre_0.txt'
p293
aS'handling/passe_haut_quatre_1.txt'
p294
aS'handling/hann_quatre_1.txt'
p295
aS'handling/fft_quatre_1.txt'
p296
aS'handling/mel_quatre_1.txt'
p297
aS'handling/fft_inverse_quatre_1.txt'
p298
aS'handling/vecteurs_quatre_1.txt'
p299
aS'handling/passe_haut_quatre_2.txt'
p300
aS'handling/hann_quatre_2.txt'
p301
aS'handling/fft_quatre_2.txt'
p302
aS'handling/mel_quatre_2.txt'
p303
aS'handling/fft_inverse_quatre_2.txt'
p304
aS'handling/vecteurs_quatre_2.txt'
p305
aS'handling/passe_haut_quatre_3.txt'
p306
aS'handling/hann_quatre_3.txt'
p307
aS'handling/fft_quatre_3.txt'
p308
aS'handling/mel_quatre_3.txt'
p309
aS'handling/fft_inverse_quatre_3.txt'
p310
aS'handling/vecteurs_quatre_3.txt'
p311
aS'handling/passe_haut_quatre_4.txt'
p312
aS'handling/hann_quatre_4.txt'
p313
aS'handling/fft_quatre_4.txt'
p314
aS'handling/mel_quatre_4.txt'
p315
aS'handling/fft_inverse_quatre_4.txt'
p316
aS'handling/vecteurs_quatre_4.txt'
p317
aS'handling/passe_haut_quatre_5.txt'
p318
aS'handling/hann_quatre_5.txt'
p319
aS'handling/fft_quatre_5.txt'
p320
aS'handling/mel_quatre_5.txt'
p321
aS'handling/fft_inverse_quatre_5.txt'
p322
aS'handling/vecteurs_quatre_5.txt'
p323
aS'handling/passe_haut_quatre_6.txt'
p324
aS'handling/hann_quatre_6.txt'
p325
aS'handling/fft_quatre_6.txt'
p326
aS'handling/mel_quatre_6.txt'
p327
aS'handling/fft_inverse_quatre_6.txt'
p328
aS'handling/vecteurs_quatre_6.txt'
p329
aS'handling/passe_haut_quatre_7.txt'
p330
aS'handling/hann_quatre_7.txt'
p331
aS'handling/fft_quatre_7.txt'
p332
aS'handling/mel_quatre_7.txt'
p333
aS'handling/fft_inverse_quatre_7.txt'
p334
aS'handling/vecteurs_quatre_7.txt'
p335
aS'handling/passe_haut_quatre_8.txt'
p336
aS'handling/hann_quatre_8.txt'
p337
aS'handling/fft_quatre_8.txt'
p338
aS'handling/mel_quatre_8.txt'
p339
aS'handling/fft_inverse_quatre_8.txt'
p340
aS'handling/vecteurs_quatre_8.txt'
p341
aS'handling/passe_haut_quatre_9.txt'
p342
aS'handling/hann_quatre_9.txt'
p343
aS'handling/fft_quatre_9.txt'
p344
aS'handling/mel_quatre_9.txt'
p345
aS'handling/fft_inverse_quatre_9.txt'
p346
aS'handling/vecteurs_quatre_9.txt'
p347
aS'handling/passe_haut_quatre_10.txt'
p348
aS'handling/hann_quatre_10.txt'
p349
aS'handling/fft_quatre_10.txt'
p350
aS'handling/mel_quatre_10.txt'
p351
aS'handling/fft_inverse_quatre_10.txt'
p352
aS'handling/vecteurs_quatre_10.txt'
p353
aS'handling/passe_haut_quatre_11.txt'
p354
aS'handling/hann_quatre_11.txt'
p355
aS'handling/fft_quatre_11.txt'
p356
aS'handling/mel_quatre_11.txt'
p357
aS'handling/fft_inverse_quatre_11.txt'
p358
aS'handling/vecteurs_quatre_11.txt'
p359
aS'handling/passe_haut_trois_0.txt'
p360
aS'handling/hann_trois_0.txt'
p361
aS'handling/fft_trois_0.txt'
p362
aS'handling/mel_trois_0.txt'
p363
aS'handling/fft_inverse_trois_0.txt'
p364
aS'handling/vecteurs_trois_0.txt'
p365
aS'handling/passe_haut_trois_1.txt'
p366
aS'handling/hann_trois_1.txt'
p367
aS'handling/fft_trois_1.txt'
p368
aS'handling/mel_trois_1.txt'
p369
aS'handling/fft_inverse_trois_1.txt'
p370
aS'handling/vecteurs_trois_1.txt'
p371
aS'handling/passe_haut_trois_2.txt'
p372
aS'handling/hann_trois_2.txt'
p373
aS'handling/fft_trois_2.txt'
p374
aS'handling/mel_trois_2.txt'
p375
aS'handling/fft_inverse_trois_2.txt'
p376
aS'handling/vecteurs_trois_2.txt'
p377
aS'handling/passe_haut_trois_3.txt'
p378
aS'handling/hann_trois_3.txt'
p379
aS'handling/fft_trois_3.txt'
p380
aS'handling/mel_trois_3.txt'
p381
aS'handling/fft_inverse_trois_3.txt'
p382
aS'handling/vecteurs_trois_3.txt'
p383
aS'handling/passe_haut_trois_4.txt'
p384
aS'handling/hann_trois_4.txt'
p385
aS'handling/fft_trois_4.txt'
p386
aS'handling/mel_trois_4.txt'
p387
aS'handling/fft_inverse_trois_4.txt'
p388
aS'handling/vecteurs_trois_4.txt'
p389
aS'handling/passe_haut_trois_5.txt'
p390
aS'handling/hann_trois_5.txt'
p391
aS'handling/fft_trois_5.txt'
p392
aS'handling/mel_trois_5.txt'
p393
aS'handling/fft_inverse_trois_5.txt'
p394
aS'handling/vecteurs_trois_5.txt'
p395
aS'handling/passe_haut_trois_6.txt'
p396
aS'handling/hann_trois_6.txt'
p397
aS'handling/fft_trois_6.txt'
p398
aS'handling/mel_trois_6.txt'
p399
aS'handling/fft_inverse_trois_6.txt'
p400
aS'handling/vecteurs_trois_6.txt'
p401
aS'handling/passe_haut_trois_7.txt'
p402
aS'handling/hann_trois_7.txt'
p403
aS'handling/fft_trois_7.txt'
p404
aS'handling/mel_trois_7.txt'
p405
aS'handling/fft_inverse_trois_7.txt'
p406
aS'handling/vecteurs_trois_7.txt'
p407
aS'handling/passe_haut_trois_8.txt'
p408
aS'handling/hann_trois_8.txt'
p409
aS'handling/fft_trois_8.txt'
p410
aS'handling/mel_trois_8.txt'
p411
aS'handling/fft_inverse_trois_8.txt'
p412
aS'handling/vecteurs_trois_8.txt'
p413
aS'handling/passe_haut_trois_9.txt'
p414
aS'handling/hann_trois_9.txt'
p415
aS'handling/fft_trois_9.txt'
p416
aS'handling/mel_trois_9.txt'
p417
aS'handling/fft_inverse_trois_9.txt'
p418
aS'handling/vecteurs_trois_9.txt'
p419
aS'handling/passe_haut_trois_10.txt'
p420
aS'handling/hann_trois_10.txt'
p421
aS'handling/fft_trois_10.txt'
p422
aS'handling/mel_trois_10.txt'
p423
aS'handling/fft_inverse_trois_10.txt'
p424
aS'handling/vecteurs_trois_10.txt'
p425
aS'handling/passe_haut_trois_11.txt'
p426
aS'handling/hann_trois_11.txt'
p427
aS'handling/fft_trois_11.txt'
p428
aS'handling/mel_trois_11.txt'
p429
aS'handling/fft_inverse_trois_11.txt'
p430
aS'handling/vecteurs_trois_11.txt'
p431
aS'handling/passe_haut_un_0.txt'
p432
aS'handling/hann_un_0.txt'
p433
aS'handling/fft_un_0.txt'
p434
aS'handling/mel_un_0.txt'
p435
aS'handling/fft_inverse_un_0.txt'
p436
aS'handling/vecteurs_un_0.txt'
p437
aS'handling/passe_haut_un_1.txt'
p438
aS'handling/hann_un_1.txt'
p439
aS'handling/fft_un_1.txt'
p440
aS'handling/mel_un_1.txt'
p441
aS'handling/fft_inverse_un_1.txt'
p442
aS'handling/vecteurs_un_1.txt'
p443
aS'handling/passe_haut_un_2.txt'
p444
aS'handling/hann_un_2.txt'
p445
aS'handling/fft_un_2.txt'
p446
aS'handling/mel_un_2.txt'
p447
aS'handling/fft_inverse_un_2.txt'
p448
aS'handling/vecteurs_un_2.txt'
p449
aS'handling/passe_haut_un_3.txt'
p450
aS'handling/hann_un_3.txt'
p451
aS'handling/fft_un_3.txt'
p452
aS'handling/mel_un_3.txt'
p453
aS'handling/fft_inverse_un_3.txt'
p454
aS'handling/vecteurs_un_3.txt'
p455
aS'handling/passe_haut_un_4.txt'
p456
aS'handling/hann_un_4.txt'
p457
aS'handling/fft_un_4.txt'
p458
aS'handling/mel_un_4.txt'
p459
aS'handling/fft_inverse_un_4.txt'
p460
aS'handling/vecteurs_un_4.txt'
p461
aS'handling/passe_haut_un_5.txt'
p462
aS'handling/hann_un_5.txt'
p463
aS'handling/fft_un_5.txt'
p464
aS'handling/mel_un_5.txt'
p465
aS'handling/fft_inverse_un_5.txt'
p466
aS'handling/vecteurs_un_5.txt'
p467
aS'handling/passe_haut_un_6.txt'
p468
aS'handling/hann_un_6.txt'
p469
aS'handling/fft_un_6.txt'
p470
aS'handling/mel_un_6.txt'
p471
aS'handling/fft_inverse_un_6.txt'
p472
aS'handling/vecteurs_un_6.txt'
p473
aS'handling/passe_haut_un_7.txt'
p474
aS'handling/hann_un_7.txt'
p475
aS'handling/fft_un_7.txt'
p476
aS'handling/mel_un_7.txt'
p477
aS'handling/fft_inverse_un_7.txt'
p478
aS'handling/vecteurs_un_7.txt'
p479
aS'handling/passe_haut_un_8.txt'
p480
aS'handling/hann_un_8.txt'
p481
aS'handling/fft_un_8.txt'
p482
aS'handling/mel_un_8.txt'
p483
aS'handling/fft_inverse_un_8.txt'
p484
aS'handling/vecteurs_un_8.txt'
p485
aS'handling/passe_haut_un_9.txt'
p486
aS'handling/hann_un_9.txt'
p487
aS'handling/fft_un_9.txt'
p488
aS'handling/mel_un_9.txt'
p489
aS'handling/fft_inverse_un_9.txt'
p490
aS'handling/vecteurs_un_9.txt'
p491
aS'handling/passe_haut_un_10.txt'
p492
aS'handling/hann_un_10.txt'
p493
aS'handling/fft_un_10.txt'
p494
aS'handling/mel_un_10.txt'
p495
aS'handling/fft_inverse_un_10.txt'
p496
aS'handling/vecteurs_un_10.txt'
p497
aS'handling/passe_haut_un_11.txt'
p498
aS'handling/hann_un_11.txt'
p499
aS'handling/fft_un_11.txt'
p500
aS'handling/mel_un_11.txt'
p501
aS'handling/fft_inverse_un_11.txt'
p502
aS'handling/vecteurs_un_11.txt'
p503
aS'hmmList.txt'
p504
a.