(lp0
(lp1
F39.12184302662735
aF-2.4442048095730318
aF-2.8549756669401507
aF-2.76025234646945
aF2.1198791674675515
aF0.05341514325388222
aF-0.9361769748931179
aF0.07400623468292974
aF0.40419643406243977
aF0.3668823043463805
aF-0.3562710177291173
aF-0.35840529463041393
aF-0.38800704539987213
aF0.463246825450638
aF-0.05061144671393178
aF-0.014609142742402742
aF-0.14265134797994303
aF0.24487619280502865
aF-0.14300396913934973
aF0.017710294738249616
aF-0.1094696436107576
aF-0.11743421995704162
aF-0.03294065509486245
aF0.020895526626149855
aa(lp2
F40.22767125408868
aF-1.3438504710615613
aF-0.8830144065525672
aF-0.16014339166940325
aF3.0535483061895103
aF-0.35770206466141463
aF-0.5214899079480583
aF0.8839939613064836
aF0.4013589510816275
aF0.34197059609367675
aF0.054199330973704225
aF-0.07403928446008429
aF0.03864936604964281
aF0.7918642421872293
aF-0.2019994816384784
aF-0.02261202003803804
aF-0.1799433120620452
aF-0.2306143439193832
aF-0.2520499435299377
aF0.03897265944333688
aF-0.2916337109200586
aF-0.06972584199274186
aF0.06896852451601859
aF-0.02811334755561991
aa(lp3
F39.405398238946056
aF-2.1977365529858806
aF-0.8809509596189206
aF0.5250181917172335
aF2.5489085517369117
aF-1.2524321387674815
aF-0.325556481791352
aF1.158799124806076
aF0.4674156457440814
aF1.0481723667082128
aF0.7647458682688807
aF0.2284192724097021
aF-0.12931799377918912
aF0.38667574420055156
aF-0.18441802325209472
aF-0.002781994031402379
aF0.08909431186427387
aF-0.009226803388150758
aF-0.22406811227923457
aF0.16108308227925258
aF0.04470074603064583
aF0.1538743779815629
aF-0.15563444010862906
aF-0.15352111347744155
aa(lp4
F38.29723547973495
aF-2.9675562337903574
aF-1.1791858421846744
aF0.28696393300396983
aF2.228653093279297
aF-1.506307137186776
aF-0.5999867647789348
aF1.0647799012487646
aF0.5985455227720322
aF1.3688483659229036
aF0.4588433052192022
aF-0.14335682489397816
aF-0.15191616397018784
aF0.5636012736698156
aF-0.338323418863284
aF0.19596674004051542
aF0.28445912670654194
aF-0.1355240631037831
aF-0.4534203662964028
aF0.11921038474156011
aF0.04736399654489322
aF0.023695693659591118
aF-0.11250566901226637
aF-0.22154029141231932
aa(lp5
F37.83088847130672
aF-3.364621922514921
aF-0.42232071226082835
aF0.8821896198826196
aF2.4837525760930586
aF-1.9808884742275918
aF-1.0285814598296945
aF0.6407997459780779
aF0.5148226303394372
aF1.6001982755683606
aF0.9201338905151787
aF0.23866795311044822
aF0.17703231480134446
aF0.6553226999088431
aF-0.37768844835780085
aF0.3029936386607996
aF0.5942836341957638
aF-0.1573451576941965
aF-0.6530975475142647
aF0.026452997749120515
aF-0.044517551481550045
aF0.03859939108244943
aF-0.1184375042139396
aF-0.2517982483954457
aa(lp6
F37.26418183028914
aF-4.344176435214056
aF-0.6883631633444167
aF1.5732036027853242
aF2.2818404136144435
aF-2.531564459588548
aF-1.8123538453653132
aF0.37073612540614775
aF0.3777741314810791
aF1.0629461102624096
aF0.29996579021698816
aF-0.12039488105237764
aF0.19014865416184218
aF0.7668776092349348
aF-0.5171379107560838
aF0.19817446354962015
aF0.6882485498321373
aF-0.15180799552844065
aF-0.669909011153465
aF0.14223248908194167
aF0.1596584244697312
aF0.1742778321302448
aF-0.1767354337324479
aF-0.39800143357490364
aa(lp7
F37.642781653349424
aF-3.8325926555244925
aF-0.135131534037181
aF2.253053531374997
aF3.2901960236296204
aF-1.7602758541673718
aF-0.972951736373692
aF0.4754145961503794
aF0.03809220446403559
aF0.9318262708771419
aF0.843633772498149
aF0.1475655402350123
aF0.1500133478098649
aF0.5873721252430325
aF-0.45103852004601325
aF0.20496940482486276
aF0.3455410012638688
aF-0.25978465152788244
aF-0.5778479855868438
aF0.11245250554702636
aF0.11848358692883637
aF0.17692245094135006
aF-0.2942279571617983
aF-0.45366636544238087
aa(lp8
F36.77392286988038
aF-5.21348412572849
aF-1.698433727525667
aF1.6035227476996547
aF2.8762389810216127
aF-2.5402240425920146
aF-1.7584321299693757
aF0.04577960477600066
aF-0.20357685321545316
aF0.8110335892896745
aF0.7077465470052055
aF0.2692668752286149
aF-0.01302916217990947
aF0.37006062010773927
aF-0.45501286341178815
aF0.2956505013846871
aF0.42376988081776445
aF0.013479993793401607
aF-0.48978212949677585
aF-0.24181330877283166
aF0.06920929425038673
aF0.28770094157530646
aF-0.18443300626456532
aF-0.23988995655221837
aa(lp9
F36.372532040995125
aF-5.473996804772473
aF-1.1498851244022517
aF2.4634429357510905
aF3.3115446592855617
aF-2.081014945943917
aF-1.623278195044241
aF0.14510191537677652
aF-0.9308596025322171
aF0.2965640516610852
aF0.5676976266392952
aF-0.03836513304599776
aF0.20903519743119145
aF0.8950444323709303
aF-0.2818865576616327
aF0.16823169294500234
aF0.0537941746478899
aF-0.4178440714732057
aF-0.6718785599899463
aF0.037142036942968894
aF0.20100730833375494
aF0.3291375004576098
aF-0.08285707353433257
aF-0.4432510333123871
aa(lp10
F37.25963578787758
aF-3.91310263681387
aF-0.13773239428404738
aF2.257730860164218
aF4.02512505167342
aF-1.31833822110822
aF-1.2163939698266624
aF0.47214439830244764
aF-0.04255692531557983
aF0.2443845404044849
aF0.894236724766576
aF0.20585204147214212
aF-0.36853982241146566
aF0.5841667988450407
aF-0.10981780855069219
aF0.021995569089280617
aF0.10870691492542699
aF-0.10584779139195989
aF-0.6444387377595207
aF-0.024377760410266996
aF0.2079564705119263
aF0.3136396339812622
aF-0.22986239860428725
aF-0.4167473741272652
aa(lp11
F38.90517133442687
aF-0.9500289954624993
aF2.4831760722434524
aF2.8544649904981325
aF3.7343521038705285
aF-1.261813986892916
aF-2.7040952427739002
aF-1.1997829321949363
aF-0.7139804848200223
aF0.24828703905077568
aF0.8659597536318334
aF0.5177167252690471
aF-0.3007792991924866
aF0.34083464713178285
aF-0.12386780571099022
aF0.05013568238839265
aF0.08187587523304758
aF0.11608826376096298
aF-0.26719529539451276
aF0.17343394367965786
aF0.3414365700835269
aF0.1844729284226424
aF-0.33072277592339366
aF-0.23965378252218528
aa(lp12
F40.072437820730265
aF0.19523325063429697
aF2.451810769178657
aF2.123230434781519
aF3.899243866646684
aF-0.9239741889908807
aF-3.441724875246227
aF-1.8864611323281515
aF-0.25267715386777323
aF1.0907993095283903
aF0.5667548059471075
aF0.21512831611830754
aF-0.2785290274258823
aF0.4008756945271696
aF0.04406968892859083
aF0.2015825295342164
aF0.09140854290948289
aF-0.18372849690999635
aF-0.4127367403485268
aF0.45181145428337544
aF0.5245008004463888
aF0.07158675978429385
aF-0.3912780445918642
aF-0.2392878074284545
aa(lp13
F40.154219071547935
aF0.39514040847548654
aF2.511136414124121
aF1.9076175986053574
aF3.7953895555745665
aF-0.8804024931827074
aF-3.7024187691106096
aF-1.8941887746613228
aF0.05690610989341291
aF0.9671697708541832
aF0.47763722386810764
aF-0.007409631135307761
aF-0.25151137470734364
aF0.48885653511975447
aF-0.14777566804460235
aF0.19869104115421818
aF0.2670842624291935
aF-0.11718445971378809
aF-0.3643980860146975
aF0.5828800209077925
aF0.5344561967480603
aF-0.03416056006566899
aF-0.46209782244808256
aF-0.2342466053525261
aa(lp14
F39.90629109142742
aF0.5651320940808733
aF2.7781647267474394
aF1.6558834355751713
aF3.419261265818538
aF-0.6428077706454459
aF-3.5804184725345416
aF-1.9516155649219435
aF0.22309099929350593
aF1.1973706910121344
aF0.1495868153617553
aF0.09768197672474678
aF-0.42982765247383525
aF0.4021085903238833
aF0.04109877381772027
aF0.23961236277112513
aF0.2268681655943315
aF0.023424441727834342
aF-0.2841956798053064
aF0.4137358769797838
aF0.5289036463287003
aF-0.048078570785585036
aF-0.4573593357700457
aF-0.07801303441041646
aa(lp15
F40.84449633525348
aF0.9425951575292407
aF2.302934148854901
aF1.3287153848860167
aF3.3570454282148927
aF-1.0235685829778887
aF-3.518184440379995
aF-2.0953775571473234
aF0.14834675057136748
aF1.431639202198864
aF0.3622991119051409
aF-0.03134751831966274
aF-0.5113825242726998
aF0.515862244711933
aF-0.0170660843202798
aF0.2674916117747192
aF0.18228476422352896
aF0.01831565800964144
aF-0.1897183510568484
aF0.43138480091293446
aF0.4851560254271972
aF-0.051875373972487496
aF-0.41077595220488217
aF-0.12650388588511016
aa(lp16
F41.4729366449181
aF1.1936284438230333
aF1.9428567664084997
aF1.1335037710153542
aF3.1592156684300514
aF-1.3732990903063447
aF-3.7267857247433622
aF-1.9214794518802532
aF0.13573443371725977
aF1.8764496905820531
aF0.6467810226968027
aF-0.3512568880677477
aF-0.5755126202096003
aF0.44043960484096334
aF0.07842460764281277
aF0.3015198922628738
aF0.3276838397096758
aF0.13863633027697345
aF-0.2482177559206824
aF0.3681077138417066
aF0.34277529051947947
aF-0.0037497261179313844
aF-0.23711513611313687
aF-0.051540186349129345
aa(lp17
F41.971348280649316
aF1.925833546829705
aF1.750334985616952
aF-0.000976223026958844
aF2.6293243046972434
aF-1.2112986331414226
aF-3.703764168128044
aF-1.950931540460476
aF0.5153136945036981
aF1.763910629767842
aF0.5132448488517131
aF-0.4546139884453019
aF-0.3316944917620309
aF0.387442315121473
aF-0.028340163129497324
aF0.295412535604425
aF0.3405393954941357
aF0.19794038372029082
aF-0.19367402963185246
aF0.4172404770942983
aF0.3223307397095319
aF-0.045102043009448825
aF-0.272058308901453
aF0.08592419447799775
aa(lp18
F41.49677779120505
aF1.8739824604876165
aF1.9324320843036227
aF-0.5439324845993665
aF2.2871872766936647
aF-1.1689651039827733
aF-3.8007669068531986
aF-1.884591530480408
aF0.582439450694235
aF2.0964711530667115
aF0.45548109912798185
aF-0.5143007510805838
aF-0.2877971887290867
aF0.514840447524874
aF0.07757090965520959
aF0.3533375151804369
aF0.3276901019701492
aF0.008798717688250246
aF-0.24444909699118222
aF0.5779406402415495
aF0.4502712312548297
aF-0.04784774007147416
aF-0.34635606281838727
aF-0.06150562281350179
aa(lp19
F41.078617159652445
aF1.480419800005116
aF2.148736299744023
aF-0.5571215088281205
aF1.5024314425101835
aF-1.36459299740298
aF-3.737919363071674
aF-1.846897449142029
aF1.028350899057904
aF2.0854460581195506
aF0.40106520903025683
aF-0.3720768115894575
aF-0.45597802241363555
aF0.6454617188898923
aF0.12453665040722584
aF0.1536415511997399
aF0.2276651772755847
aF0.16606263689757816
aF-0.04387021528968045
aF0.5383284819089549
aF0.37636877046426037
aF-0.029155982150709615
aF-0.30793343882475366
aF-0.057042118162900356
aa(lp20
F38.570284424129206
aF-0.14419672399702682
aF3.2747143402836225
aF-0.1937197729775454
aF0.8712694739297606
aF-1.7044760913405197
aF-3.202442865603421
aF-1.2360403056229745
aF1.4514235661396027
aF1.6890274602664717
aF-0.2690594215763687
aF-0.30185334213203685
aF0.2815489791496791
aF0.6321503657444862
aF-0.15740438176469962
aF0.05820168871679257
aF0.14883610967378957
aF0.22395260484011964
aF0.009591755735286629
aF0.5460747977492809
aF0.18951088096636534
aF-0.20787112152709877
aF-0.19790491203322177
aF0.20983249182032201
aa(lp21
F38.970218680212504
aF-0.07225726408263038
aF1.8920874525881293
aF-0.7867610087194836
aF1.0596609872411862
aF-1.6457968630675974
aF-3.223995830163517
aF-1.2055639184027784
aF1.6481845753732824
aF1.893893978590752
aF-0.00704990866328582
aF0.0855644905804338
aF0.1772556735668483
aF0.4662927761438557
aF-0.2768061530355812
aF-0.1826211268282909
aF-0.09426482828423204
aF0.18829513245765556
aF-0.178909982315019
aF0.11376904910535655
aF-0.13042604477620778
aF-0.37786111513298676
aF-0.16650670716658614
aF0.2962257781132901
aa(lp22
F33.370599091655244
aF-4.774970051927662
aF1.4553526392870832
aF-0.6761872624661045
aF0.056285239706603075
aF-1.3464925474886844
aF-1.9276864897294652
aF-0.7775291338799422
aF0.5959894124384725
aF1.2614586355267594
aF0.05090791765103911
aF0.046333390882078024
aF0.003967395727894664
aF0.535939797363013
aF-0.1715556036142331
aF-0.2163794854640778
aF-0.1868648478084564
aF0.19133424263647092
aF0.0696297158134393
aF0.08334409037129885
aF-0.20262712199905503
aF-0.08030869169671663
aF-0.021270327640227828
aF0.10892286240443341
aa(lp23
F32.16295877799406
aF-5.635967782621381
aF1.1276004526685013
aF-0.14160217913974762
aF0.8719410875244987
aF-0.04073785370752108
aF-0.08442710627764097
aF-0.0732457270025538
aF0.3455835523332158
aF0.49703416580666354
aF-0.2449796293716196
aF-0.013257840874080511
aF0.028339166847635613
aF0.2377801271890209
aF-0.5025459431233207
aF-0.06733829925791329
aF-0.19044254675752287
aF0.14691271627119623
aF-0.16246728471603514
aF-0.03612268592392117
aF-0.09057564979593422
aF-0.05827513909707105
aF-0.05152346520909897
aF0.033977623312936925
aa(lp24
F31.555130985888187
aF-5.995944164779096
aF0.9257087514428742
aF-0.7164150674701213
aF0.3816927751799375
aF-1.0759108612343666
aF-0.6458004269484708
aF-0.46151618157792607
aF0.02265795307550023
aF0.3006880984316179
aF-0.3462593758316752
aF0.09678113574693521
aF-0.2994765072033477
aF0.273860617772212
aF-0.13869433984325039
aF0.10607510067514479
aF-0.02063505804386822
aF0.20579997106968498
aF-0.178335405034361
aF-0.11593657704479508
aF-0.10364757435272509
aF0.020188237174577326
aF0.005172549533840391
aF0.047881340418233186
aa.