(lp0
(lp1
F36.927404761668896
aF-3.3397271155231545
aF-1.4260433498198184
aF-2.303901120248672
aF1.3804053752809813
aF-0.1068546552738961
aF-0.7218080874578318
aF0.23551401752860485
aF0.5929534156587032
aF0.36182025113444877
aF-0.6862821099234869
aF-0.23926020914293436
aF0.17000619253020385
aF0.9696088221079905
aF0.07689897881072619
aF-0.1311226555942953
aF-0.19710205888683927
aF0.19914763388161966
aF0.10098209459963949
aF0.12548692697237637
aF-0.1483318756122585
aF0.0031798155848832203
aF0.10942655946429926
aF0.1989223549928128
aa(lp2
F41.70660260373377
aF-0.09051772232346894
aF-1.2213276486915594
aF-0.7702075275653444
aF2.6726064224530464
aF-0.46313661838686476
aF-0.4962103759231287
aF0.757488886289367
aF0.04691792460031221
aF0.5370625355568485
aF0.03126881250545805
aF-0.3603910918796684
aF-0.012396767550432569
aF0.7626104705661637
aF-0.32273607497687745
aF-0.0952677855673491
aF0.11631685348373681
aF-0.10821717007109458
aF-0.25351265824554264
aF0.13157004871923642
aF-0.386039538844348
aF-0.13878910239379189
aF0.09302400771012866
aF-0.06371077211521889
aa(lp3
F40.390944204366264
aF-0.9857780507848597
aF-0.42035790061179706
aF0.4178729394287679
aF2.867780715193695
aF-1.2126614978686867
aF-0.6907657632794463
aF0.9955209308465229
aF0.3087157668700832
aF0.4980570730680598
aF0.4163838841860574
aF0.014254631409463927
aF-0.7215300024704044
aF0.24337373454676223
aF-0.009178709690005586
aF0.13765057659827637
aF0.20438662798012483
aF-0.008048725845974273
aF-0.40715484995252244
aF0.06416254176121344
aF-0.028227481168779406
aF0.03904871604991791
aF-0.14449214478031658
aF-0.17698336727466468
aa(lp4
F40.57819984834378
aF-1.2595523410793186
aF-1.1609422156547553
aF-0.27188449909558254
aF2.677467820033373
aF-1.5115646126726914
aF-1.198746085653661
aF0.3661674935018884
aF0.11353522451736588
aF0.8059771703650953
aF0.7558024357406143
aF-0.189111388925342
aF-0.525696535455175
aF0.5400611096274727
aF-0.3275630861486157
aF0.38324302112172914
aF0.29517790348818834
aF-0.18770512597479272
aF-0.3696378217084438
aF0.27480096171602103
aF0.10217592053365612
aF0.06396977312275345
aF0.004097912203597143
aF-0.25845489980252034
aa(lp5
F40.24346721821849
aF-0.9126496143938398
aF0.5127776260716438
aF1.2786586096939643
aF2.9168283713889407
aF-1.7013876071277527
aF-1.4297437910320954
aF0.7309390122788569
aF0.1306402537520096
aF0.5273115261342057
aF0.6606590065522914
aF0.5416758085014675
aF0.12025996798765719
aF0.5146481900275278
aF-0.4503551816665631
aF0.023165618241902917
aF0.31973729352668007
aF0.05334324364737317
aF-0.5400109277647265
aF-0.217537724657711
aF-0.1401224298535988
aF0.11970127017605689
aF0.02493345993872058
aF-0.1105549661737882
aa(lp6
F39.521912204063
aF-2.204544421344142
aF-1.0222454067230138
aF1.031713633337465
aF2.070180956381154
aF-2.5899502490641133
aF-1.3749536535103053
aF0.0169760941686096
aF-0.996398216525327
aF0.4470406045303367
aF0.8868376969582902
aF0.3615894137966337
aF-0.24743609604189032
aF0.3258613712053244
aF-0.5288158151942619
aF0.2539067049839428
aF0.501371892476189
aF0.051721158691323
aF-0.44190804512200155
aF-0.2177687338427819
aF-0.22380107878167657
aF0.1810702443447941
aF0.1560142492470477
aF-0.09193793899427376
aa(lp7
F39.03977272431053
aF-1.9088275976747064
aF0.2791679558832105
aF1.8980854293777634
aF3.2350959737004685
aF-1.4354219172955414
aF-1.0130422237050254
aF0.5188501297492724
aF-0.08749644571996981
aF0.8367099034459329
aF0.8934002906508227
aF0.3926836100132685
aF-0.045016199514599155
aF0.5081201066013908
aF-0.592486625278429
aF0.27156256097925885
aF0.42826496668683905
aF-0.1118035375944249
aF-0.38888506300549514
aF0.1625718102152845
aF0.07492911706299621
aF0.10347190835379508
aF-0.0754228930646874
aF-0.33590706525890074
aa(lp8
F39.14329341009524
aF-2.2443540966173137
aF0.5069979266071282
aF1.776952083571527
aF2.933752745945218
aF-1.6690221313843772
aF-1.2593817893552408
aF0.28028181051933204
aF-0.23965301123560126
aF0.8177560282188738
aF0.7847805167586323
aF0.08573431674835645
aF-0.2763798171455386
aF0.38986827526067663
aF0.054341587179382804
aF0.37086759724011825
aF0.18386952863632094
aF-0.15629298661709637
aF-0.4337811925298744
aF0.07328647418627972
aF0.17757503877888245
aF0.2653910497269919
aF-0.21827660368851629
aF-0.2567758771469101
aa(lp9
F40.43633589099802
aF-0.525649144652063
aF1.428928325036363
aF3.137133052543139
aF3.7350215990316107
aF-1.829003703428706
aF-1.9288916761549566
aF-0.37745677888480106
aF-0.6502300353165754
aF0.42735253168537296
aF0.4527577560372526
aF0.09059147777802566
aF-0.23472759082766131
aF0.3268739732065494
aF-0.20643209943137855
aF0.3726615332423884
aF0.42171304406992804
aF0.1279674902302599
aF-0.4695691589064312
aF-0.03495065134651815
aF0.2626781179456053
aF0.3331053981156452
aF-0.13190722567917335
aF-0.24154262755036215
aa(lp10
F42.866234464532575
aF1.7646265761189168
aF2.221956284687344
aF2.251577861613896
aF3.6346964006682696
aF-1.589256062938941
aF-2.899364332136058
aF-1.2038278871256871
aF-0.7622534469606923
aF1.1890588797095392
aF0.7818080268538887
aF-0.0517021280612227
aF-0.4857952573468599
aF0.20484783055603298
aF-0.12269617441884156
aF0.32864070450941973
aF0.3786057273304289
aF-0.2491268950674125
aF-0.5521707341749672
aF0.26321574123326363
aF0.31142289038200155
aF0.18757556752492385
aF-0.14444088440583386
aF-0.17800587984874924
aa(lp11
F42.443433459381104
aF1.6470910397168472
aF2.4576628730819987
aF1.8183781378465762
aF3.347391870916987
aF-1.4568157608811967
aF-2.455339869031863
aF-0.8796801610602388
aF-0.6604716439114449
aF1.2176300035863237
aF0.6673387464067813
aF-0.17698362640176618
aF-0.21841264792166684
aF0.4256132185365328
aF-0.17659685960376212
aF0.2368982151703007
aF0.381836997300076
aF-0.18732215628197627
aF-0.39494926464112917
aF0.38834891597092075
aF0.25541079166066494
aF0.1022287067292392
aF-0.19453573754835665
aF-0.18240378393954268
aa(lp12
F43.811857289624186
aF2.267969295731842
aF1.533405408498281
aF1.7827830198948509
aF3.8670051514905825
aF-1.5416863359001016
aF-3.110161709196346
aF-1.3271186684431269
aF-0.6400350103344534
aF1.5083161848812756
aF1.019066062797354
aF-0.48338625997445633
aF-0.4747068252835356
aF0.5074194063059637
aF-0.1439085346154229
aF0.2988016897424417
aF0.5229703630404758
aF-0.32181545820510504
aF-0.5373388278434906
aF0.4912435495106855
aF0.20516968782719108
aF0.10714032579906403
aF-0.06922557612664343
aF-0.2319236588210422
aa(lp13
F43.98646980926749
aF2.371542756786766
aF1.4239114559451596
aF1.6608251419493218
aF3.325245156287452
aF-1.5469595760503019
aF-3.021562074735277
aF-1.1366740704648401
aF-0.5664179093857105
aF1.6976634138937774
aF0.931509855791441
aF-0.6460075329304439
aF-0.38080145703180074
aF0.5142437195144903
aF-0.14983698733317108
aF0.3025486347639854
aF0.6320562301574252
aF-0.3252969338142185
aF-0.5083547576268699
aF0.6557841775340271
aF0.2692166928531208
aF0.023414868444837676
aF-0.1558004594673122
aF-0.2949061127798115
aa(lp14
F44.276373990704876
aF2.6971441233675564
aF1.4049308871359818
aF1.143243826372688
aF3.2361247813954606
aF-1.5783201451809306
aF-3.312067564434442
aF-1.3550641934095053
aF-0.14337131463328726
aF1.8928610055522912
aF0.9001879512084582
aF-0.544717793282523
aF-0.6049194970740011
aF0.3127291683310947
aF-0.0683592412879429
aF0.45337974009409737
aF0.5305190884439165
aF-0.16969370384389965
aF-0.4482829741050011
aF0.46010337545988633
aF0.3213618636773788
aF0.04533233535383844
aF-0.20385984678701508
aF-0.17910753060213977
aa(lp15
F44.6695523332503
aF2.8879726510678205
aF1.0347560991792208
aF0.8102297965540256
aF3.003456646526407
aF-1.6131691337419392
aF-3.199920320117733
aF-1.3566069510855212
aF-0.15520543959889507
aF2.0344176501234923
aF0.9565293269189915
aF-0.4941921219139726
aF-0.4862769431030531
aF0.34996061391651945
aF-0.3852106997850307
aF0.2731517262485998
aF0.8607701955119431
aF-0.06912969328943237
aF-0.4678680632180576
aF0.5790591609654566
aF0.12919835869540525
aF-0.08474800472549232
aF-0.026233602040698443
aF-0.08625131750748721
aa(lp16
F45.1158316647267
aF3.135952478486091
aF0.5818565776299041
aF0.24064062110514972
aF2.7730736225395782
aF-1.6222472364141298
aF-3.2374603784646223
aF-1.0688123412235784
aF-0.17306701875750982
aF1.7487730485262
aF0.920894469597853
aF-0.3147400000833976
aF-0.38737152667241265
aF0.41967687746956317
aF-0.33076968652514294
aF0.10662712083249913
aF0.7100252581759096
aF0.03136715435450774
aF-0.2521479971280244
aF0.6004264635143866
aF0.15241769934396315
aF-0.06458414946161015
aF-0.12595323051585722
aF-0.12188123311572478
aa(lp17
F44.578383463592935
aF3.091929305114404
aF0.8041225382873664
aF-0.4584334340119076
aF2.5134900015078188
aF-1.3466908563590447
aF-3.33500878136027
aF-1.1492139945347952
aF0.12534119144135772
aF1.8493670611170632
aF0.8346156389204054
aF-0.5009972336021462
aF-0.5704280046567702
aF0.41776690768930075
aF-0.040233946717137134
aF0.3664316988200398
aF0.6698477460463151
aF-0.09402339361843323
aF-0.2909484263099134
aF0.6593537472079753
aF0.3666976879354128
aF0.0327981908159532
aF-0.24135356362177218
aF-0.1533298962091393
aa(lp18
F43.330566966360436
aF2.51031874157854
aF1.7530809537309404
aF-0.43703933746901513
aF1.8911885420638106
aF-1.7781733675614186
aF-3.13446335163725
aF-1.1385713076105823
aF0.23138182381816086
aF1.69822874156167
aF0.9158174320356766
aF-0.43705762104233414
aF-0.4986038547321845
aF0.370863373224835
aF-0.07014214579229153
aF0.3770058324764834
aF0.5929589185307703
aF0.03516029571877025
aF-0.3369590039911906
aF0.5775051437534425
aF0.29160310126947003
aF0.022549462760399833
aF-0.14482728898135755
aF-0.11248729025453223
aa(lp19
F39.82262622290989
aF0.49523624559865514
aF2.7186175855009673
aF0.5739901671557007
aF1.4581377895281955
aF-1.6093389689182116
aF-2.501497447658831
aF-0.8531724094334993
aF0.3233629856487356
aF1.1388324230086602
aF0.9106427896171125
aF-0.031159845165183407
aF-0.5023839990682176
aF0.3707650891427437
aF0.0072199716561541175
aF0.2602971856458281
aF0.2758142220508761
aF0.24359982679343714
aF-0.16952208973839164
aF0.3621979473149976
aF0.2701069660118328
aF0.06217268664178567
aF-0.21907340473989464
aF-0.15100279962368215
aa(lp20
F36.74828259935561
aF-1.3242286540349335
aF3.3737242039883393
aF0.0995769397869959
aF0.7959139306395714
aF-1.1878461790948653
aF-1.4570433071739333
aF-0.05988082444360013
aF0.8668094842675701
aF1.4547677081469912
aF0.5325072265366678
aF0.37378789594960965
aF-0.1380661451621029
aF-0.0006870967249934381
aF-0.5066622855664409
aF-0.24952349880216382
aF-0.18570835297562124
aF0.11791125044817168
aF-0.22152168190189905
aF0.11046282619524292
aF-0.0006108534373113474
aF-0.10174513766972934
aF-0.15748193028033364
aF-0.05639392694698516
aa(lp21
F32.72112615761544
aF-5.4151160878881175
aF1.7532342127299767
aF-0.3332010147326022
aF0.3919849504791726
aF-1.0894863682255627
aF-0.42415741883533453
aF0.1261397042863239
aF-0.02319394454119249
aF0.3895129632767743
aF0.05651744556958056
aF0.03466936093087648
aF-0.5278525840631625
aF-0.028768565090900325
aF-0.08687569733705273
aF0.24699865210606242
aF0.014248174980517454
aF0.2703824912431676
aF-0.2013684056831948
aF-0.05950046693383364
aF-0.07939246813455955
aF-0.015020151764729234
aF-0.00640793101715159
aF0.02123069594322658
aa.