(lp0
(lp1
F40.83313928397423
aF-1.5360272981141312
aF-2.383648498219494
aF-0.22173345976066913
aF2.486185883613886
aF-1.2503295049476466
aF-0.3969042763349698
aF1.3386216568045524
aF-0.028847139537701672
aF0.1210186208813697
aF0.47466554318570503
aF-0.032742760927254116
aF0.04603079258497407
aF0.6905640287340234
aF-0.40615574933048615
aF0.15609149096061142
aF0.26194374607929954
aF-0.3393948893888918
aF-0.3910457633215905
aF0.17611918607332955
aF-0.35201530784517937
aF-0.03371532523268392
aF0.07810284874574926
aF-0.24628807187380988
aa(lp2
F40.110411822603034
aF-1.5421783946870182
aF-0.7862177818414624
aF0.7981868307780854
aF2.6291714389196637
aF-1.5903046792852513
aF-0.3359083087344791
aF1.4560099655831875
aF0.22064653312221572
aF0.8420860460267803
aF1.057247865639921
aF0.017081355108548406
aF-0.5639877397968985
aF0.39953554927541757
aF-0.09956874064470479
aF0.21707745651668583
aF-0.015416102241887965
aF-0.24399760475338708
aF-0.3834839603496359
aF0.048061960877074345
aF-0.10819821733977696
aF0.005691341439452893
aF-0.15807087389617494
aF-0.2663158677862881
aa(lp3
F41.275170080933655
aF-1.3222993666042175
aF-1.5753043000311127
aF0.9134167200429207
aF2.811393946911555
aF-1.4883215267102705
aF-0.3191516356088541
aF0.7891476566520204
aF-0.16651711491384652
aF0.8796128677613145
aF0.9665289098574943
aF-0.24479269999254405
aF-0.38674408926540427
aF0.725570133713641
aF0.05244862748699104
aF0.40344064019042736
aF0.19463317748932538
aF-0.19087728049272112
aF-0.32827809758455706
aF0.12274413723312634
aF-0.03465780338696931
aF0.14274789455162182
aF-0.10548500136999608
aF-0.25811472592298773
aa(lp4
F40.88721597327643
aF-1.4316205796715995
aF-0.7925069574727581
aF1.4288475125562465
aF3.158880565321282
aF-1.4340343625790422
aF-0.39222775079684896
aF1.134255866126353
aF0.00034196570952663776
aF1.0250499087888185
aF0.9384250536419243
aF0.14726370365931193
aF-0.014274745623833572
aF0.5124216706012409
aF-0.3284783503342926
aF0.1347258534413382
aF0.19964344530346426
aF-0.16691458432920234
aF-0.2360848941698772
aF0.16199878923390737
aF-0.02822614208815003
aF0.16924456953824515
aF-0.07943951025545838
aF-0.18143707350406696
aa(lp5
F40.38568817308331
aF-2.4944451573061266
aF-1.7993053449655803
aF2.081021104517348
aF3.839075800817869
aF-1.7674042541292379
aF-0.720160848997535
aF0.6993488744709244
aF-0.5789209439460741
aF0.5012723975111962
aF0.7520087550002676
aF0.1177853103415673
aF0.2492826484738929
aF0.8572832794930152
aF-0.4023391365561987
aF0.20668623565134583
aF0.5214293755879116
aF0.0009826227958928343
aF-0.2536271826574075
aF0.23706682831783235
aF-0.03762528883301668
aF0.19531689442152303
aF-0.015987712650293515
aF-0.3339549948251686
aa(lp6
F40.66084072083513
aF-2.433230448181435
aF-1.3574649759486954
aF2.549719798970593
aF3.763600199895359
aF-2.1652145431163556
aF-0.8339427032290078
aF0.9472404490920892
aF-0.42503742831414
aF1.0555287256699883
aF0.9918550207025705
aF0.250354978570573
aF-0.246316041119318
aF0.30269493929632507
aF-0.4334981114997626
aF0.1532786026570548
aF0.1724554498842551
aF0.021796113636470247
aF-0.24363196158087144
aF-0.11398263709209011
aF-0.020662357444293268
aF0.22904412959048284
aF-0.10451950431413501
aF-0.20375223280514487
aa(lp7
F39.54255329916621
aF-2.6788483851423894
aF-0.7917345646768835
aF2.602033156320753
aF4.3395288893177595
aF-1.236012014892756
aF-1.0428219285919171
aF0.24877613386358652
aF-0.5031485635415432
aF0.6139517218006935
aF0.7312545045325128
aF-0.018205769627729296
aF-0.47715562156345515
aF0.39826801959837194
aF-0.15758533631465566
aF0.2344552604865215
aF0.023850739259991274
aF-0.34191148046426045
aF-0.49429045391789117
aF0.09912701694354259
aF0.19784199036845024
aF0.2752924290076623
aF-0.12183515573390503
aF-0.2930352927895337
aa(lp8
F38.84713239763042
aF-3.383106888790367
aF-1.2796070910935147
aF2.5969297372954627
aF4.118546551759786
aF-1.6555099828589923
aF-1.3638000286045022
aF0.3184367208606215
aF-0.32703358068981947
aF0.6356478607738041
aF0.48305048477926016
aF-0.2975748299052365
aF-0.480368851588108
aF0.34052362152693383
aF-0.34927629338818006
aF0.5242070158921612
aF0.7093166895207597
aF-0.021613566773156238
aF-0.3982084599386028
aF0.1232118037938589
aF0.08500667010846392
aF0.210299633264432
aF-0.17800412370751884
aF-0.4133122492670736
aa(lp9
F38.33427164855217
aF-3.515079155072661
aF-0.753425964908135
aF2.2041662882583632
aF3.9096259662902444
aF-1.2835365318302328
aF-1.4846731933579198
aF0.03310147434135615
aF-0.34770093337150376
aF0.7266836720207167
aF0.9346641408843739
aF-0.1304982931649406
aF-0.4304165075006046
aF0.47487243305574806
aF-0.026298458291839806
aF0.660777308191512
aF0.6187670326205769
aF0.3112879937999782
aF-0.22026677968301434
aF0.20442382895545794
aF0.1956516223204195
aF0.18829515130932187
aF-0.13434252534524468
aF-0.3325063981167795
aa(lp10
F39.50612440690478
aF-0.8426083381153627
aF1.6444455815021461
aF2.833084078833521
aF4.564697369157652
aF-1.0598558493593124
aF-2.257238063412641
aF-0.9107311984705954
aF-0.5675517361876272
aF0.2787165670772544
aF0.3432078599022224
aF-0.01480283320872731
aF-0.18535917425371548
aF0.37516422507689984
aF-0.31890667066267997
aF0.37735431207526704
aF0.4986144413561939
aF-0.0019684904464243435
aF-0.3768489320167449
aF0.21034543824732171
aF0.1990927748298507
aF0.15801758094302204
aF-0.2252285830308584
aF-0.2574889889031644
aa(lp11
F41.463436866115856
aF0.8292206748853436
aF2.394614239742329
aF2.8213383993789765
aF3.7009704634853207
aF-1.6606271518655358
aF-2.6145249023881885
aF-1.4376676486878393
aF-0.8878023930235834
aF1.299488786711247
aF1.0999419175126586
aF-0.25018600348506015
aF-0.8009995896410615
aF0.5830314845044057
aF-0.014046155647071616
aF-0.005585693414057278
aF0.09756496907287825
aF-0.1853248481437856
aF-0.1760232727316647
aF0.5077562589649949
aF0.266543910065497
aF0.12874152806742728
aF-0.35210018868806947
aF-0.5307172202979834
aa(lp12
F42.349795428438675
aF1.3919788561930813
aF2.310576646635312
aF2.555341156973377
aF3.707479747402201
aF-1.7366011897961258
aF-2.8079882451428118
aF-1.5631731522424426
aF-0.9899936057618224
aF1.4552279120460112
aF1.2194897747277267
aF-0.8181690143740397
aF-0.8506250796052617
aF0.8334363176562128
aF0.20513526493863599
aF0.1750363172970231
aF0.1305965606374735
aF-0.4071176278478694
aF-0.40925453747875296
aF0.5514910422602174
aF0.2839479836847386
aF0.24709008176773242
aF-0.18809666703118916
aF-0.581872868062168
aa(lp13
F43.13460264262527
aF1.6711824176129317
aF1.740655388646069
aF2.0109317436287393
aF3.5940280660254955
aF-1.5113693791196183
aF-2.6524045061205523
aF-1.5402442927227078
aF-1.1511661116683582
aF1.4496535412260136
aF1.2882512368363097
aF-0.7125012945926454
aF-0.8131574836917627
aF0.9199393056728381
aF0.1222009531770065
aF0.12281191657453791
aF0.15937445473332157
aF-0.3996196451910501
aF-0.2993675055408684
aF0.6234974891971387
aF0.3058481893551551
aF0.20818806006075713
aF-0.266515626870708
aF-0.6484340336100689
aa(lp14
F43.331241324799
aF2.2162041266437096
aF1.7716626455848443
aF1.4042441207943468
aF3.099852895262666
aF-1.5138604435394265
aF-2.4653518562862673
aF-1.4432010328616636
aF-1.3130997421198403
aF1.417347329519765
aF1.4542134516638248
aF-0.7406289053554551
aF-0.8829819304953499
aF0.9686374851686765
aF0.25329948607128683
aF-0.1002705908215513
aF0.10770126639785121
aF-0.05193023878064738
aF-0.13690985276459072
aF0.37305253557788853
aF0.09900853279370651
aF0.3532987196244422
aF-0.12973382651670218
aF-0.6494691364172003
aa(lp15
F43.61054131321168
aF2.2058855157409027
aF1.648259269471883
aF1.1405469623124116
aF2.602757748270143
aF-1.4963430314024961
aF-2.359071379907393
aF-1.4168591216079003
aF-1.176265304281127
aF1.530770601410893
aF1.3761102955268747
aF-0.6989131374622732
aF-0.6947835055239484
aF0.9019024936922244
aF0.052044591178322865
aF-0.025302282090643956
aF0.23689706438004424
aF0.015997563200209525
aF-0.1452264633054129
aF0.42407830263362495
aF0.08542247095157024
aF0.21986659785992219
aF-0.08893761558027606
aF-0.5149631905990905
aa(lp16
F43.7010264904208
aF2.5345979732697543
aF1.5218630078404065
aF0.6529256682631798
aF2.383425326222155
aF-1.661320843033195
aF-2.229940587345468
aF-1.448955357667336
aF-1.1340233050829078
aF1.8360904776809592
aF1.5822470390958474
aF-0.9325592529457728
aF-0.8219242342097498
aF0.9082816950249706
aF-0.049726493649255465
aF0.018777016592086016
aF0.38841716198774484
aF0.15513698068499318
aF-0.08912737439175288
aF0.28470356765710053
aF-0.015577968005060117
aF0.2825083139045355
aF-0.011017403953307374
aF-0.4823761582110909
aa(lp17
F43.84271283604614
aF2.7408384865424065
aF1.3363864151684293
aF0.2964670087467003
aF2.0691983692574323
aF-1.57931184179443
aF-2.625070300665783
aF-1.5474829288962773
aF-0.6518402882769451
aF1.8993560571244026
aF1.454870507917283
aF-0.7337708161435783
aF-1.0108484463355272
aF0.7119674214229162
aF0.08891109989722924
aF-0.013816438729527649
aF0.4623312755603572
aF0.28829516713019177
aF-0.10033170992122141
aF0.3101271467974031
aF-0.0028554859298433807
aF0.27748192932223337
aF0.01339902240105544
aF-0.45179372984178556
aa(lp18
F42.516406625664985
aF2.5581316659862616
aF2.399463319833456
aF-0.2287518568113376
aF1.2046673925151707
aF-1.1377483245887072
aF-2.7839946787499144
aF-1.6951068008821228
aF-0.14115398726565676
aF2.154056950222075
aF0.8744425873676683
aF-0.6795304400286052
aF-0.8336148074022746
aF0.6861404708933733
aF0.15109864779372975
aF0.0200821565172656
aF0.29978320158725597
aF0.26875159570454094
aF-0.048644523321494326
aF0.39550652727661223
aF0.3041173129389435
aF0.18069525377330126
aF-0.2314378063981413
aF-0.3659385641533123
aa(lp19
F40.16257152012921
aF0.9355410194572157
aF2.628996144725699
aF-0.23966056998270993
aF0.762713444425456
aF-1.191385200862406
aF-2.679899488395657
aF-1.8190645407220527
aF0.34544699499582626
aF1.9561083578534124
aF1.131031782745794
aF-0.09043023922936629
aF-0.4297606485432062
aF0.49188991347453676
aF-0.05312688020763705
aF0.07770621550448963
aF0.16567967804487774
aF0.30769528863331036
aF0.10738859080329584
aF0.48562220719309757
aF0.29328010137579785
aF0.06912542854418495
aF-0.32090619348053123
aF-0.2655034198536767
aa(lp20
F37.03857213013126
aF-0.9870580965581767
aF3.4512943105462903
aF0.36595991008663475
aF0.2941089370150614
aF-1.3854798893624938
aF-1.4383449629039622
aF-0.6521732933834592
aF0.24590173994490788
aF1.093056687194608
aF0.551864304241724
aF0.1970741216812465
aF-0.2826992914078831
aF0.6911615732561027
aF0.16339542813299046
aF-0.019546479192680512
aF-0.0017911293957975027
aF0.1853153913699074
aF-0.12786910895587209
aF-0.02066006252217758
aF-0.07321174525264781
aF0.09950788106740677
aF-0.0518119167988945
aF-0.015892815700762453
aa(lp21
F33.634736960222824
aF-4.253460518640324
aF2.2238005544176156
aF0.0715006038903054
aF0.47156699369868926
aF-0.6735737453039892
aF-0.4688779546867359
aF-0.3547318142599564
aF0.2358956536635019
aF0.9706035080210088
aF0.3105961784633462
aF0.5268313966009716
aF-0.11165897630301033
aF0.28295575655520006
aF-0.19653521206027708
aF-0.21082380823489152
aF-0.1887393614604267
aF0.11035377711764978
aF-0.031447885765387186
aF0.050266371875917405
aF-0.12972978672571533
aF-0.009271646504354998
aF-0.1009187649513648
aF0.009418799231452328
aa(lp22
F32.71421961718351
aF-5.272249426758874
aF1.6058254635979041
aF-0.23744254358475875
aF-0.028909188542924753
aF-1.0459772769999551
aF-0.4991968413111816
aF-0.2199279766952042
aF0.3356539934851496
aF0.5748140008371362
aF-0.20827912353099864
aF0.2303748736228107
aF-0.15310717776783625
aF0.549545367450164
aF0.1707325400451822
aF0.1150254193212028
aF0.05215679228039709
aF0.23895075476077998
aF-0.08397122306469004
aF0.11977203574714519
aF-0.016956567283106943
aF0.04574394692878336
aF0.01846906720099607
aF0.07391637044170486
aa(lp23
F31.0379830648531
aF-5.7480706550555425
aF1.2844446073515483
aF-0.5788052136646693
aF0.2508221911121451
aF-1.0967311298624038
aF-0.5614350727224899
aF-0.38238045219901995
aF-0.21715144429830927
aF0.24080524348080973
aF-0.23252669395977332
aF0.0011406461155383232
aF-0.38996313307119546
aF0.34098241985701394
aF-0.20620732029249814
aF-0.14954348908647397
aF-0.36895752599727877
aF-0.07460517299701816
aF-0.22775335265219518
aF-0.21178741752656446
aF-0.14030457104822158
aF0.0770374912784198
aF-0.023469552284868328
aF0.024193123807498315
aa.