(lp0
(lp1
F29.54037920885808
aF-6.788753589026145
aF0.849808716025698
aF-0.45506332571327546
aF1.2123641236027627
aF-0.4147195760461275
aF-0.03366874809971988
aF-0.17457523831429422
aF-0.18189738628273672
aF0.20135707025863755
aF-0.24808565738089916
aF0.4205952905996994
aF0.11771126282352878
aF0.4658940772640651
aF-0.1205932752411982
aF-0.03038890776173759
aF-0.12724406487477416
aF0.03858552175322484
aF-0.10985597567775592
aF0.09864566268949088
aF-0.08024979192073121
aF0.04804480403406979
aF-0.0044524866101157655
aF0.03925892047544752
aa(lp2
F30.556630809280104
aF-6.708502342957816
aF0.3594960148099008
aF-0.7956031580598197
aF1.0124726731591327
aF-0.269426542953125
aF-0.18089592827741263
aF-0.040565430138114325
aF0.1104317369891375
aF0.5978536586193519
aF0.1680181473513723
aF0.5581999276345154
aF0.21927102443910393
aF0.5876021490806703
aF-0.08791949236887864
aF0.3513224230458622
aF-0.08119602987226544
aF-0.07908871251578675
aF-0.24209564205996834
aF-0.15650447426520084
aF-0.09600573430241474
aF0.02303654357505887
aF-0.03546056109384456
aF0.008566342507461255
aa(lp3
F34.40912900200323
aF-5.24844846108415
aF-1.4813363715587093
aF-1.9758666643051948
aF1.5675444936429543
aF0.4677437631171728
aF-0.5546065056028976
aF-0.6897371822046838
aF0.5262152480122431
aF0.9056328232849478
aF-0.05948679934630162
aF0.24604682638488082
aF0.13410246421035546
aF0.690702732906375
aF-0.11835358821919921
aF0.002720477395151268
aF-0.18801155882235687
aF0.1643010713142307
aF-0.09612208344768779
aF-0.06462213740512246
aF-0.15911961170816138
aF-0.06999155364495907
aF0.05022152559254145
aF0.07517375278918623
aa(lp4
F40.250949576557495
aF-1.026425234129269
aF-1.2875043354816222
aF-0.9335994933531195
aF2.8951537415445183
aF0.25131665862578867
aF-0.5032635799270898
aF0.5358318209288974
aF0.7268918053256828
aF1.0548975024954423
aF0.22134278868483187
aF-0.4790510836563944
aF-0.2128751563999478
aF0.6864701450390872
aF-0.5444028011829567
aF-0.08014734713445158
aF0.09283253067135058
aF0.003954705156217731
aF-0.14293497732612112
aF-0.004363499577092724
aF-0.446078729813118
aF-0.22548313763059452
aF0.07096429858024891
aF0.028068916020754058
aa(lp5
F38.30315872797261
aF-2.5268239444865412
aF0.1038975663137308
aF0.7818146764276253
aF2.864195991756411
aF-0.9763994550090082
aF-1.292192300778231
aF0.6323664544943647
aF0.915623604623545
aF1.2922152879521824
aF0.7935313522274356
aF0.4336687499408524
aF-0.30599733054936346
aF0.33474641315792786
aF-0.3022440076577461
aF-0.14287113238507645
aF-0.1588921511726552
aF-0.023628219769746016
aF-0.15553006712679993
aF-0.013823398422108217
aF-0.22528541388482948
aF-0.09694428715109185
aF-0.04708347500853645
aF-0.007139220780092153
aa(lp6
F37.8075494400476
aF-3.4168509492715278
aF-0.5272204008218315
aF0.10724993085950964
aF1.6828257922520935
aF-2.3568122006140633
aF-1.7435172757083193
aF0.35765098729648537
aF0.08451417010857191
aF0.7409720485436224
aF0.5685446759730363
aF-0.04510458436546996
aF-0.03984341256980594
aF0.7420198871783478
aF-0.33151820393216525
aF0.17816519912423381
aF0.29089578036690517
aF-0.16614964914553706
aF-0.3756000928945588
aF0.20030061619723719
aF-0.060845565254089545
aF0.01584485189568587
aF-0.0372813956997681
aF-0.24572377679953544
aa(lp7
F37.59133378278414
aF-4.114793199948307
aF-0.9107863434078809
aF1.012093323676711
aF2.0609734916987863
aF-2.573408970811715
aF-1.3399574005864259
aF0.5598183734707471
aF0.027796227826350488
aF1.4810971924317762
aF1.112210896282542
aF0.09532571801888115
aF0.24229352935605067
aF0.8491223354726382
aF-0.3396980924629058
aF0.1172463550311506
aF0.42061934990718647
aF-0.11483557774466964
aF-0.39981498273119603
aF0.254803323737928
aF-0.05898161059284069
aF0.01563552907538209
aF-0.09475582143904754
aF-0.3230183889771896
aa(lp8
F37.492848334225094
aF-4.104133997428319
aF-0.7867144868326348
aF1.5863480264814374
aF2.878398077098422
aF-2.0876449194310784
aF-1.278818391747784
aF0.010318419679170875
aF-0.4027768517848828
aF0.93216976767751
aF0.8627252530702233
aF-0.22825705235870455
aF-0.1229592243680093
aF0.85499557099175
aF-0.255605441814524
aF0.4207699651320182
aF0.5367646751567582
aF-0.21245783031271506
aF-0.3265233978461228
aF0.5457870897229699
aF0.25911502063122294
aF0.16237860256306122
aF-0.14465334188127454
aF-0.44293020222069934
aa(lp9
F37.84077952133322
aF-4.097986195406386
aF-0.646643865139832
aF2.098006433413558
aF3.0508358223588496
aF-2.3646515987227485
aF-0.9718458083142781
aF0.8953084290608533
aF-0.24352789911565761
aF0.2785869328447459
aF0.6882830171440754
aF-0.10813762527481648
aF-0.500699269216277
aF0.4926775465259156
aF-0.389108462311528
aF-0.12229995114567847
aF0.0016285533912754324
aF-0.014762774598228284
aF-0.16662113859731847
aF0.16715109498684236
aF-0.00021627275099837053
aF0.1539051858325415
aF-0.15527895825862947
aF-0.3892497254268009
aa(lp10
F37.77030137967292
aF-3.3740410724356003
aF0.023523272692368494
aF2.0331624147263745
aF3.407679066863165
aF-1.6093989358270715
aF-1.2890236402156912
aF0.39525771585809344
aF-0.3279267936373772
aF0.5534879044367217
aF0.7087693605125197
aF0.02394752291099733
aF-0.45567474640911393
aF0.5698043458811175
aF-0.018332675371399598
aF-0.008328940248728472
aF-0.04393138280404799
aF-0.1131608398405603
aF-0.36350513284988306
aF0.13270044212624466
aF0.15742646550052514
aF0.1920060860345576
aF-0.2176857149521677
aF-0.38118225102975606
aa(lp11
F37.93760615495595
aF-1.7972763161791814
aF2.477180544748636
aF2.330797102738525
aF3.0316120191934477
aF-1.0552431517096532
aF-1.9893441504782545
aF-1.1976654590433922
aF-0.8392853854317406
aF0.47829631736303807
aF0.8122413035693318
aF0.22909847157005872
aF-0.5092088407232774
aF0.48413201710484655
aF0.09437822179399911
aF-0.08729458180853164
aF-0.22522114553149664
aF0.01790555011760557
aF-0.15716468939158623
aF0.2483243739882253
aF0.21961424608584523
aF0.09832112401155178
aF-0.28040830787499305
aF-0.29749292890110424
aa(lp12
F39.854638472773765
aF0.17485873741485797
aF2.383440999555748
aF2.35442483734268
aF4.0478289776191625
aF-1.0259535892985332
aF-3.135575134889275
aF-1.6751405315634273
aF-0.4517382928763635
aF0.824159086546436
aF0.4031453893285574
aF0.10977739709676786
aF-0.29954571493847487
aF0.37050990585979093
aF-0.21090637031852805
aF0.1944849289933464
aF0.14196074776972004
aF-0.0438181505881522
aF-0.2969563525224106
aF0.30490360289250457
aF0.3494645913700083
aF0.03494829514249096
aF-0.2776405992292712
aF-0.164410086137971
aa(lp13
F39.70674097479808
aF0.18990190983009558
aF2.435132512134175
aF1.9561224060436275
aF3.8514244850112185
aF-0.7468638847440761
aF-2.819303375706435
aF-1.8492660493255357
aF-0.14819000920552033
aF1.1744453749175958
aF0.5535894827846729
aF-0.11725409196753853
aF-0.2518282201178208
aF0.5473335429142756
aF-0.14304616734218797
aF0.11382851020409249
aF0.3090215349439337
aF-0.10378458570934992
aF-0.20406544795335535
aF0.6330118256577804
aF0.2975833752733409
aF-0.03125293457630968
aF-0.389525172961368
aF-0.24683030251332766
aa(lp14
F40.046527577175645
aF0.23554999301547597
aF2.412887216332962
aF1.7478628216817573
aF3.6420214352221274
aF-0.9240327623640426
aF-3.223872003181175
aF-1.8321342101192455
aF0.24652567665085187
aF1.3641741980845965
aF0.2644344340379962
aF-0.09752291533367909
aF-0.16603261416059614
aF0.36514322375742725
aF-0.06704219020693471
aF0.2110518913724064
aF0.17636624348162683
aF0.07790982782445
aF-0.21004922693532632
aF0.5341254944770394
aF0.31566779712596854
aF-0.10225935528230848
aF-0.3084089440841275
aF-0.15349508699529343
aa(lp15
F40.481463913640695
aF0.5775718534438078
aF2.522279813088585
aF1.3398166683549455
aF3.0172979976410104
aF-1.078093912044093
aF-3.555258571825161
aF-1.8758416945531837
aF0.4434806963053921
aF1.8124892893903528
aF0.5096912891724396
aF-0.25736533033213616
aF-0.6460753959935268
aF0.5032770538678643
aF-0.07376067474022747
aF0.2741723390234527
aF0.3844482758201658
aF-0.028662358546887295
aF-0.1950784100555137
aF0.507550664260156
aF0.2523033705443551
aF-0.05432594558811415
aF-0.21563255273479676
aF-0.15692796551353844
aa(lp16
F40.42201812332937
aF0.8471189880393786
aF2.3861787768233924
aF1.0877734606890903
aF2.839804094964773
aF-1.2859009014222813
aF-3.460950332515992
aF-1.9006682291429362
aF0.5045869937984454
aF2.0194923328953123
aF0.4919665158180192
aF-0.3921532085143081
aF-0.5319257779729599
aF0.46405227895543416
aF-0.14929500457838404
aF0.3002555050934417
aF0.3826628090710901
aF0.0862668885443556
aF-0.14267957191583558
aF0.4738316025655481
aF0.260842637823802
aF-0.08650424080790281
aF-0.21516060568945206
aF-0.06308962095422571
aa(lp17
F40.58660826562631
aF0.9173102420762117
aF2.165863737870999
aF0.8096870726413019
aF2.6310092400371676
aF-1.3477077441886225
aF-3.3599167103764933
aF-1.7835374952898548
aF0.4194724534533883
aF2.084579929748095
aF0.31790355791762326
aF-0.5721056268503613
aF-0.27399346033413147
aF0.49763959923525447
aF0.06559183450434006
aF0.31070031989022434
aF0.27095070136548677
aF0.1667288821407146
aF-0.16475155629377133
aF0.47604932876618866
aF0.2878198619677083
aF-0.07988174135295154
aF-0.1775233382953746
aF-0.014772900050969307
aa(lp18
F40.90001872313616
aF1.263650796973916
aF2.2888378924004806
aF0.40243477051602733
aF2.0217137832877987
aF-1.4032484389946671
aF-3.6916095806353266
aF-1.8635014800573677
aF0.8554588293571594
aF2.0478766518106037
aF0.32324685948928444
aF-0.5171664642208037
aF-0.338224787756749
aF0.550074845170641
aF0.024877804349541715
aF0.22917934862891584
aF0.1606664570923994
aF0.09875961526054576
aF-0.03340510386147454
aF0.6155545492121324
aF0.39121368857534644
aF-0.09050575879214062
aF-0.36510150434931565
aF-0.11354957261051996
aa(lp19
F38.646199151718235
aF0.06960187747223756
aF3.1036310174707973
aF0.35428047113347283
aF1.5587149106345952
aF-1.2925024725702974
aF-3.2757131348731376
aF-2.1255223064740334
aF1.1590156377165
aF2.297630425474008
aF0.245515452516954
aF-0.5501174040575662
aF-0.008009740622994447
aF0.7581964267335881
aF-0.06695197129494003
aF0.21642788216434777
aF0.21298603815517353
aF0.1385111012087151
aF-0.12050926824520401
aF0.46985011793003706
aF0.23674095396187833
aF-0.18396405480038663
aF-0.21648918080433052
aF0.16466106528596577
aa(lp20
F38.74309433099236
aF0.23524510152838804
aF2.759008285748274
aF-0.27649081400259146
aF1.6020645836682512
aF-1.312175427473572
aF-3.909472395526636
aF-1.9951126349183426
aF1.3747767715844192
aF2.3789650381540492
aF0.0502393219375433
aF-0.40124665470284
aF-0.19605350421514692
aF0.256443238071441
aF-0.07498919325814225
aF0.020893617361339406
aF-0.030340380855272985
aF0.07698385158504051
aF-0.021600189990701298
aF0.4832619141109466
aF0.21986221004143838
aF-0.1809101405828398
aF-0.3732342411547902
aF0.025509625312206834
aa(lp21
F34.77923981800671
aF-2.914966148946432
aF2.9263716358977887
aF0.031530145922251195
aF0.30949786252494943
aF-1.2933697067404928
aF-1.9425651856058717
aF-0.9486436480346758
aF0.6574591263807561
aF1.416784018071575
aF0.49064258138542066
aF0.3492361919631202
aF-0.25606707707267823
aF-0.19513249137293537
aF-0.5906850557291546
aF-0.08117558913865038
aF0.02115574602110525
aF0.0565679722858621
aF-0.18237536537288432
aF0.05757772941479723
aF-0.019500242546710702
aF-0.023683818311045185
aF-0.21935401563275606
aF-0.018147986959782838
aa(lp22
F34.34648438942851
aF-3.287888243770444
aF3.457914981236691
aF0.14247319587359358
aF0.2556361827016952
aF-1.8248994133479286
aF-2.0550759202134694
aF-0.9169875159545617
aF0.35503540472327966
aF1.1405233238611343
aF0.21771359393248368
aF0.5583517660163981
aF0.06316769161437236
aF0.1733683957556401
aF-0.32300179007962
aF0.09662154107878769
aF0.017335723671289664
aF0.12710330872535963
aF-0.13898959164239053
aF-0.07307747451825895
aF-0.12347989985761766
aF-0.057364582591377014
aF-0.13636510898074458
aF0.009152886835238225
aa(lp23
F33.578710116494996
aF-4.057873186326664
aF2.5670585726185577
aF-0.07053602134767048
aF-0.2323861116862734
aF-2.3925748743947692
aF-2.5011578977381466
aF-0.8364295350438008
aF0.6529278443267752
aF1.0218799322979946
aF0.18487919313339313
aF0.38667252122164114
aF0.14201431006521822
aF0.29940461933708773
aF-0.5218756829784262
aF-0.06464986379232115
aF0.017346489034223898
aF0.1516616207178966
aF-0.04367842868703662
aF0.001111367165182647
aF-0.1383023221666509
aF-0.07571311551416005
aF-0.17964289675623887
aF-0.011441634505382738
aa(lp24
F31.656475153586722
aF-5.994997510030276
aF1.2802817185227355
aF-0.20705294686279738
aF0.3731990257227112
aF-1.0504738351485736
aF-1.2266010460066552
aF-0.8509743051984187
aF-0.06269103023170512
aF0.5305992560303805
aF-0.09592104693040462
aF0.7032001609092475
aF0.03119062319781048
aF0.15280188041002282
aF-0.25190141110718767
aF0.07925792539612812
aF-0.1290217262675608
aF0.06906340739383691
aF0.11126452426156358
aF0.22459570055120373
aF-0.02789524381196714
aF-0.012724484411521648
aF-0.13158494577150573
aF-0.08793277653664666
aa(lp25
F30.958323709508836
aF-6.177785990434575
aF1.633130948183496
aF-0.1600052946718951
aF0.567992931649221
aF-1.13301017323725
aF-0.5368979986184981
aF-0.4492142904286864
aF0.30710597954963215
aF0.2683220368919686
aF-0.06736858590616082
aF0.3472166712977578
aF0.10038384295697131
aF0.6687186890956361
aF-0.011010467603778792
aF0.3052736742724493
aF-0.010916283903705134
aF0.15834625555327322
aF-0.02465909632454241
aF-0.014549676068046115
aF-0.05135167027093307
aF0.07497927672676297
aF-0.03312176000167283
aF0.0379204481653429
aa.