(lp0
(lp1
F38.986691571495534
aF-1.6163938899967272
aF0.14632638413312646
aF-0.3141960017792147
aF1.8901228231815097
aF-0.8722423186415748
aF-0.8457253280897489
aF0.8711988766356529
aF0.8394681683525831
aF0.613897968325326
aF-0.2987536433694492
aF-0.2349795975411715
aF-0.2878395223356963
aF0.7737257487417034
aF-0.062451913302129645
aF-0.10231884557109308
aF0.009077318098319355
aF0.04516165546168464
aF-0.10242061836235161
aF0.21097418369874302
aF-0.10709242447436047
aF-0.05213011669920267
aF0.03565523691399272
aF0.009658871051237014
aa(lp2
F38.14097097168099
aF-1.9036406614124342
aF0.40291911951882553
aF0.6812652277726582
aF2.479439130270662
aF-0.7879171092248549
aF-0.5542995414784765
aF1.2085762466530379
aF0.7833914929902013
aF0.41817896334600974
aF-0.216248716277519
aF-0.16363196484561918
aF-0.27494665911948035
aF0.5585958710673893
aF0.1643286566548958
aF-0.03837768002789205
aF-0.02194215075704877
aF0.2855850840983111
aF0.07033144951446398
aF0.061649376413065594
aF-0.3105958592190572
aF-0.12903487147065695
aF-0.05692496283748035
aF0.09197851284121707
aa(lp3
F37.52403458077123
aF-2.9028239264694817
aF0.45682846425999557
aF0.8977598368944406
aF1.8476114892283841
aF-1.9741501295697435
aF-1.3555342167926343
aF0.5706771222763164
aF0.5286837004283481
aF0.8744868180537875
aF0.6711240141111192
aF-0.11581508933503032
aF-0.30883899614984917
aF0.4561369239333376
aF-0.14966180974951634
aF-0.04331128464963356
aF-0.037945431254415365
aF-0.04877218840303071
aF-0.4504445160398456
aF-0.06117528052789932
aF-0.19939701681255295
aF-0.01876988421929527
aF-0.12850673443474311
aF-0.17022579859268344
aa(lp4
F36.9742914323449
aF-3.303949965392559
aF0.8036854788465735
aF1.6220425441119262
aF1.9732715034090234
aF-2.3354416221376693
aF-0.9522124084220409
aF1.1681738804446418
aF0.5808436294711493
aF0.7936764667275719
aF0.6372298848316392
aF0.22221917158404983
aF0.058266453275620994
aF0.9017531100171403
aF0.016997911481305486
aF0.05001950966259451
aF-0.006684122586325166
aF-0.11115232867685608
aF-0.42326375028143703
aF-0.08141466377119384
aF-0.07850109464547748
aF0.09419213741673854
aF-0.142650560686631
aF-0.2631375363151398
aa(lp5
F37.0252261531044
aF-4.1369591957616505
aF0.042002675425596596
aF2.249283847975374
aF2.2766780317531445
aF-2.1077767475265348
aF-0.5597530550407396
aF0.972858483488381
aF-0.4214341000963999
aF0.6521190410063766
aF1.103370496712523
aF0.3200360191958509
aF0.1326876906765384
aF1.0577513378072798
aF0.1207702627297575
aF0.43857431516958995
aF0.4382175946499899
aF-0.01415252851704225
aF-0.30278629753573066
aF0.2519253474683863
aF0.013310299765137451
aF0.21528796063636543
aF0.1213547043849339
aF-0.3115429127625967
aa(lp6
F38.39251548732711
aF-2.9788174803297194
aF0.402468834920635
aF2.3101965470284216
aF3.0606672086640447
aF-1.9939446946889081
aF-1.3619573740931332
aF0.47614908372248044
aF0.1083156631775873
aF1.1692487232739648
aF0.3441777005189599
aF-0.3070088172100324
aF-0.12620658626594122
aF0.5777665052737564
aF-0.32262914171807927
aF0.5304714302259035
aF0.5018289568686183
aF-0.26285163540408746
aF-0.6531979905193913
aF-0.014020990349859165
aF0.174763436751888
aF0.15992237345315372
aF-0.2177847451767711
aF-0.3507941468393949
aa(lp7
F37.409458939439624
aF-3.773434141480856
aF0.7063891101471155
aF3.5994192144799153
aF4.153533565232027
aF-1.5440884327292823
aF-0.9492967882511426
aF0.889680553758497
aF0.13566504452665631
aF0.6970569228016347
aF0.18146862570678524
aF-0.2293206807349
aF-0.14401331719151406
aF0.43613538894972004
aF-0.6725483352067054
aF-0.005382462394582573
aF0.3442203131834178
aF-0.13600708431793623
aF-0.6636002937671398
aF-0.1696176821580115
aF0.005054896151799489
aF0.19686015861043632
aF-0.14840080532464256
aF-0.3948739287965033
aa(lp8
F36.68504242515527
aF-3.868243421961234
aF1.0213827327758174
aF3.6445960648896056
aF4.0917888964774525
aF-0.8422079735008883
aF-0.584234369600017
aF0.6287318743402458
aF-0.19283439957959939
aF-0.15888652421979954
aF-0.07991436720958181
aF-0.20486229184250238
aF-0.1740144882203422
aF0.5748003710322767
aF-0.2000723869466456
aF0.17713405019060788
aF0.25058898768097926
aF-0.014470754312189018
aF-0.35040151636912154
aF0.045478516825298555
aF-0.058314695374153284
aF0.013175718648810208
aF-0.3472611278594288
aF-0.42613115825008946
aa(lp9
F36.39759863000447
aF-4.343413923147295
aF0.9293295587431131
aF2.6608281155866016
aF3.5786065212227367
aF-1.2906348473081464
aF-1.0615990493552527
aF0.6478858458040481
aF-0.09098673975936047
aF0.2496825896149129
aF0.09716240201302494
aF0.30781046300122245
aF0.36965612696260247
aF0.7669750100072292
aF-0.4013649763683131
aF0.05330284333789922
aF0.2552659472518295
aF-0.2249562660541287
aF-0.5901803021707094
aF0.02554325745292151
aF0.23199395056724303
aF0.34214354756729165
aF-0.1391647717338299
aF-0.3640348874217474
aa(lp10
F35.62301251165488
aF-4.87768118205295
aF0.4903119965892043
aF3.013785477242484
aF4.212579325000446
aF-0.5533610084607086
aF-0.3184023143914122
aF1.0020655003449257
aF-0.2615793764966341
aF0.18689366627820267
aF0.5064375044246651
aF0.36688642670805777
aF-0.3603266713496206
aF0.3133184993114178
aF-0.0033411548177446244
aF0.03947873642019596
aF-0.027888425383222386
aF0.04629523016842356
aF-0.6009808228442487
aF-0.3215456366931574
aF0.12933712651199514
aF0.28160445390544386
aF-0.20654233565196536
aF-0.2700855381073973
aa(lp11
F35.82366742929731
aF-3.8595934951306066
aF2.07323869851825
aF2.8621105439893055
aF3.260909991458538
aF-0.8999247460683716
aF-1.2594733366101918
aF-0.27196956721642335
aF-0.7194551614177797
aF-0.2484435398307321
aF0.6822756664246561
aF0.3913421341904578
aF-0.47791184513990415
aF0.39605664449560063
aF0.1571657726471001
aF0.1625282419352602
aF-0.21586026545993858
aF-0.05785341939487858
aF-0.3840994075450297
aF0.027692914653818217
aF0.26309361720080116
aF0.2559766774683679
aF-0.131725233443743
aF-0.16617957725737778
aa(lp12
F37.62992615357588
aF-1.1002666781145334
aF3.5735213955392746
aF3.2901175598247274
aF3.9899897754748035
aF-0.8374545801603074
aF-2.689478949802915
aF-1.4422572945257854
aF-0.7487426366165686
aF0.2561534320466171
aF0.3672835466418546
aF0.5191103235566309
aF-0.07369719324535835
aF0.4160740672669278
aF0.09059001902278203
aF0.1172003103347558
aF0.11603400878998672
aF-0.09688159836016275
aF-0.49924946755882615
aF0.279074279257603
aF0.4919398214322861
aF0.24314344199699897
aF-0.32758098633011795
aF-0.29076158515409906
aa(lp13
F38.81461455394136
aF-0.03517923415861086
aF3.871028477937958
aF2.2697495509264587
aF3.3839566486078194
aF-0.6107899647338662
aF-2.720568924356094
aF-1.5010234672299747
aF-0.585774353622832
aF0.6878250503977478
aF0.5453580172209075
aF0.018623464772389263
aF-0.44050632168363374
aF0.4085256917462015
aF0.17074579857808234
aF0.19310126667708766
aF-0.041776203061245236
aF-0.12495980814998137
aF-0.30060551262411506
aF0.45826416267734904
aF0.4579266385384957
aF0.07458812910412972
aF-0.425105333385031
aF-0.3541611415078531
aa(lp14
F39.814863773216686
aF0.5540660993081371
aF3.500068062142855
aF2.110276841962032
aF3.418916894539893
aF-0.8265953737596642
aF-2.9390238271408955
aF-2.085040114961318
aF-0.5347445057045316
aF0.9707457624283096
aF0.8511763711457256
aF-0.05585149172636918
aF-0.4407032644773129
aF0.4267724794981221
aF-0.11494284105417125
aF0.05826506352125903
aF0.18976672473643005
aF0.05047864093981625
aF-0.30598929645733625
aF0.33620949606202033
aF0.1895683190791877
aF0.06554880656247632
aF-0.1619949642755754
aF-0.12032558901066447
aa(lp15
F40.23759146088389
aF0.8201469095798383
aF3.3711137977561796
aF2.185995526060211
aF2.9499921542684353
aF-1.203906168628023
aF-3.0420287658564695
aF-2.1198027267763573
aF-0.5514273272164044
aF1.625054454321613
aF0.9409083566407065
aF-0.35344236862196377
aF-0.3960210996576207
aF0.441191839053459
aF-0.10728221363364154
aF0.05365708474955955
aF0.2155361732716118
aF0.21115010997756567
aF-0.2049691741463167
aF0.2528052805234252
aF0.10432756028319698
aF0.05898890296510353
aF-0.09733822995907312
aF-0.07380882129277223
aa(lp16
F41.19132308004255
aF1.263038161660998
aF2.6635253118076747
aF1.4862883437505747
aF2.8615130157626556
aF-1.2643281672127413
aF-3.1004603985866597
aF-1.759262427760722
aF-0.6259197855860799
aF1.6953009356447746
aF1.0303613959697187
aF-0.3544613111348846
aF-0.6552607379627038
aF0.7210201642311392
aF-0.13184657927655308
aF0.006596990706451907
aF0.2724590357407661
aF0.10279259289201445
aF-0.12108761199572127
aF0.322286646254613
aF0.1182732815307446
aF0.07501589968107569
aF-0.1167948746700208
aF-0.23784460749120934
aa(lp17
F42.05370318020135
aF1.637610496764957
aF2.0297562918490786
aF1.0047326517788913
aF2.4962211218163994
aF-1.5161558843761773
aF-2.6091714165064848
aF-1.80301187108451
aF-0.7329470032380573
aF1.8874385785744723
aF1.209894371595665
aF-0.47521126037052863
aF-0.45238910918686104
aF0.6266878082340817
aF-0.16934336769587993
aF-0.1328232121627282
aF0.2172424753616809
aF0.1922164278077497
aF-0.09777739311892719
aF0.48606004644188744
aF0.14932255716834425
aF0.007044819808018804
aF-0.22906525714428924
aF-0.3756921345863432
aa(lp18
F42.398295699291815
aF1.7790154038471364
aF1.6872526616574077
aF0.3491097751077842
aF2.338959468394753
aF-1.569731211264666
aF-2.5287127602160338
aF-1.620597045704324
aF-0.5675033418697786
aF1.9038738785524718
aF1.2173851876845214
aF-0.3415986285257434
aF-0.5934611179360286
aF0.6809816546288383
aF-0.1900745937797835
aF-0.09210858482210636
aF0.11762295568607437
aF0.25761348194134664
aF0.02368598503376279
aF0.40560843555910364
aF0.21457185135433182
aF0.027578172742321914
aF-0.2700456334309562
aF-0.41212416839871313
aa(lp19
F42.82049524959721
aF1.9376462867994744
aF1.2432527792881196
aF-0.05624338826760491
aF1.959946436240737
aF-1.234678668935037
aF-2.9492544013435364
aF-1.6306625806906454
aF-0.3528748357717549
aF1.9875792390751197
aF1.3551547222232123
aF-0.45710905765973076
aF-0.690874995642296
aF0.42892928889631693
aF-0.05368646331390326
aF0.12729192906197148
aF0.3775958873335698
aF0.16877391966535402
aF-0.10103643047524498
aF0.42069825099098995
aF0.24962590720307884
aF0.12185593811543255
aF-0.2525772723099188
aF-0.28370025752884337
aa(lp20
F42.72009682644949
aF2.0683191486430483
aF1.1246326162296338
aF-0.6605111865357337
aF1.7009770062426977
aF-1.1629149864546329
aF-2.8531018701047226
aF-1.684911502242847
aF-0.2268995793502296
aF1.7709903770665307
aF1.212588981078587
aF-0.49110814389405255
aF-0.6586713827259854
aF0.6134536957551138
aF-0.04052511188486787
aF0.12815752809671663
aF0.3996052328673339
aF0.2372687666767213
aF-0.1659434332307914
aF0.32833775298574197
aF0.15973208588164287
aF0.13768731634994108
aF-0.09520407091970293
aF-0.20448897567643906
aa(lp21
F40.72397655606511
aF1.0801847220668694
aF1.7444209650529012
aF-1.0250961281975126
aF0.6058286015292036
aF-1.404646884899077
aF-2.2714677417927
aF-1.5352167839786295
aF0.41040303568886766
aF1.9125050655940754
aF0.7803556807782344
aF-0.22471730376877183
aF-0.4534795683780839
aF0.6423241179023271
aF0.2842434875670995
aF0.3978301987610219
aF0.4612578192656325
aF0.17232445033618204
aF-0.33532879773084245
aF0.26718611214863813
aF0.1794505350539411
aF0.13469878719640563
aF-0.030385839874189042
aF-0.00891043284475843
aa(lp22
F39.14702623274533
aF0.15704849797433257
aF2.3771954435610256
aF-0.8442832130139116
aF0.6496457801887803
aF-1.065049991948377
aF-2.1271514728301506
aF-1.3984485298931562
aF0.6559156410148598
aF1.9143205492495248
aF0.8414532543757596
aF-0.2611395240930064
aF-0.6727492191875384
aF0.409957469063934
aF0.17155409507558436
aF0.5368282982972973
aF0.2553151252297615
aF0.03128878277813237
aF-0.3995861764755381
aF-0.0272488240378514
aF0.11631233926966725
aF0.09862750673197912
aF-0.09259650889153499
aF0.01497848545984349
aa(lp23
F36.70030858932254
aF-1.3204031869268615
aF2.9545954298812807
aF-0.44652760068488634
aF-0.008423213170457416
aF-1.2706161838632994
aF-1.6811574071433422
aF-0.6156567362205672
aF0.7255245139308538
aF1.6131125064521625
aF0.41367421302996743
aF-0.13035645720095226
aF-0.4165642080492237
aF0.40333242879444176
aF-0.04753127833398648
aF0.27039194957854007
aF0.07398370130367961
aF-0.03464217297411825
aF-0.543141906588105
aF-0.4948087024843906
aF-0.3890112506341288
aF-0.07393311198848379
aF0.0632707882980212
aF0.1682776301847732
aa(lp24
F35.57509227347891
aF-2.655730432917757
aF2.5869484740760806
aF-0.6079256541230799
aF0.29144525129040083
aF-1.413625997569215
aF-1.7628888610566775
aF-0.4353498699498087
aF0.41911378194160365
aF0.853293866582578
aF0.1494461529483616
aF-0.2789891576952174
aF-0.13190454775859978
aF0.4143815862761079
aF-0.09194496928343514
aF0.17480598201258907
aF0.047770505751576195
aF-0.05736272393172067
aF-0.4322817768697453
aF-0.10713143388627165
aF-0.2275346722932491
aF-0.0221800325094447
aF-0.02224979071234164
aF0.07733286199060657
aa.