(lp0
(lp1
F32.026474844192016
aF-6.701815097757615
aF0.011795183716542562
aF-0.8089815389103648
aF1.2814447597017318
aF0.09028237544711405
aF-0.021539650522013565
aF0.503440322240132
aF0.5672091476678625
aF0.5169704231733658
aF0.037084407344367055
aF0.6407689164226292
aF0.41012660722491495
aF0.8377010470447616
aF0.23679769135996587
aF0.3454435505283899
aF-0.0805420152090894
aF0.0661751965106745
aF-0.11130327306514136
aF-0.0601639331707704
aF0.004159628009878354
aF0.12405930913715642
aF-0.019148660023349636
aF0.053546792808347426
aa(lp2
F41.966087158980656
aF-0.9150405356542178
aF-2.9336123816675546
aF-1.0394259274780897
aF2.6803482205555085
aF-0.7739105052104357
aF-0.4960231970357918
aF1.11523594506526
aF0.4909002854936408
aF0.6391025126308849
aF0.15690213039381223
aF-0.07683773443068434
aF-0.3939688097350159
aF0.45050929562008973
aF-0.7918961019810257
aF-0.17516581608072634
aF0.3793478514820703
aF-0.010617914469167638
aF-0.2537265972622415
aF0.24426575982716256
aF-0.21687445385324028
aF-0.039254257373952946
aF0.2013194523435595
aF-0.10337652461704618
aa(lp3
F40.71516745750006
aF-1.729849533594945
aF-0.927356604999243
aF0.9851468960446674
aF2.8124099170893633
aF-1.813193793811717
aF-0.843714034514844
aF1.2455862739813965
aF0.2458219411247678
aF0.7304993380133923
aF0.7354898722015321
aF0.4074539134074708
aF-0.14712637363753034
aF0.3985512894237346
aF-0.599299118962001
aF-0.15364575753580448
aF0.11563902966808307
aF-0.17629266119720433
aF-0.3984853431937275
aF0.03044178683039064
aF-0.1521547602788083
aF0.048394972323139634
aF-0.060530101802289404
aF-0.2636449235394907
aa(lp4
F41.02597773068805
aF-1.350183222886956
aF-1.1293192404139432
aF1.227753111805979
aF2.7658958255834065
aF-1.720039329784724
aF-0.12771860061248463
aF1.3072574715291632
aF-0.06907514874711472
aF1.106455484855917
aF1.1378214464468697
aF0.021226997204921178
aF-0.20670779930145428
aF0.27983499703937187
aF-0.5451560420724614
aF0.12593447974555189
aF0.32968225808779
aF-0.028294009403031548
aF-0.36347419222770666
aF-0.11387292811361252
aF-0.2853152630226896
aF0.15195822584135846
aF0.08149139303750418
aF-0.08781153565088748
aa(lp5
F40.695970093446576
aF-1.34913516268338
aF-0.13602707508764866
aF2.281425380737982
aF3.2057374443105418
aF-1.9188075724879585
aF-0.8212482629994985
aF0.8527901449211679
aF-0.06360894013911818
aF1.3760502361503273
aF1.0560212999892757
aF0.13552699040607405
aF0.09985676861177264
aF0.4198774460958647
aF-0.8234228783413511
aF0.0287520882876116
aF0.4668849427623926
aF0.06793665549930862
aF-0.3177089106257406
aF-0.2144673841921947
aF-0.28875620909928684
aF0.11123352199082691
aF0.04035467919087194
aF-0.027861295384959815
aa(lp6
F40.35792501418062
aF-1.3486906915882666
aF0.0628886731166476
aF2.85182502844671
aF3.6006259482997054
aF-1.700628222665021
aF-0.7817301894247798
aF0.5544041471501443
aF-0.5331518961797427
aF0.7934989537415242
aF0.8772803881089563
aF0.03493231178537186
aF0.3154617828075931
aF0.6910284568893309
aF-0.45999407005178977
aF0.2738388379057531
aF0.3162833445965523
aF-0.2835789751132415
aF-0.4996798125498587
aF-0.018921443559094333
aF-0.04207490589803464
aF0.23022418846758763
aF-0.03786518526297463
aF-0.17673594222422648
aa(lp7
F39.63984642584172
aF-1.9500884595152592
aF0.05264431094326447
aF2.785433953479606
aF3.482049672149356
aF-1.3877005373752906
aF-0.47486984243032343
aF0.5683036488647116
aF-0.8333056538060702
aF0.8067245090171158
aF1.0013954142413395
aF0.1821539861182146
aF0.04986922055115517
aF0.45609024277685833
aF-0.48528405702741434
aF0.17199123136633332
aF0.1802088286183653
aF-0.20823220306259535
aF-0.4567125412238909
aF0.007045640375715954
aF-0.11689848213604252
aF0.08473403368002091
aF-0.023839833532378448
aF-0.2216274573269951
aa(lp8
F40.5998572723117
aF-1.4071083253549745
aF0.8550363618819703
aF3.2516915453240216
aF4.323356651948848
aF-1.3355429911820913
aF-0.7002951103615552
aF0.1218189337237926
aF-0.8792529512648154
aF0.7437262824636448
aF1.2061101752721557
aF-0.2810624956913924
aF-0.44334356052434853
aF0.4620744027214524
aF-0.24423849287405147
aF0.4151148697030747
aF0.2783859760244198
aF-0.3352812243929056
aF-0.38294249055480833
aF0.1578547763172798
aF-0.06240529384421345
aF0.1833964430877327
aF-0.13101825887952454
aF-0.2850787497849391
aa(lp9
F39.51871189140992
aF-2.4959602967191192
aF-0.348006890243009
aF2.6512466794289926
aF4.087959961960553
aF-1.4352374552967557
aF-0.8877166940890345
aF0.2251344094946736
aF-0.6970455630085728
aF1.0138530599597764
aF1.138186478487551
aF-0.2094633234708191
aF-0.5777139054602924
aF0.4033260361138423
aF-0.22923181207398585
aF0.3692324491871978
aF0.39825145997522426
aF-0.2964746023946083
aF-0.3404513107521608
aF0.2908645498281939
aF0.04744509225620632
aF0.2128614609194895
aF-0.11217566661899941
aF-0.3564005847869391
aa(lp10
F38.78850572946862
aF-3.679224132147492
aF-0.8353165301511171
aF2.726987162840525
aF4.127428094495037
aF-1.7034024168464978
aF-1.2384300934099157
aF0.33576155420092163
aF-0.5302125364055119
aF0.6857950361833505
aF0.9582587485294612
aF-0.04247775285294535
aF-0.049304623231927365
aF0.7804404785147755
aF-0.22515487402578568
aF0.3821193386544321
aF0.37415567442617426
aF-0.3427418531964499
aF-0.5907669270871231
aF0.0609930494139413
aF-0.018975224659500863
aF0.23405077020289877
aF-0.007728391043149898
aF-0.3487255111093154
aa(lp11
F40.657609012785564
aF0.0752557978784339
aF2.17645197194609
aF2.665660673100318
aF3.726213111424867
aF-1.4231946537260194
aF-2.2995113016188884
aF-1.1517534100186695
aF-0.9921133679583503
aF0.883456977140826
aF0.8202091601632816
aF-0.07907085465561194
aF-0.16833372224859555
aF0.4261352072320947
aF-0.17383132440128984
aF0.2478965009994746
aF0.16816852215545988
aF-0.2152773672507128
aF-0.3849759949874526
aF0.46187655357121665
aF0.3112213500220242
aF0.10549421388307306
aF-0.2122466214306035
aF-0.3391997346129129
aa(lp12
F42.23675758597777
aF1.2386379682951325
aF2.13470143167662
aF2.366119295030583
aF3.827308449060974
aF-1.1431923805696467
aF-2.6421581091890403
aF-1.446073270646832
aF-1.035163815483498
aF1.0895013437295087
aF0.8956914031609189
aF-0.04284044164537158
aF-0.5831660416443473
aF0.4167494323946472
aF-0.09780204047006573
aF0.17809077367861154
aF0.21002084451653458
aF-0.38553422619564764
aF-0.4646379682903441
aF0.4972287098514975
aF0.39815411162722225
aF0.126001604426459
aF-0.28008510209926823
aF-0.36791396510866403
aa(lp13
F42.138473405833906
aF1.5960143247016045
aF2.175039828936865
aF1.855309090623033
aF3.8993541393480884
aF-0.9775517927554095
aF-2.7030514548450713
aF-1.7300181007823856
aF-1.048263276357948
aF1.3778951536652497
aF0.998328639204606
aF0.07059157659821783
aF-0.474015772419975
aF0.3080406815878773
aF-0.26668685460953107
aF0.13330832516085153
aF0.3840467057681787
aF-0.22265014791429166
aF-0.3572711122725569
aF0.5173549017651292
aF0.29006751657194835
aF0.013361013267258824
aF-0.2885137293429374
aF-0.26357209606230947
aa(lp14
F42.243326087431285
aF1.8076035914639583
aF2.48263990093142
aF1.63562117900788
aF3.1541091757515765
aF-1.2413833616636785
aF-2.4040321760415653
aF-1.6350053339847415
aF-1.1005696183138123
aF1.5968210600449428
aF1.0845972662102583
aF-0.4057079962922537
aF-0.7497187230045752
aF0.48292757399902775
aF0.1767832836436671
aF0.29085806646355694
aF0.3962377373338727
aF-0.4237795279189125
aF-0.5013733756093491
aF0.4893033571724456
aF0.2761850843266686
aF0.1937479942318931
aF-0.18396112037058618
aF-0.2779583480802316
aa(lp15
F42.41623524323323
aF2.243771263347972
aF2.0311976116773165
aF1.2807857468358892
aF2.728744255391423
aF-0.9284163920940824
aF-2.5691421031243
aF-1.783709555749376
aF-1.0481109591700444
aF1.5977495784800742
aF1.2254127806216673
aF-0.43611130731261794
aF-0.7604157955413126
aF0.42060895859310643
aF0.17140921048273347
aF0.3679235227803205
aF0.3463230760468127
aF-0.20656676728610918
aF-0.4181636848415571
aF0.41376727350728987
aF0.2807550253440336
aF0.1582224778887358
aF-0.15344420219510183
aF-0.2582751903010107
aa(lp16
F42.432961919194426
aF2.0530327607923082
aF2.271248792874821
aF0.9030021840626886
aF2.6416981639526624
aF-1.0049390380435812
aF-2.6717917321872364
aF-1.7443487621324028
aF-1.0517239542105776
aF1.6102833700193595
aF1.512653942894887
aF-0.3832680684838785
aF-0.9042442732795964
aF0.5249785166034726
aF0.055226518686492344
aF0.24218873876269092
aF0.3384845835338592
aF-0.11094933314130054
aF-0.23437785184041926
aF0.3654115559419954
aF0.19819333824803562
aF0.18204693162492883
aF-0.18052169740422003
aF-0.3449968409730666
aa(lp17
F42.835308397213325
aF1.9489039819995237
aF1.959125827860064
aF0.8355020551429633
aF2.3890430268490896
aF-1.5548680409522737
aF-2.5389972058206594
aF-1.6850143460713962
aF-0.8734473906843728
aF1.8965028832486934
aF1.6485690035815321
aF-0.5729410608523574
aF-0.8541919720348815
aF0.5403367599833228
aF-0.0016299920552056964
aF0.07686494584224433
aF0.4422297010750785
aF0.1712296506805156
aF-0.174909820137517
aF0.2825043412711101
aF0.0014390219615423709
aF0.23116861470249883
aF-0.05372314612417932
aF-0.3589545207936255
aa(lp18
F43.247094232544505
aF2.36873223739695
aF1.5468729891503106
aF0.3340085018128459
aF1.908477198273758
aF-1.2976361877639935
aF-2.6321578783140347
aF-1.6829721533886548
aF-0.7498047708296782
aF1.8662919988847857
aF1.6184749386119852
aF-0.540194361992994
aF-1.0351463159571073
aF0.5909423179807594
aF0.39870829352001613
aF-0.0058313175793714865
aF0.22426007188151315
aF0.2650858587368216
aF-0.13584574044137904
aF0.24872356421092467
aF0.1479811215680706
aF0.3475632780152524
aF-0.16133764293917596
aF-0.5412224454277457
aa(lp19
F42.860674303061735
aF2.5265372344376638
aF1.8436117823017522
aF-0.38588730397519905
aF1.7038958500013233
aF-1.2853224904534248
aF-2.6910069507049323
aF-1.620008248433019
aF-0.7331454544700076
aF2.208373017124572
aF1.3464446942002173
aF-0.7134825871869682
aF-0.9320310318482186
aF0.767985331459946
aF0.25473795153616274
aF0.14176140074378094
aF0.24742884771542165
aF0.25695389898436305
aF-0.13564766802073241
aF0.26812325141331755
aF0.25986015457382156
aF0.29558767645013645
aF-0.13829288185633523
aF-0.5155179501073651
aa(lp20
F42.436623111532285
aF2.3746211830373203
aF2.0058438746454827
aF-0.915679696874583
aF1.5554873089052355
aF-1.2992163524855727
aF-2.680614923307737
aF-1.8411973049591175
aF-0.44524315037693263
aF2.2042096541004375
aF1.2529687422750362
aF-0.5281391187447044
aF-0.7384796164249299
aF0.7299609814015868
aF0.09072829391208968
aF-0.03828670473740637
aF0.3747525253069047
aF0.2627721522397826
aF-0.07016444204635577
aF0.33412680856712135
aF0.17343049096672283
aF0.24482355025414693
aF-0.18693486484472885
aF-0.3787725205649241
aa(lp21
F41.418660074319945
aF1.8542816943112863
aF2.670898005855631
aF-0.9357862968862594
aF0.6881806692000932
aF-1.1731182989218292
aF-2.5664328959592275
aF-1.7597991924078045
aF0.17475110886643921
aF1.8797745651391402
aF1.0748795717138957
aF-0.39911325462565267
aF-0.45466425200321176
aF0.581686977000876
aF0.0718580785472883
aF-0.03457710332992776
aF0.10246391521633655
aF0.48850365602068874
aF0.07762263787235646
aF0.2336748143264489
aF0.16776193435802367
aF0.20844285769589768
aF-0.2128862224630914
aF-0.22065361118402746
aa(lp22
F39.56531324066548
aF0.7417764033631078
aF2.8117487734840454
aF-0.8163050363547247
aF0.23871308017271783
aF-1.0808012990287563
aF-2.186634423728627
aF-1.3942830492465539
aF0.6284680836442397
aF2.0273235198488733
aF0.8017756656941685
aF-0.1052324841941197
aF-0.3430562415617573
aF0.5954900722366844
aF-0.007703966948131995
aF0.019869937319639364
aF0.068639355607835
aF0.34443223220507835
aF0.022231751619076406
aF0.147690663343993
aF0.1251415796427729
aF0.0916726476376051
aF-0.14793773417977998
aF-0.07563996520178783
aa(lp23
F37.464344183413964
aF-0.7259966758015393
aF3.1479661812150703
aF-0.7350351229909523
aF0.11576339577133915
aF-1.4000889843883837
aF-1.9924219105477887
aF-1.0615240982830405
aF0.5672335005358183
aF2.064416709048101
aF0.823932978358666
aF0.20092096432643644
aF-0.1346157932989363
aF0.5957528314700897
aF-0.16726915818051202
aF-0.34216561516502825
aF-0.16909510192477378
aF0.3638524777113403
aF0.0023958669062393036
aF-0.07476933397021429
aF-0.2157865786658453
aF-0.09236682192162046
aF-0.15009959027265862
aF-0.09537782587266533
aa(lp24
F35.86376490763727
aF-1.7614935620280159
aF3.84146185745386
aF0.2653485354884037
aF0.4813628551302257
aF-1.1005607973036333
aF-0.9310138784124902
aF-0.2803185603221983
aF0.588865930548854
aF1.3852795696260658
aF0.7175852094765969
aF0.39748973377981744
aF-0.36579554213265425
aF0.09604723723275534
aF-0.3647926923878564
aF-0.12943387964355565
aF-0.13385365715558978
aF0.05266014760938427
aF-0.3538635562989036
aF-0.2907435383782226
aF-0.35742724745496757
aF-0.10693940667158272
aF-0.006801743310164386
aF0.053583831317507866
aa(lp25
F32.73990453789665
aF-5.076046373666081
aF1.774067323802245
aF-0.16199895282439222
aF0.26289114851334955
aF-1.0187948241752782
aF-0.6229263711443652
aF-0.3157037066207512
aF0.2449635890381581
aF0.9971816993205919
aF0.45359615950731585
aF0.3191566146137309
aF-0.3150902375968949
aF0.0721625853221958
aF-0.2396343480640601
aF0.22938933206400755
aF-0.15212390485213664
aF0.02675528419986828
aF-0.22132657527351016
aF-0.09986656940145609
aF-0.08215100732560845
aF-0.05685782162845809
aF-0.03306284263233628
aF0.0537844952231028
aa(lp26
F27.169872321758817
aF-4.994823621480133
aF1.4936491929558329
aF-0.22705492037920755
aF0.27000355220402406
aF-0.9371167695469396
aF-0.4821957530864933
aF-0.7199210828917066
aF-0.07589996098299405
aF0.17286672734269778
aF-0.23520116613616482
aF-0.016186425756317718
aF-0.8871050948856762
aF-0.2027749132868843
aF-0.38982760057752264
aF-0.16698409407015738
aF-0.036398243326030706
aF0.23170840517835106
aF-0.06459948811154545
aF0.0893084547390425
aF-0.0076028534396088
aF0.11537942830478937
aF-0.009917667605068353
aF0.048461919652017765
aa.