(lp0
(lp1
F10.49377943440346
aF9.755719388101538
aF9.945226123330617
aF11.32325848061485
aF11.444402212927448
aF10.84503799543527
aF11.197828018984993
aF11.04278431606372
aF9.947161576958349
aF10.755330126711527
aF11.278609112997287
aF10.977088591725861
aF10.171851579407797
aF9.09311112399786
aF8.527674593520787
aF8.113516061274936
aF7.045543105303432
aF7.400054506703148
aF7.682069977199982
aF8.127030060332928
aF8.931902577613906
aF8.944764420056176
aF8.496836199114504
aF7.845109667265922
aa(lp2
F10.500354899111757
aF9.722742747467324
aF9.944774849877895
aF11.517171429485279
aF11.471550687318961
aF10.584858704899752
aF11.13365465261211
aF10.850108187745105
aF9.783887199178142
aF10.470871396957916
aF11.105901681002422
aF10.892354632650584
aF9.805919115301256
aF8.12229748961451
aF8.449210104017496
aF8.385096840218125
aF7.184479296558293
aF7.6207387947799194
aF7.803956998878661
aF8.460175897043882
aF9.048241483888784
aF8.90551718155223
aF8.579266464107759
aF7.989785054307434
aa(lp3
F10.511549441086823
aF9.73738935439684
aF9.892586221454941
aF11.418215493624661
aF11.439988708744437
aF10.80833426248471
aF11.194701301242896
aF10.901625658301986
aF10.015153519890927
aF10.195892500307496
aF10.804063273504694
aF10.724112177385454
aF9.698469968902764
aF8.037023808445674
aF8.497798607367036
aF8.263560266844697
aF6.988993938815943
aF7.418886049121402
aF7.7538415972074795
aF8.43810275996188
aF9.001273755030226
aF8.84162901385019
aF8.56959308141175
aF8.041600980301014
aa(lp4
F10.514234527710963
aF9.751343094349544
aF9.786253120524549
aF11.271220011261121
aF11.375387689053772
aF10.892566550995825
aF11.163324363344913
aF10.888060550025076
aF10.116800704578088
aF10.065483004741456
aF10.633848404710484
aF10.820446559527998
aF10.079327410822556
aF7.65630704302776
aF8.287563299324228
aF8.185929334651226
aF6.99335512575819
aF7.2024374658827925
aF7.431043001118396
aF8.31375708241647
aF8.94778977273641
aF8.87351641205041
aF8.634895604310454
aF8.011107784434559
aa(lp5
F10.200975360795448
aF10.341662102499772
aF9.568411351642974
aF10.909290366075753
aF11.169849598107376
aF10.991841563226428
aF11.412059016086715
aF11.10387587957596
aF10.161984286190009
aF10.143352866532382
aF10.536669855822208
aF10.936008690484263
aF10.428304920355194
aF7.8057778777372535
aF8.330668473847952
aF8.335699330609746
aF7.33017321536074
aF7.5174440087512275
aF7.724964929567761
aF8.443212206545075
aF8.96301595160286
aF8.803713833720398
aF8.66771334168017
aF8.164016535457918
aa.