(lp0
(lp1
F7.544773530408288
aF6.580099554178137
aF5.1933654633098145
aF5.154551717151583
aF5.629746724980109
aF5.488103918404689
aF5.575182417645785
aF6.070990079930151
aF6.289017154279231
aF6.5706111025758025
aF7.0941362508040955
aF7.256907579153161
aF6.989075752118246
aF7.020055576150982
aF7.09849155425883
aF7.028900270824151
aF7.096811671610471
aF7.281120794041277
aF7.730815278433814
aF8.084541381883103
aF8.401366547053964
aF8.898688296875122
aF9.238076983347483
aF8.629961601233362
aa(lp2
F8.331941605069225
aF7.8216049041357705
aF7.208938903941119
aF6.924862850097202
aF7.396601097537367
aF7.342668112859156
aF7.4082090641822065
aF7.5238202303589405
aF7.72322930101179
aF8.70149750641817
aF9.147019831327512
aF9.52605541588811
aF9.689791137004217
aF9.182653009093924
aF8.431670238261098
aF7.94463762054406
aF7.177981196453462
aF7.379538963907249
aF7.609012267285513
aF7.925908498458396
aF8.300577050493622
aF8.663140168709951
aF9.366301456148003
aF9.000924725864305
aa(lp3
F9.691274728187272
aF9.590271407579214
aF9.000258758481035
aF7.2194991455104
aF7.048095029681507
aF7.042801992580409
aF8.227158616595474
aF8.425739548447854
aF8.4443440222783
aF8.728963399473814
aF8.955908285336504
aF9.02358103591111
aF9.00835531368888
aF8.965654355049047
aF8.59390689409768
aF7.945736710957638
aF7.296841757406584
aF7.492633052497225
aF7.582260157341337
aF7.835289151169969
aF8.338053701677902
aF8.819874096232887
aF9.267050780301277
aF8.778194710912482
aa(lp4
F10.224051925452786
aF10.330401876559725
aF9.816641179251489
aF7.879203325873426
aF8.063240112750332
aF7.97884168402796
aF8.722283515345044
aF8.645884809271752
aF8.286611640658696
aF8.64347759515392
aF9.493223038056392
aF9.560799397446326
aF8.410932423556497
aF8.281027684999946
aF8.493403340789387
aF7.744143294229559
aF7.166581933723203
aF7.536544914103187
aF7.825493478806923
aF7.987619657051574
aF8.35882873505129
aF8.782062521572845
aF9.294005092730156
aF8.86724151175677
aa(lp5
F10.423418540833984
aF10.64882878804203
aF10.233313300543568
aF8.26241967954351
aF8.269135303780446
aF8.493499383389706
aF9.25813578008608
aF9.050015547407712
aF9.065221564481043
aF9.21724909061683
aF9.401512932387481
aF9.41964256991919
aF8.149046927568813
aF9.131122837323538
aF9.346209906047546
aF8.1549837225961
aF7.116715801295984
aF7.33758889208363
aF7.5075783949761
aF7.826263537023081
aF8.483276218977453
aF8.94215655490123
aF9.074936360150849
aF8.381767270486751
aa(lp6
F10.439912630026898
aF10.66753734010773
aF10.248099524969073
aF8.29118268556642
aF8.347460652025998
aF8.626339675965248
aF9.126765240360603
aF8.7591262691435
aF8.516338427790501
aF8.794540661257669
aF9.991136612840654
aF10.004657470878204
aF8.158875358054326
aF8.637662023158502
aF9.029127924821829
aF8.210493964544757
aF7.023933307801166
aF7.454971936523748
aF7.667693904972157
aF7.852501300618039
aF8.400051602292764
aF8.787689024379958
aF9.146841935136282
aF8.669137314327683
aa(lp7
F10.359101448390755
aF10.493042815656732
aF10.060763371790129
aF8.590810457012283
aF8.304958294673394
aF8.390885406600018
aF9.05774985143779
aF8.930987215328992
aF9.087256540395586
aF9.108877290765797
aF9.921495758387318
aF9.878366380871448
aF7.74647961782837
aF9.006863160693737
aF9.206720164286244
aF7.90846076099055
aF7.212266014260681
aF7.514328027138941
aF7.560088030567674
aF7.817793451754457
aF8.554688266376852
aF8.982695835103037
aF9.309251173134442
aF8.809046397972066
aa(lp8
F10.174110068628144
aF10.29679850702374
aF9.93158054415744
aF8.572318375633595
aF8.247127115755964
aF9.003824295717255
aF9.276476120452552
aF8.76309507759586
aF8.804885902655222
aF8.981192522829641
aF9.924326576180174
aF9.877447174135828
aF7.758162876075178
aF9.362572008781582
aF9.637430405345684
aF8.383435719097891
aF6.853646718231379
aF7.267040024803863
aF7.746673635246468
aF7.954107436602612
aF8.42250270820343
aF8.974703645002837
aF9.354490429420242
aF8.813301095054731
aa(lp9
F9.71752148280859
aF10.222762921647236
aF10.041251098381156
aF8.398031491327304
aF7.735510004322501
aF8.584094475947436
aF9.011086597994014
aF8.574623013963551
aF8.456630656212731
aF8.609456577962694
aF9.637296562900323
aF9.636011603606757
aF7.7814761900476315
aF8.377797835012212
aF8.687817662482917
aF7.8916672039550795
aF7.315584123546219
aF7.37543007733234
aF7.478629077028724
aF7.832210375980526
aF8.406427569715522
aF8.834624677364035
aF9.249596432161594
aF8.759871916279629
aa(lp10
F8.766070666747538
aF9.408070590311763
aF9.352414878296077
aF7.516929793534221
aF6.7884263415373916
aF7.97077994275518
aF8.267260651058404
aF7.551154716852945
aF7.782877648140722
aF7.855851431366379
aF8.323618366342306
aF8.379786913795149
aF7.102757402108613
aF7.5571821198216265
aF7.86507875091237
aF7.353429406074045
aF7.175317041572928
aF7.324071581922001
aF7.593942548416692
aF7.8124578706293795
aF8.338256486618636
aF8.853123791509095
aF9.224276251592517
aF8.703774469022882
aa(lp11
F7.738901135045351
aF9.05715358133931
aF9.002157120950931
aF6.742073627088476
aF6.049171799649663
aF6.650018046830362
aF7.072378787847
aF6.701232343982412
aF6.501658225457586
aF6.405281288380061
aF6.764234927909601
aF6.943581567380196
aF6.496009321744197
aF6.78322642308331
aF7.142137187961048
aF7.135483307971889
aF7.140352451923279
aF7.3805041495713395
aF7.650666400303328
aF7.870203107809818
aF8.289946774128525
aF8.90342820983155
aF9.289674021796175
aF8.702255316687625
aa(lp12
F6.522782261139386
aF7.114298532608843
aF7.484293014100385
aF7.073625283581053
aF6.059912134154281
aF7.080787134013434
aF7.2519468433776515
aF6.329532403155467
aF6.67870433338319
aF6.77870271255621
aF7.539347407309309
aF7.632539675471301
aF6.360261685274071
aF6.758880733917771
aF7.027756217498211
aF6.7541351123385835
aF6.9123951865891184
aF7.292614723022292
aF7.604779001222437
aF7.842800391258001
aF8.192145311475915
aF8.856866377980477
aF9.274472017199548
aF8.665792927792172
aa(lp13
F5.51546770245851
aF5.4661607366137455
aF6.329229601969243
aF6.174839540902314
aF5.053534456121706
aF5.63558078541976
aF5.936534975855359
aF5.63210688627992
aF5.80737464933132
aF6.066056694119824
aF6.471863995905552
aF6.654809741302796
aF6.41806444588639
aF6.511445314313902
aF6.569892768559169
aF6.969985202747132
aF7.309633633821564
aF7.453568997332312
aF7.69230689210192
aF7.863788928043267
aF8.385565442334162
aF8.755351853384818
aF9.088695840027807
aF8.616380527063729
aa.