(lp0
(lp1
F9.916787977101183
aF9.054151095260854
aF9.245303936998015
aF10.001780588898221
aF9.805038355755284
aF9.070749364459513
aF9.63431822778015
aF9.469461476146103
aF8.51098198574691
aF9.377609043681872
aF10.038839471464806
aF9.956937042160648
aF9.38414063150554
aF8.833131608253714
aF8.510526098450356
aF8.068604201352258
aF7.115258684843225
aF7.474009448186536
aF7.617585965998845
aF7.732913413581855
aF8.307264151422055
aF8.603027538720271
aF8.682616683341406
aF8.068425404791975
aa(lp2
F9.902456719030026
aF9.06315557911056
aF9.320733033813664
aF10.150479545939861
aF9.905880045657812
aF9.275206637486997
aF9.838407833718133
aF9.532120736934631
aF8.609479812649225
aF9.619866105308681
aF10.171470685163065
aF9.99007607401975
aF9.4305509352639
aF8.814251257204333
aF8.417707133713282
aF7.902164779499214
aF6.966011509230473
aF7.327719022719614
aF7.4868479693142485
aF8.040253540438865
aF8.53440629874349
aF8.59018094166795
aF8.636145391067787
aF8.046473085272883
aa(lp3
F9.93700402267135
aF9.142630561539951
aF9.241615672364302
aF10.191194375408038
aF10.091506539815954
aF9.575666070763958
aF10.002069057071774
aF9.699213857823695
aF8.836945813186695
aF9.502305327885784
aF10.173873473627914
aF10.229056820337517
aF9.604572100993378
aF8.463779748870818
aF8.134043414563372
aF7.794803386656026
aF7.146891312351448
aF7.32752060388689
aF7.680424893262706
aF8.106253449505857
aF8.561119884652715
aF8.72601411238486
aF8.642863990725136
aF7.94180524384468
aa(lp4
F9.947076375549972
aF9.210899347257453
aF9.220204032171107
aF10.142930061906782
aF10.157833022390816
aF9.749181558794707
aF10.062089721201534
aF9.863137351763394
aF9.065082327095212
aF9.213989413156797
aF9.913448807309194
aF10.075259622391295
aF9.500760453491589
aF8.316159935759975
aF8.104616860870545
aF7.860272702683488
aF6.950418104749857
aF7.391669559027573
aF7.666677974935583
aF8.057561214130518
aF8.479076480508716
aF8.6024736412862
aF8.641057456230369
aF7.992938514354621
aa(lp5
F9.909541290989637
aF9.1640254162789
aF9.161037790921474
aF10.19302412094019
aF10.211531095889226
aF9.667074068836818
aF10.05301614626922
aF10.022375216608125
aF9.360897566593158
aF9.357284539864251
aF10.042473647134408
aF10.127549170788505
aF9.374562784183398
aF7.878913015366694
aF8.006185867581214
aF7.839868514431093
aF6.964598715862227
aF7.3471911069846
aF7.6313815332905195
aF7.956543812770479
aF8.406692720416347
aF8.551433711937968
aF8.65117337747507
aF8.114676764582038
aa(lp6
F9.845970777954875
aF9.069894758402297
aF8.99232373715535
aF10.08383834683679
aF10.0289231630012
aF9.331348460381564
aF10.239969827299726
aF10.286372004337748
aF9.392055517228966
aF9.338227453292143
aF10.057729205926984
aF10.260562312013453
aF9.592138015904036
aF7.558019843493245
aF7.222878755634498
aF7.270236155786772
aF6.954469045811973
aF7.454681154895987
aF7.821302273445515
aF8.102871402786942
aF8.38672605501358
aF8.425765310765156
aF8.529564824522033
aF7.981400822862165
aa(lp7
F9.528695326532935
aF9.712916053708126
aF8.937234289044905
aF9.671582494518692
aF9.818328338246122
aF9.249634997625492
aF9.916321104264576
aF10.222818543920768
aF9.797450389985178
aF9.51817542333333
aF10.09284313097438
aF10.358192472349709
aF9.777034518233046
aF7.880125131248013
aF7.538288213504587
aF7.545214460234406
aF6.969915732195787
aF7.2238452848687285
aF7.394630347116811
aF7.928442500405236
aF8.477281159178027
aF8.598055598258197
aF8.550723149146721
aF7.894328535529982
aa(lp8
F9.595350083649683
aF9.759507337237471
aF8.888425118433725
aF9.511307195930415
aF9.60578319553801
aF9.11437401201743
aF9.521018153779533
aF10.067920929168444
aF10.009223793969712
aF9.859345922179251
aF10.22997433759858
aF10.404812597585458
aF9.899752790814286
aF8.25006498462556
aF7.467602649300287
aF7.5718227298465575
aF6.950355593925743
aF7.408674413941902
aF7.725065554757313
aF7.975453990801344
aF8.403709985816448
aF8.493293499064663
aF8.570263718368684
aF8.038868965468847
aa.