(lp0
(lp1
F6.066558513386308
aF6.3229685643199565
aF6.415684373353448
aF6.66988872357734
aF6.785573707808579
aF7.455237818367223
aF7.943954433967588
aF8.083996315487664
aF8.221708663566933
aF8.776680493473055
aF9.916444206993035
aF10.09942006652313
aF9.389003435215546
aF8.74629513186502
aF8.346561842642693
aF7.551826163590131
aF7.197512796217546
aF7.348708383517761
aF7.5018914525791445
aF7.9034257317459975
aF8.18461849962348
aF8.745620925399972
aF9.258924863852986
aF8.724601317920072
aa(lp2
F8.564682058280718
aF8.203857317576745
aF7.22370632426195
aF7.498620015963086
aF7.476150257973858
aF7.185492052451181
aF7.5682237291135355
aF7.694357830070301
aF7.573535120832801
aF7.8900463527828615
aF9.008688130885092
aF9.565304177209944
aF9.561676268579742
aF9.239209552550351
aF8.973324924233278
aF8.44664611584583
aF7.233438948598827
aF7.341966076339801
aF7.697352356784045
aF7.94981703600444
aF8.265958889903633
aF8.809175789993493
aF9.301554280267895
aF8.801752619384434
aa(lp3
F8.501227664434497
aF7.4545796466434275
aF6.652251384225516
aF6.885278649770236
aF7.574516460102778
aF7.711964679956827
aF7.204046111572855
aF6.910455513305228
aF6.8139756083856735
aF7.750241027326288
aF8.198090626372322
aF9.003183224929408
aF9.172469136158282
aF9.371311103198229
aF9.517215161230299
aF8.784992745888097
aF7.6559936033186
aF7.438847412391098
aF7.587659420883655
aF7.780265294527228
aF8.356941041017722
aF8.755896204934023
aF9.197779117169542
aF8.76705675542752
aa(lp4
F7.613241687791597
aF6.824302346010575
aF6.095778098959223
aF6.6018558432853265
aF7.169928753958922
aF7.535594396610855
aF7.294492054833925
aF6.577971907442138
aF6.244699366237017
aF7.434108556786215
aF8.002903179802908
aF9.085301223641858
aF9.131207963350596
aF8.835917813452633
aF9.331078901420293
aF8.922404304756926
aF7.520880345790463
aF7.351270531956042
aF7.4751272863451215
aF7.767261596273224
aF8.223370742482595
aF8.817201903658473
aF9.183027500134418
aF8.578444664144168
aa(lp5
F7.828597473383771
aF6.6429080139960375
aF5.904179382640137
aF7.099753410943008
aF7.5250475630725955
aF7.359270720652859
aF6.6604183264296735
aF5.598610266973037
aF5.74247095026218
aF7.152034398099573
aF7.498997957021576
aF8.926879666103197
aF9.052131794211771
aF8.642005879684158
aF9.334957177055749
aF9.028794756268994
aF7.432076834062787
aF7.350931146103569
aF7.474595479638561
aF7.727059158738444
aF8.297967768996063
aF8.873998707971408
aF9.338437242299827
aF8.840622467071423
aa(lp6
F6.704980051292306
aF6.206477160765977
aF6.252509636252692
aF7.1349981013020765
aF7.27273669766889
aF6.907058273750119
aF6.200017119604671
aF5.333752107217236
aF5.0004993935114985
aF6.501103454305541
aF6.991996026111069
aF9.215736292712398
aF9.325316664254238
aF8.774084945248788
aF9.541166344588158
aF9.234830193837901
aF7.550551579277175
aF7.591886633415168
aF7.754216365945161
aF7.896817088055043
aF8.370568231326892
aF8.855651463943373
aF9.236296564596342
aF8.703211944018351
aa(lp7
F7.995797683833679
aF7.239751780238277
aF6.485979227499564
aF7.067227279874895
aF7.068460465878587
aF6.444558659576558
aF5.5906794359053755
aF5.29879272570759
aF5.275161063761704
aF7.000706952400619
aF7.169185593055224
aF8.818374905194881
aF9.100112287604647
aF9.092143491381528
aF9.651563958009783
aF9.264493699084952
aF7.626209792026783
aF7.413818480343953
aF7.696104302078062
aF7.875536178092396
aF8.296757557667066
aF8.751327266102336
aF9.302332246374075
aF8.886140067719865
aa(lp8
F6.018839058305117
aF5.770873422904588
aF5.83359770178817
aF6.77136918609652
aF6.886272960785456
aF6.317142102315274
aF5.505074822866775
aF4.679250566153034
aF5.370369369851614
aF6.960753974542115
aF7.270537692013153
aF9.133270148777184
aF9.377211402210593
aF9.555100809042925
aF9.836315976314046
aF9.17302472500796
aF7.88711553287553
aF7.357317064269029
aF7.669261849042818
aF7.781247513030438
aF8.211839873035588
aF8.79077479043859
aF9.242511465250978
aF8.755621736425963
aa(lp9
F6.2315548713649385
aF6.24047311182674
aF6.185619122132302
aF6.883342120657486
aF6.641793781930976
aF5.045712339176077
aF4.823841621561793
aF4.941182050087235
aF4.88447556276001
aF6.707138934434963
aF7.094733109145163
aF8.797102333531297
aF9.081971447264868
aF9.47814973120589
aF10.003706809570657
aF9.479932915444891
aF7.611106861356162
aF7.323445730413061
aF7.6809494431673535
aF8.07278260745069
aF8.369013900412757
aF8.806702104392354
aF9.191642524455325
aF8.61191527319712
aa(lp10
F7.901094468935263
aF7.450197246897513
aF6.742870409581602
aF6.898416510915685
aF6.691754749170186
aF5.794913127150612
aF5.300946365090248
aF5.1064223665344715
aF5.21146073076634
aF7.118796945651337
aF7.360385496147536
aF8.857481292487892
aF9.005516267940909
aF9.58352960429293
aF9.735408749002433
aF8.466642400368965
aF7.193767912639509
aF7.384196220695516
aF7.711832863367756
aF7.887279665602472
aF8.215364870358103
aF8.666407622005398
aF9.320345547164225
aF8.929159931719308
aa(lp11
F9.06491052063693
aF8.943152410279824
aF9.364732370357393
aF9.447835194580012
aF8.69547824688876
aF6.93174581640711
aF4.94773009850388
aF4.740165496706663
aF5.2457017371081545
aF7.278477900342107
aF7.695655645607013
aF8.620649482505106
aF8.691577478720117
aF8.830568161696448
aF8.866604486627766
aF7.757181235996239
aF7.224680681111772
aF7.398631683083801
aF7.79953784376945
aF7.995183630929658
aF8.334021637624572
aF8.75982727414951
aF9.217910242289914
aF8.743676973879237
aa(lp12
F9.41190363411059
aF9.258530431560287
aF9.800856684383428
aF10.038060500293154
aF9.436852571195525
aF7.603988545606076
aF5.549726868014108
aF5.0747077966301335
aF4.996617250429168
aF7.965869488247377
aF8.837281096794536
aF9.468326730555427
aF9.208384128486017
aF8.255634842998829
aF8.337190304377458
aF7.576254025995311
aF7.187993577226182
aF7.442621076798652
aF7.644394631345522
aF7.931020857658796
aF8.43578383067969
aF8.898288657170333
aF9.244896778645911
aF8.708866511188399
aa(lp13
F9.364205084230894
aF9.238858881145882
aF9.959800452238577
aF10.11068285899697
aF9.414978802873065
aF7.907939736846257
aF5.683536967524928
aF5.212624417365742
aF4.990991806590318
aF7.841486756862606
aF8.86680164105524
aF9.682346565929079
aF9.395856686380577
aF8.014652590791922
aF8.218750546558633
aF7.453619330914626
aF6.940972108756722
aF7.408160179782185
aF7.8096773937879895
aF8.040905795498622
aF8.392032644741713
aF8.798790888412928
aF9.224966242757109
aF8.742057110408078
aa(lp14
F9.384019786842183
aF9.205479987231806
aF9.951748824930535
aF10.060290050677212
aF9.322959863008167
aF8.03722203092575
aF5.9964572138354
aF5.230542763366753
aF5.047774951368423
aF7.736234858436568
aF8.899408021312789
aF9.518453492823982
aF9.094506655272108
aF7.72826356484197
aF7.828233547719037
aF7.045700197717674
aF7.161529038886199
aF7.517468315762332
aF7.765471137928555
aF7.895433852838092
aF8.374732996807458
aF8.937767834023106
aF9.199153789922537
aF8.56124862546369
aa(lp15
F9.373417088219204
aF9.19657205464909
aF10.052244578366496
aF10.303138737571699
aF9.74451782450635
aF8.54372020480237
aF6.367189400329673
aF5.51965889477117
aF5.32938705606219
aF8.105001761700265
aF9.402177043963073
aF9.811757741131299
aF9.196911343694502
aF7.976407891672887
aF8.14862468908638
aF7.463769742875443
aF7.263327257835089
aF7.478472706516963
aF7.741849645035825
aF7.848973354156055
aF8.24804663198183
aF8.962360831499232
aF9.326180262570782
aF8.692642901699138
aa(lp16
F9.372479099814495
aF9.086926002631124
aF10.039394485204072
aF10.422416487983448
aF10.066938779829458
aF9.08427497193008
aF6.961342344999085
aF5.4143346719256575
aF5.432968638888701
aF8.253714903031211
aF9.763536987481
aF10.064906774747337
aF9.231558648882627
aF8.15031473867816
aF8.481013437214386
aF7.796495238108121
aF7.269807579285494
aF7.3897361982443135
aF7.595895805696371
aF7.963535208803572
aF8.467705854042087
aF8.938220737440062
aF9.252874562319265
aF8.674673672466783
aa(lp17
F9.256115671771719
aF8.98192867960939
aF10.07269712331082
aF10.54310273733617
aF10.400687603380895
aF9.686142057132233
aF7.65222636601864
aF6.165923133664411
aF6.09984834434426
aF8.494532111605281
aF10.032648454924415
aF10.296192563708653
aF9.385417921912362
aF7.802263727373084
aF8.059446352818638
aF7.464174530908313
aF7.154937144073377
aF7.26338387020525
aF7.621500222678104
aF8.000213687170831
aF8.427497035600343
aF8.740220134539127
aF9.21388025932463
aF8.801794475050755
aa(lp18
F9.068827196192156
aF8.654695009691904
aF9.781218673793123
aF10.43926507958233
aF10.47235773454821
aF9.795852319973068
aF7.7876877036164105
aF6.398411622999564
aF5.787414408696279
aF8.53854038248566
aF9.99337119272694
aF10.166438903676463
aF9.151077849688594
aF7.369920318553345
aF7.709999965300581
aF7.317319983500071
aF6.936603281716288
aF7.136010523139964
aF7.483450169719211
aF7.961399518455945
aF8.523987172637812
aF8.879713741855213
aF9.220427819047844
aF8.717872544622107
aa(lp19
F8.797682820001164
aF8.308703281639152
aF9.494502377083126
aF10.210870971825704
aF10.517608348729745
aF10.060846903625407
aF7.9021609300276605
aF6.440910393497336
aF5.641379508005159
aF7.966101839758918
aF9.724565943083832
aF9.894725944029608
aF8.73268306404326
aF7.303460908022407
aF7.536781655163963
aF7.119060773381731
aF7.0516418853312155
aF7.515475648799341
aF7.805939392457928
aF7.97577391185184
aF8.431227152659973
aF8.887359946966452
aF9.232666042494282
aF8.691173118092236
aa(lp20
F8.218247555877758
aF7.704276977988631
aF8.64164426947174
aF9.348093097654619
aF9.672085488445044
aF9.233832950597035
aF7.377082608289929
aF6.14114269147205
aF5.146214644833962
aF6.034526250709588
aF8.098083276387037
aF8.833394147805413
aF8.335748908394343
aF6.504423809641207
aF6.840969218491447
aF6.918499568359767
aF7.140503281271416
aF7.45843251443888
aF7.702215877288191
aF8.040142979218992
aF8.472330625338044
aF8.851747044255113
aF9.340629939057266
aF8.900764420981105
aa(lp21
F7.826444554804574
aF7.7194475762983945
aF7.757537413463554
aF9.127139568224159
aF9.834233744011527
aF9.45645017125764
aF7.593291175454109
aF6.185525173893711
aF5.870156998454012
aF6.550366843972417
aF8.750903861747624
aF9.371711170868037
aF8.767747349556334
aF7.048179739652377
aF7.0711816271038614
aF6.832243808407587
aF7.219097142798343
aF7.490196061353917
aF7.585225676847736
aF7.862068556434478
aF8.260412854564494
aF8.76384470789197
aF9.236340121902208
aF8.734555963432804
aa(lp22
F5.09950269181129
aF5.129579321436411
aF5.5019650076714735
aF6.501735928382566
aF7.156653036165562
aF6.897227272247721
aF5.782524701729266
aF5.135118550737534
aF5.014551282886016
aF5.329233722170321
aF6.951988498142532
aF7.300968735934104
aF6.78767242472419
aF6.485269063721644
aF6.730134508761865
aF6.931145818404144
aF7.104067507320577
aF7.400916131536227
aF7.648954341834622
aF7.858752214945688
aF8.308090380984831
aF8.769351709186052
aF9.104077811959963
aF8.552399708383696
aa(lp23
F5.472167187262277
aF5.582706791279556
aF5.080277092303912
aF5.085433616226187
aF5.306647868880713
aF5.39985390784326
aF5.24414172526614
aF5.325282455556951
aF5.538788532773749
aF5.594793785883412
aF6.221019872611965
aF6.8091628510473985
aF6.651624233871393
aF6.397741046442728
aF6.767649388204683
aF7.064060247655978
aF7.250823580344985
aF7.329304397188435
aF7.554683896157271
aF7.835343288969688
aF7.980703715915522
aF8.499114154602008
aF9.042135067958936
aF8.532216544262097
aa(lp24
F4.287202408867
aF4.672377955755412
aF5.069904758592029
aF5.521855843235576
aF5.508343277749168
aF5.509615058743174
aF5.468929096658911
aF5.042652336759668
aF5.2445212099121035
aF5.495280737648908
aF6.03756490789125
aF6.538789571885603
aF6.484969414371821
aF6.5815219981287
aF6.8092096854579705
aF6.845461200781735
aF7.094080981872249
aF7.2874697718101435
aF7.359161459479704
aF7.502606996776487
aF7.87525687419183
aF8.598679592804633
aF9.137819291741035
aF8.614664933110385
aa.