(lp0
(lp1
F9.696724190581616
aF8.887665202195093
aF9.133457751958622
aF10.30092631647891
aF10.245838229439718
aF9.521544181913848
aF9.947245628174771
aF9.711013844611282
aF8.976588712053607
aF9.945423924373152
aF10.3472928772111
aF10.158362090005351
aF9.865854493219567
aF9.161368964129846
aF8.22200367010459
aF7.906548401191352
aF7.156918569650319
aF7.506207499261939
aF7.7663347542286685
aF7.983215115271318
aF8.379975544430776
aF8.46706481721521
aF8.535463786658477
aF8.038241097117966
aa(lp2
F9.748903627075252
aF8.971396196626017
aF9.129722169143685
aF10.545029617170277
aF10.474203838664137
aF9.684293177612648
aF10.091346854448895
aF9.775372068190439
aF9.269002853401572
aF9.843110343734185
aF10.315388457094613
aF10.451878122617945
aF9.985038226817933
aF8.47972455273365
aF7.951960348581555
aF7.785795590295641
aF6.963855625190168
aF7.294129243400136
aF7.718083317361081
aF8.131650005535038
aF8.479402299357185
aF8.500698621362895
aF8.482859412935143
aF7.869639015906037
aa(lp3
F9.78123765058975
aF9.065715605907362
aF9.133726042416912
aF10.629276128394809
aF10.580311112696592
aF9.967852631675482
aF10.283295993999758
aF9.842321036170976
aF9.408991446012024
aF9.80427885760785
aF10.3264006050462
aF10.384593480855143
aF9.742539539309412
aF8.342126567558678
aF8.046896194309761
aF7.8754447942207175
aF7.076065995043569
aF7.317696442095695
aF7.551946614345889
aF7.9574267013071065
aF8.49712270849544
aF8.586544296394532
aF8.498923642879854
aF7.85643382705098
aa(lp4
F9.806125737219336
aF9.08325538396895
aF9.051265886939271
aF10.579800083916268
aF10.561231825217364
aF10.154202727081852
aF10.515492085262945
aF10.063959461995026
aF9.394973635524149
aF9.606570236152143
aF10.158089544920564
aF10.387303048165322
aF9.804762928911774
aF7.727607187873207
aF7.775425291070624
aF7.634180969073112
aF7.042324441462515
aF7.486117062768115
aF7.7378713075449825
aF8.08256606627086
aF8.567801821608473
aF8.704052893445082
aF8.727222555461603
aF8.132577609373884
aa(lp5
F9.805761412634368
aF9.090483200761703
aF8.965466197601758
aF10.45096717664174
aF10.443328462609955
aF10.189882790305353
aF10.56315665080335
aF10.059083090573965
aF9.180837516026847
aF9.689803349748912
aF10.203614283017675
aF10.434126363286309
aF9.949119780826894
aF7.628776214982949
aF7.965432310047281
aF7.771561251936596
aF7.046198263653261
aF7.6417920232052285
aF7.87531319544329
aF8.033960238892787
aF8.533693732096427
aF8.607424794166517
aF8.592527425478115
aF8.05579620227736
aa(lp6
F9.77909700188004
aF9.068189189561696
aF8.808214342904945
aF10.32756897900446
aF10.340830109575503
aF9.981535561085892
aF10.466509022944217
aF10.150279417173635
aF9.25554614816868
aF9.594199845529266
aF9.984460476750144
aF10.072543239591338
aF9.627395872247003
aF7.708407190871179
aF8.030516986011898
aF7.922473848361107
aF6.990594216673619
aF7.235467163313221
aF7.656050285283553
aF8.040171430208778
aF8.338462498925836
aF8.453070439407657
aF8.616681673910243
aF8.08680940692957
aa(lp7
F9.623420110186098
aF9.811028737593853
aF8.986930639723582
aF9.782487801629618
aF10.12676442202715
aF9.758874823746183
aF10.150425210219522
aF10.253635324932333
aF9.560164062037819
aF9.668612475056182
aF10.173357989324254
aF10.423990908158135
aF9.953076619621486
aF7.9837183954260915
aF7.9483326398075445
aF7.94141509682588
aF7.180771521567578
aF7.343029997174431
aF7.665898987298684
aF8.211545090638994
aF8.53935284852326
aF8.480995047459867
aF8.521432208351985
aF8.019405946170624
aa(lp8
F9.752539951376201
aF9.888517824151831
aF8.949577711806384
aF9.748577941372341
aF9.965313278706198
aF9.598379863881
aF10.27680683317029
aF10.53770913977781
aF9.978592527186068
aF9.683101709080292
aF10.159358161415657
aF10.546569806853071
aF10.216035869859333
aF8.819777025193313
aF8.260834088235747
aF8.23202775123855
aF7.737072914765758
aF7.838445651766706
aF8.020780195841516
aF8.182884532870668
aF8.430375134976492
aF8.466286917318278
aF8.649502595450013
aF8.17648665450014
aa.