(lp0
(lp1
F9.392128276736841
aF8.547002601234952
aF8.97854293582458
aF9.887561551629203
aF9.691247597516654
aF9.163217313216329
aF9.572318411764364
aF9.254116034752004
aF8.574313749015452
aF9.844112339955144
aF10.287616675999015
aF9.970023165036984
aF9.524169988748806
aF8.82110430720405
aF8.15045459166295
aF7.85502193270002
aF7.131375289192741
aF7.337084794996084
aF7.582880164326576
aF7.88799273810638
aF8.265141145523446
aF8.50970488710258
aF8.571414871966399
aF7.8978089984744075
aa(lp2
F9.40109649942044
aF8.56055275397102
aF8.858808189280492
aF10.020664437308794
aF9.931535716230977
aF9.364340809780568
aF9.579189253330673
aF9.188438208722477
aF8.706536245550614
aF9.491798547537714
aF9.98044326872666
aF9.851337785058712
aF9.299743621345215
aF8.245188337115094
aF7.73383782802087
aF7.467607537141854
aF6.9661378772087055
aF7.514255141106029
aF7.660415480209091
aF7.9485922949819745
aF8.324832585149334
aF8.508865493403905
aF8.576087532288662
aF7.8749712114444534
aa(lp3
F9.434943184886354
aF8.66934341629459
aF8.832974949970627
aF9.951488799094331
aF10.095709191447899
aF9.82859190926773
aF9.73797986548752
aF9.287882546311664
aF8.987828536527612
aF9.517092204358834
aF9.885747182189718
aF9.974469094230205
aF9.544670129201961
aF8.088991160416837
aF7.618656477663211
aF7.471850070758833
aF7.2079185625559825
aF7.328354819174297
aF7.574066233359824
aF7.874744423577162
aF8.229363074717389
aF8.52263208706883
aF8.531601050434176
aF7.76979594968842
aa(lp4
F9.469200783682725
aF8.691777764861808
aF8.767439064606313
aF9.938132229650721
aF10.112513174538778
aF9.865850767686617
aF9.823353085974952
aF9.462904517943299
aF9.149149942625224
aF9.496134524790449
aF9.762862438273293
aF9.968110566744663
aF9.583601069464
aF7.7248874426515695
aF7.393366620266879
aF7.327979075493722
aF7.115252760966289
aF7.344037898335372
aF7.71809050701605
aF8.093363971974252
aF8.343748508357685
aF8.528596332685352
aF8.707866816559324
aF8.086954597776927
aa(lp5
F9.478448512763244
aF8.694799753455497
aF8.680359115704368
aF9.972651558458384
aF10.085506038029138
aF9.798717815791962
aF10.012116944126166
aF9.678603699479147
aF9.116683067445049
aF9.498223724253272
aF9.874583429110599
aF10.142187666399373
aF9.71741025611825
aF7.5774004390133465
aF7.166448044044887
aF7.22709400751958
aF7.0299283322522035
aF7.236161612613442
aF7.635108480030769
aF8.022868369929462
aF8.4306304394779
aF8.580773918519453
aF8.583375883958416
aF7.9169082404968
aa(lp6
F9.461349447381133
aF8.648368416413454
aF8.567125105907417
aF9.897565351418518
aF9.893344735919271
aF9.442418775022455
aF10.146827836939881
aF9.990147878212923
aF9.16268544161376
aF9.671103771580505
aF10.110336086503118
aF10.286713337632543
aF9.815207989630848
aF7.743246232637795
aF7.18294372041869
aF7.241928194688173
aF7.016395149562658
aF7.297387949924168
aF7.680934600236889
aF7.8655126089876815
aF8.26639737666662
aF8.442143505934476
aF8.585029439300506
aF8.083864547029654
aa(lp7
F9.412468439098589
aF8.616312789818364
aF8.34998318628637
aF9.618336170240385
aF9.676650516138817
aF9.161649716010123
aF9.84959240546094
aF10.111748953626941
aF9.723375048309608
aF9.770606685764374
aF10.204769157145076
aF10.432855267798015
aF10.073451102085373
aF8.470093808195719
aF7.342270076690239
aF7.345872650257678
aF6.9938110294945615
aF7.125705843785293
aF7.487116078713699
aF7.915863631786333
aF8.30833961357139
aF8.57678170904646
aF8.605468270746915
aF7.87547447099818
aa(lp8
F9.356235472694207
aF8.62590154350953
aF8.049611917788528
aF8.711028089639148
aF8.950135903175205
aF8.569564405167638
aF8.759799407221983
aF9.74353385892334
aF9.801708423771933
aF9.71900962565654
aF9.819763439023774
aF10.032522917575404
aF9.983214913273505
aF8.74439972190486
aF7.523951826478061
aF7.535238093160697
aF6.968690701014493
aF7.283291651209138
aF7.460570431363865
aF7.883465451306982
aF8.390530392907655
aF8.521297510235144
aF8.6167175324302
aF8.065636432857302
aa(lp9
F9.37706064350396
aF9.52874819128013
aF7.926599000781224
aF7.456917793436975
aF7.63842338448897
aF7.21980442786415
aF7.814454893554022
aF8.949039445272636
aF9.341037637050803
aF9.21885736336002
aF8.80499055265377
aF8.467027060579339
aF8.613300706614401
aF8.102690462257243
aF7.604297955387651
aF7.741857733816897
aF7.087308215380465
aF7.451115564383086
aF7.741115311525292
aF7.955601231900097
aF8.233189046729974
aF8.278680594348138
aF8.45402942233573
aF7.931170774643151
aa(lp10
F9.287796094707502
aF9.373133880543222
aF7.461538615376349
aF6.475814471004082
aF6.8723580663719295
aF7.009514260470752
aF7.080810705910222
aF7.229421437857186
aF7.444532248445268
aF7.578072174592147
aF7.36259333555883
aF7.441560608459854
aF7.478646624828333
aF7.030444451636313
aF7.135477256996853
aF7.287688064728249
aF7.177395283912425
aF7.257700512071662
aF7.5449375360945945
aF7.823295592705956
aF8.158964676262606
aF8.366639401557258
aF8.53016559995359
aF7.987508616279685
aa.