(lp0
(lp1
F5.794267630331882
aF5.67891090324594
aF6.4454478017580845
aF6.597255752528031
aF6.774293367767535
aF7.304611645341172
aF7.44831724011427
aF7.442021671964048
aF7.824918497312661
aF8.2501876560038
aF8.948349936092855
aF9.263796646092183
aF8.890237210697952
aF8.239684787295786
aF7.826703392221622
aF7.362620025455295
aF7.288510190892402
aF7.403756142572779
aF7.537402754307206
aF7.828226818382987
aF8.166889321389947
aF8.745984433525654
aF9.148279741135068
aF8.549568805027013
aa(lp2
F9.134779721549313
aF9.153499850937811
aF8.925376010068995
aF8.74646488794413
aF8.496730265725768
aF9.163391183082142
aF9.339974240688408
aF8.928447562092897
aF8.794185908487481
aF9.133197492330227
aF9.651893746278471
aF10.259695204206153
aF10.130234147446533
aF10.009153037160477
aF10.212744626058557
aF9.433784273728401
aF7.43870165103388
aF7.508061634499927
aF7.666707481936096
aF7.876847631359276
aF8.357563360043443
aF8.821492070780469
aF9.145832190181457
aF8.582956075958187
aa(lp3
F9.500453234663542
aF9.099564077557414
aF8.169679286922483
aF8.170379062088655
aF8.281664918098029
aF7.874613886667805
aF7.462753349556309
aF7.600066551677876
aF7.622392070167612
aF7.882548444797566
aF8.77092127389637
aF9.68076292269981
aF9.655916296956672
aF9.718176452058122
aF9.768842739062762
aF8.76199110719406
aF7.442869813277818
aF7.268986020656902
aF7.685469111278286
aF7.841140309824797
aF8.372961521789128
aF9.019612615951047
aF9.376198522455091
aF8.787991730276689
aa(lp4
F8.886775198736013
aF8.798521352119703
aF7.862892659571247
aF8.439007956467158
aF8.610091386644877
aF8.212809115601997
aF7.969788013934468
aF7.511855000777652
aF7.464536471562258
aF8.827949491356721
aF9.154231441069639
aF9.668857176516397
aF10.077776093961091
aF10.124029986669058
aF10.070563121187753
aF9.409039504095722
aF7.758583406292129
aF7.499762531380072
aF7.63664472775388
aF7.807232455310037
aF8.311336837631318
aF8.875984790233842
aF9.322027843783493
aF8.804726373449038
aa(lp5
F9.915856070848937
aF8.676367135835486
aF7.609492235532381
aF8.273957919415128
aF8.615195004956972
aF8.302872238144662
aF7.212817991628356
aF6.551489952737219
aF6.778832555973615
aF7.891322931150596
aF8.247549091388212
aF9.060503320019672
aF9.614057322113027
aF10.271721790892686
aF10.586697198722167
aF9.909876311531884
aF7.639102230662088
aF7.323612927943578
aF7.613019264222127
aF7.86146150367552
aF8.431072903680537
aF8.884468086185082
aF9.244671470611319
aF8.762726086062012
aa(lp6
F9.571585310121264
aF8.878398052687501
aF8.874515553616638
aF8.838009282358264
aF8.40869421532755
aF7.708207804146077
aF6.92164090715239
aF6.118615244945903
aF5.931031067028586
aF7.315063209465376
aF7.990913427730284
aF8.8064253981251
aF9.184053212656476
aF9.704273958387347
aF10.290919668856455
aF9.863118966508786
aF7.718858488136173
aF7.402281339831011
aF7.58645424855253
aF7.982872528634889
aF8.487892423868798
aF8.845304819866996
aF9.178138674897134
aF8.676449403534248
aa(lp7
F9.864776827105802
aF9.53490675600399
aF9.382195605737937
aF9.555252476583782
aF8.999492906139881
aF7.653228845784204
aF6.615798159489253
aF5.564980225569967
aF5.543193780391825
aF7.63979955129831
aF8.015050995985387
aF9.118361681588414
aF9.592299635143462
aF9.599831066291292
aF9.81830833004193
aF9.383290060886926
aF7.7224339395595285
aF7.358348894460571
aF7.677878271092869
aF7.928435025726972
aF8.491667315546856
aF8.841605437838199
aF9.24766856472387
aF8.821681840515966
aa(lp8
F9.55585244615435
aF8.96896875318312
aF8.27477370350645
aF8.685135869372584
aF8.446974396973474
aF7.188136807045458
aF6.025494965549535
aF5.220926282454293
aF5.545457813419258
aF7.38293009395768
aF7.874604678040509
aF9.265676730447145
aF9.803718565683164
aF10.448342490894605
aF10.796438464197692
aF10.179575262764477
aF8.275888971868962
aF7.365114937531975
aF7.737553327600653
aF8.01928891796363
aF8.388270932919951
aF8.867189759292922
aF9.268466540525935
aF8.732827418323339
aa(lp9
F9.1964331974392
aF8.209198808646306
aF7.904334228055594
aF8.35125212264834
aF7.96530280065161
aF6.751101378643791
aF6.279110013935382
aF5.4970146271086255
aF5.475646108998215
aF7.900529776747895
aF8.201386125474922
aF9.83431675061705
aF10.280483294784391
aF10.242774362619501
aF10.389624223990102
aF9.83998083557567
aF8.165466253375266
aF7.428682717900733
aF7.6552439011112865
aF7.857738877414891
aF8.203704580282903
aF8.745234529837795
aF9.213216061316697
aF8.701979905480938
aa(lp10
F8.566455830951716
aF7.647079232533617
aF7.916180975655053
aF7.918864854825851
aF7.157928225072429
aF6.895203935134543
aF5.940101467044847
aF5.350158421283882
aF5.2075295237142685
aF7.424229705136876
aF8.001472140558414
aF9.522094735853601
aF9.903485543933726
aF10.710072184395623
aF10.921098387503624
aF9.941901052941201
aF8.080676347991778
aF7.406642194882291
aF7.655961148880624
aF7.863385236747819
aF8.324648891805387
aF8.937986287300404
aF9.300343885415534
aF8.704835801945208
aa(lp11
F7.0151145043546785
aF7.210506926248597
aF7.364977474530623
aF7.836053448738448
aF7.650081109315844
aF6.433633437360027
aF5.694412373653537
aF5.148315515166818
aF5.176730612816519
aF7.736007481626695
aF8.343594581620177
aF9.397801791813453
aF9.738490681986704
aF10.161544052486349
aF10.270105768864036
aF9.337510070775986
aF7.639463590269438
aF7.459522518121878
aF7.736221319541932
aF7.872509463283173
aF8.079682905210932
aF8.72734478258399
aF9.283280114682777
aF8.759457868318458
aa(lp12
F8.910339280423303
aF8.415218705940948
aF8.465240019618541
aF8.610003019187713
aF8.026566310453699
aF6.764662665038275
aF5.955227170629639
aF4.864722517455319
aF4.980632487952439
aF8.199122569468365
aF8.591157603613683
aF9.492083652817731
aF9.639201443327645
aF9.676082504268566
aF9.854242614826429
aF9.047765939629128
aF7.662569572834446
aF7.387320387407395
aF7.681596657854547
aF7.992422821813456
aF8.440995074329317
aF8.881867980404502
aF9.347258894715603
aF8.876532315272419
aa(lp13
F10.114536838042843
aF9.98310557309729
aF10.519383155804777
aF10.554155494514173
aF9.772633930472553
aF8.1816302036838
aF6.371592597838957
aF5.107084885454371
aF5.027621465353598
aF8.177713916912765
aF9.048134235942062
aF9.470179061554704
aF9.20878319556787
aF9.253488332147699
aF9.622026339897745
aF8.894064801582452
aF7.210784823416474
aF7.483516456353469
aF7.65466727737997
aF8.033799278012554
aF8.635876872865587
aF8.93891031272994
aF9.239539023852677
aF8.752127011742871
aa(lp14
F10.25239190470016
aF10.07306614948966
aF10.680851544426186
aF10.808017235510153
aF10.119845842693724
aF8.460892193071123
aF6.7855255946148985
aF5.513088222707772
aF5.399906719334128
aF7.841712932059808
aF9.155745439864857
aF9.585717639228768
aF9.092129880776367
aF9.208061650408744
aF9.590559387390364
aF8.792690106310694
aF7.074133141353116
aF7.371594212982535
aF7.652171108415677
aF8.059585541337098
aF8.720963852249254
aF9.038252576571525
aF9.236816833527724
aF8.685485977005047
aa(lp15
F10.338757205301519
aF10.219654181454771
aF10.938001550346405
aF11.230141790995255
aF10.683654341140153
aF9.054121191895801
aF7.1461399780173815
aF5.810916259131025
aF5.741802598478359
aF8.814694621244604
aF9.919098426942732
aF10.076344742626647
aF9.328773703054264
aF9.379877167696334
aF10.051436059054534
aF9.486980618794629
aF7.244798047642568
aF7.384467045549181
aF7.497869779134366
aF7.895567437815475
aF8.614733074711353
aF9.004963861934945
aF9.272195582055474
aF8.744907224633344
aa(lp16
F10.385946975498097
aF10.162328362685361
aF10.97747722567315
aF11.377666276023172
aF10.95996289019361
aF9.642797338926105
aF7.788860935392923
aF6.461088226029751
aF6.239482228209205
aF9.031679849566267
aF10.121370419445363
aF10.100660796288434
aF9.017398526941582
aF9.365827220321517
aF10.087325944925396
aF9.51938849708146
aF7.088733845456202
aF7.241341522673569
aF7.45402477908599
aF7.999977601865179
aF8.81968456037387
aF9.19532172815549
aF9.310286649032173
aF8.693702049310785
aa(lp17
F10.398354559045027
aF10.13361689682889
aF10.957165364981874
aF11.461249323393668
aF11.215149431354915
aF10.158701130457885
aF8.312857201537906
aF6.7684239292481685
aF6.672577759026959
aF9.27230652961296
aF10.237138983971818
aF10.13741581419755
aF9.060222788014352
aF9.552070041973654
aF10.065794173373725
aF9.327125900154817
aF7.244426998416791
aF7.427701743363394
aF7.618594392913474
aF8.181602667148141
aF8.900957899425533
aF9.186274899394006
aF9.266918640436728
aF8.660769262502814
aa(lp18
F10.327682814716292
aF9.90838290856987
aF10.750301098301149
aF11.374966804631049
aF11.26607571461793
aF10.344788181147702
aF8.40926083256998
aF6.898051164938578
aF6.790561041169992
aF8.789239382266015
aF10.12606070721095
aF10.101436236470589
aF8.764697287682672
aF9.07131936740938
aF9.830037373174212
aF9.341584547336954
aF7.166343010627102
aF7.5271773476743205
aF7.739862858986781
aF8.2159729173083
aF8.800073226306996
aF9.045140436400038
aF9.162860200355457
aF8.569534649119635
aa(lp19
F10.237286684339036
aF9.761498726217537
aF10.634184092344055
aF11.341150289849674
aF11.312096305082042
aF10.460126166014453
aF8.550326151728605
aF7.2938302566789455
aF7.0432738220090885
aF9.08069979834164
aF10.288969240442002
aF10.203176449382472
aF8.821206876236749
aF9.069343637091567
aF9.661396199186951
aF9.05080010833371
aF7.079591176386616
aF7.39401317359191
aF7.543343657984607
aF8.289371817023175
aF8.86461560865524
aF8.953813885730238
aF9.296884391550595
aF8.891531691842845
aa(lp20
F10.11146653589443
aF9.565636079411144
aF10.574857103073857
aF11.30522065610316
aF11.413674935064149
aF10.797009789252595
aF9.019624776704905
aF7.731593448407407
aF7.036837745402114
aF9.334941916022883
aF10.576856784471953
aF10.496233911870211
aF9.119131963612155
aF8.853702089214972
aF9.417276683754261
aF8.876260987077039
aF7.087898431393248
aF7.3298341371020275
aF7.663739374111821
aF8.2910298265233
aF8.894772062456529
aF8.991222396767117
aF9.166962993569095
aF8.724387644046203
aa(lp21
F9.788065308879592
aF9.195533631512472
aF10.349321397137462
aF11.10156952787961
aF11.289077970137438
aF10.765440921417683
aF9.03994512692739
aF7.919310159086613
aF7.412490122239443
aF9.190379799183779
aF10.612052903334856
aF10.603454537922483
aF9.23045958116522
aF8.937528562388707
aF9.212095439224953
aF8.355928108636743
aF6.8360819111086615
aF7.254678189675008
aF7.650981394897633
aF8.066836906794483
aF8.725678057481788
aF8.9977773699915
aF9.204024360259176
aF8.700025100629059
aa(lp22
F9.257344335603745
aF8.758270875636043
aF9.491093803154458
aF10.680269720258668
aF11.203936716210437
aF10.746852412620946
aF8.864030585363494
aF7.600521249072081
aF6.99294016608961
aF8.625119703839504
aF10.230952824767414
aF10.342399273042963
aF9.153824200018365
aF8.578378382223901
aF8.936006298317274
aF8.228972412006568
aF7.155792476378664
aF7.538827432824073
aF7.6664899070693435
aF8.068352803629866
aF8.552160062560562
aF8.900543914847034
aF9.242516091444717
aF8.719794227611926
aa(lp23
F8.406769995613535
aF7.763293782110674
aF8.454079720626222
aF9.170187303802296
aF9.533306823901903
aF9.266446345004665
aF8.053913822228283
aF6.507052562584217
aF5.571813711769227
aF6.547195577479331
aF8.062868845019848
aF8.423995255613287
aF7.85733618139865
aF7.6291735452775
aF7.684962529494555
aF7.070710648156094
aF7.129299608803177
aF7.430994334963304
aF7.77100507690999
aF7.9388748823220014
aF8.137756572374066
aF8.757019638361829
aF9.256688912555667
aF8.734809759161008
aa(lp24
F6.8705877066180765
aF6.554538533590865
aF6.104747285834453
aF7.749058559185953
aF8.509233713178794
aF8.133577044406753
aF6.3614955838539435
aF5.218129778197212
aF5.231745676591191
aF6.1391314512202415
aF6.570201652110096
aF6.771651408597932
aF6.666403592182477
aF6.849550013657956
aF7.202978678972664
aF7.060405857642325
aF7.080454598728723
aF7.300008604743253
aF7.542196395935611
aF8.036627601612256
aF8.45152765642462
aF8.871526647623455
aF9.343522560324818
aF8.850961826648497
aa(lp25
F5.077992993732893
aF5.15676821355854
aF4.850778035152714
aF6.323212239397611
aF6.614346737139411
aF6.109727040100036
aF5.714985590878749
aF5.071817843040465
aF4.526068380454403
aF5.480569995668415
aF6.167634090452059
aF6.289208877590498
aF6.280351005190885
aF6.64626912100424
aF6.914369359117901
aF7.117937808276214
aF7.2470580230372095
aF7.222465584114463
aF7.504137839977239
aF7.801747714660959
aF7.988149191098055
aF8.689570211260017
aF9.225949187207386
aF8.675248420499443
aa.