(lp0
(lp1
F7.895399242124828
aF7.54967716304063
aF6.899412370659193
aF7.522354313609546
aF7.604505434866237
aF7.655070830650347
aF7.9723974839938165
aF7.987351198999074
aF8.024002011019698
aF8.429301396100033
aF8.757130832780923
aF9.59295124354199
aF10.072964529146308
aF9.957631064544302
aF9.913554021983483
aF9.423393962650946
aF7.235532008102477
aF7.398536286387404
aF7.731138910149168
aF7.9304658032716215
aF8.237637041313375
aF8.590742974183149
aF9.053010552970177
aF8.606551007374716
aa(lp2
F8.721348000022306
aF8.09455113980323
aF6.954921207389529
aF7.384537077413083
aF7.746066543716941
aF7.973243207542687
aF7.652240083459818
aF7.000315995890132
aF6.728470663151992
aF8.003245185225063
aF8.305174078270795
aF8.749531521782625
aF9.227747789680826
aF9.861098560950047
aF9.963460685602275
aF9.045673760306052
aF7.444002964434203
aF7.290731124618342
aF7.605916058005484
aF7.881882563975084
aF8.236220749123314
aF8.724404849502717
aF9.202538341593234
aF8.702762525090758
aa(lp3
F8.794649659717937
aF7.9201904462713735
aF7.475690398659354
aF7.921685965171514
aF7.873921674303266
aF7.81108586003536
aF7.768552216472249
aF7.235551991593327
aF7.069497943921631
aF8.619343347710057
aF9.028825740674284
aF9.424594388467606
aF9.494926983355843
aF9.983001555547105
aF10.349708538303668
aF9.667201208756744
aF7.840401027539255
aF7.497350251059327
aF7.760331831524737
aF7.8868507701821295
aF8.204210341173223
aF8.652510017550338
aF9.183841220807889
aF8.742288110958047
aa(lp4
F9.338246466084508
aF8.263379107290357
aF7.4315963842890715
aF7.63862966631008
aF8.014104727259959
aF7.750425435752879
aF7.187930097124643
aF6.859573292782154
aF6.975985103802468
aF8.035672406943968
aF8.43866113292748
aF9.296615799027087
aF9.611528033581147
aF9.8432008993443
aF10.118642313184234
aF9.55101836727501
aF7.793302660331707
aF7.383652873817516
aF7.674687245685934
aF7.872845961036977
aF8.409329751235092
aF8.83751456098428
aF9.222419523142879
aF8.756670465788552
aa(lp5
F8.596253332441497
aF7.535891118462088
aF7.45240131542763
aF7.759005398109995
aF7.414368462216332
aF6.804336277428138
aF6.29160735516651
aF6.388481042394909
aF6.85297673374016
aF7.907065911167569
aF8.338985493708783
aF9.790711396951401
aF10.063129824774682
aF10.259834379595326
aF10.677311851378313
aF10.095355519341174
aF7.792853920120441
aF7.473748943523997
aF7.652983724007673
aF7.815203351470813
aF8.245570582133011
aF8.719801980784096
aF9.199745294066709
aF8.721034662003714
aa(lp6
F8.79080803449368
aF8.110666294270546
aF7.405732168934602
aF7.5912417352427815
aF7.7856772472050135
aF7.385339220935888
aF6.458074074586611
aF5.830616840517902
aF6.472146334559559
aF7.801868098411371
aF8.257060395056094
aF9.506402059874315
aF9.907419868578797
aF10.631763314862955
aF10.850873433798569
aF9.991908651494517
aF8.25623925272849
aF7.42468341417862
aF7.615411244351715
aF7.836816040127311
aF8.365891117981787
aF8.968422569450372
aF9.29176666599357
aF8.659796479617338
aa(lp7
F8.576441717203897
aF8.321302575885307
aF7.70239184578581
aF7.485928630832245
aF7.245674133022
aF6.274347742332651
aF5.860540055464668
aF5.5869992472521375
aF5.797258992720283
aF8.003883700909908
aF8.40703677805856
aF9.336049519661286
aF9.665536818011102
aF10.047658427241014
aF10.196762094577931
aF9.353119079842468
aF7.806367513151288
aF7.477110384056053
aF7.67533667491865
aF7.8485090891896006
aF8.259806605571415
aF8.807405778150454
aF9.25409045311471
aF8.728599562575994
aa(lp8
F7.915786145105803
aF7.4857634088410565
aF7.526673958790385
aF7.338906261102268
aF6.565575462318837
aF6.5090259721382395
aF5.903138913974657
aF5.124772490913467
aF5.560234456619304
aF7.676185893276629
aF8.00797248527811
aF9.57996230623865
aF9.896784171947921
aF9.9371283158924
aF10.220259541885842
aF9.59747763785154
aF7.709585408260371
aF7.459830445087274
aF7.70221882669974
aF7.813978009438437
aF8.240595436298674
aF8.749883901849909
aF9.15422925553916
aF8.63533598372295
aa(lp9
F8.087421174546616
aF6.964803174527546
aF7.434284735937969
aF7.401824710428238
aF6.628550826662277
aF6.478494898118805
aF5.650429543805364
aF4.933353580976043
aF5.533874246509333
aF7.7150755249410965
aF8.162918802348743
aF9.221633743833312
aF9.329983395574162
aF9.596890003669488
aF9.87115041939541
aF9.047626025672818
aF7.560527487218018
aF7.399204847983153
aF7.71355713140484
aF8.078998252589093
aF8.283343445451289
aF8.722316850900226
aF9.244580087407185
aF8.737967490484076
aa(lp10
F9.337986729511167
aF9.160109973221935
aF9.501950041635665
aF9.21858077285962
aF7.9544158895198915
aF6.692928145762509
aF5.430796407572244
aF4.9761166546663835
aF5.524231397349928
aF7.570492680430725
aF8.033475140039213
aF9.344748262756948
aF9.461261728415623
aF8.94139856848715
aF9.05498011709912
aF8.40298529947832
aF7.222397201622637
aF7.240711323780909
aF7.613089277161698
aF7.812089037283771
aF8.22864211787232
aF8.722222417413523
aF9.261727815289941
aF8.832356024427577
aa(lp11
F9.948863734570319
aF9.951058043792539
aF10.322153049055991
aF10.30591585312851
aF9.69030040278337
aF8.310160659316454
aF5.983583311501236
aF5.446048573273781
aF5.2039703373540895
aF8.132637332156214
aF9.017354243427242
aF9.212110698726903
aF8.66673175004124
aF8.947012901907128
aF9.467199693525671
aF8.821325566837846
aF7.331334421210781
aF7.492486986301112
aF7.683508584827733
aF7.816201750531733
aF8.410303256455103
aF8.934266889241597
aF9.284881887835017
aF8.749116680375653
aa(lp12
F10.078368151587705
aF10.14250558602132
aF10.680910722334588
aF10.759749216961405
aF10.080886117084871
aF8.428822397520143
aF6.662606140464061
aF5.711310797968607
aF5.107819549096081
aF8.553064505682705
aF9.546692759169845
aF9.55210529917253
aF8.6916784024769
aF8.918994079071688
aF9.647656343127247
aF9.142503644059037
aF7.154066631164197
aF7.388036452697867
aF7.658920397299266
aF7.991565256290707
aF8.514537230863137
aF8.881472258895673
aF9.309305276089246
aF8.867201806754078
aa(lp13
F10.096483902840058
aF10.071951508061948
aF10.674280563858865
aF10.830244791469333
aF10.215271342886187
aF8.718821371805502
aF6.84224462172305
aF6.291195603594193
aF5.72772482740943
aF9.100798042363435
aF9.9463362720093
aF9.819699421177575
aF8.850025344955888
aF9.034443625295548
aF9.786658014450147
aF9.276236010227063
aF7.168531143711365
aF7.412883353140362
aF7.750072549218243
aF8.01149978653655
aF8.549055506514547
aF8.979875390487562
aF9.33122233529513
aF8.829978135246229
aa(lp14
F10.06269749529406
aF10.009822437812872
aF10.737425123847027
aF10.983076583893578
aF10.453207748485836
aF9.105938764049666
aF7.2939895120251546
aF6.595442472928753
aF6.357032560934965
aF9.13813747046088
aF10.062823764226874
aF9.797469665548578
aF8.23582538875158
aF9.104873821700837
aF9.73223124061751
aF9.078830533972987
aF7.059491899860405
aF7.312885837142196
aF7.650003427352161
aF7.9761746683612715
aF8.57835305331869
aF8.905096405592948
aF9.249058544140835
aF8.798973913995791
aa(lp15
F9.98975539545436
aF9.83340728828073
aF10.623684141441819
aF10.95855941603484
aF10.563061567289385
aF9.434894105753985
aF7.571894973653509
aF6.779651599614839
aF6.699124920310328
aF9.147108342714612
aF10.026684759271308
aF9.783544715093397
aF8.386289337882484
aF8.82853509010563
aF9.657703486910874
aF9.204555452886495
aF7.246490369865747
aF7.452971427864559
aF7.747364718173927
aF8.122425166369945
aF8.618234978265413
aF8.932820787067369
aF9.268369572931567
aF8.770015634630987
aa(lp16
F9.925775827322576
aF9.707494663325996
aF10.569845824728095
aF10.940295224525759
aF10.680923224154284
aF9.88843761291332
aF8.013576300945411
aF6.755450711599319
aF6.93541080450693
aF9.305212663095459
aF10.213130496929598
aF9.892237532315484
aF8.116639036979617
aF8.67243400565325
aF9.661404311816561
aF9.300202058106544
aF7.151752823929006
aF7.236074290423282
aF7.651268365645619
aF8.015230132330165
aF8.498076426297331
aF8.869582228073263
aF9.270050354873499
aF8.81992735427297
aa(lp17
F9.78787269387097
aF9.527797007015854
aF10.549349688114324
aF10.941037843072698
aF10.85834543009625
aF10.325486540964658
aF8.334063677159401
aF6.764874220166033
aF6.970421918923389
aF9.395399493601479
aF10.3716265385283
aF10.089710431589479
aF8.316158330063013
aF8.704217696057427
aF9.3791607147153
aF8.840189221269565
aF7.127137919493605
aF7.541222920862607
aF7.73005557944602
aF7.996034198145186
aF8.523976599441367
aF8.832849528670488
aF9.177108903354693
aF8.700453680744653
aa(lp18
F9.53192908721333
aF9.209438958382583
aF10.317593199676585
aF10.697982366058405
aF10.763855645618381
aF10.371772016150256
aF8.309473292361742
aF6.933280181668266
aF6.419372564178557
aF8.835040337172437
aF9.882847478081189
aF9.627082657840804
aF7.809128380988202
aF7.541232686817449
aF8.2743188756923
aF7.939387239561128
aF7.207444995087846
aF7.546217583685861
aF7.765087388873209
aF8.047820295561133
aF8.592124866623152
aF8.981649636215378
aF9.15076139662016
aF8.532162729001879
aa(lp19
F8.786655861896653
aF8.11330272742302
aF9.106686114361125
aF9.814978087641045
aF10.276759790290157
aF9.858760185023675
aF7.292174886549772
aF6.276092219209706
aF5.994281067955727
aF8.036986862230211
aF8.971763715989931
aF8.782991484762436
aF7.553250403374289
aF7.09370236133468
aF7.590017358185581
aF7.463056337474083
aF7.227004672973763
aF7.577902844494707
aF7.917419156337641
aF8.087246411813867
aF8.364542108611232
aF8.715073141887824
aF9.156711928992548
aF8.698254235890925
aa(lp20
F8.116017789534352
aF7.623864824956369
aF7.84600219119575
aF8.707237859636393
aF8.81664923724632
aF8.09226769724869
aF7.009499957797823
aF5.925503980955589
aF5.632839248925934
aF6.265894880163559
aF7.066622535326231
aF7.1916531460964395
aF6.602988836746213
aF6.92701119050922
aF7.366093087937341
aF7.161932447362956
aF7.142461208585425
aF7.537749619257193
aF7.771884925336647
aF7.828582211946556
aF8.255859235270474
aF8.754004364934435
aF9.157176260023808
aF8.651408303189077
aa(lp21
F6.441935510299265
aF6.139757905643696
aF5.761653462535448
aF6.277812186102615
aF6.795667944517889
aF6.493155177211381
aF5.530849243884506
aF5.34338318348728
aF5.51068836661023
aF5.783789233201921
aF6.386838420817185
aF6.53102043426499
aF6.380314844407473
aF6.586652232246637
aF6.911836812009471
aF7.055535664496296
aF7.302200654854782
aF7.554567673862637
aF7.614977948583601
aF7.657207450136408
aF8.186340939582808
aF8.747910042693212
aF9.14946254973022
aF8.632328489372114
aa(lp22
F5.456616474085493
aF4.990930236249161
aF5.483138749724801
aF6.00130862204318
aF6.098491074057113
aF6.015440634329165
aF5.903584374408986
aF5.4550085023648025
aF5.180986599439441
aF5.378985725009502
aF6.077736628159527
aF6.434080372786957
aF6.422800828944707
aF6.563385625213545
aF6.958611141599916
aF7.0188494757092625
aF7.3121236739184265
aF7.691445799735482
aF7.628667499551384
aF7.66994752591124
aF8.106903375145254
aF8.682230730782846
aF9.134022712171715
aF8.600994409552586
aa(lp23
F4.166395310471084
aF5.067301950760619
aF5.013994513433519
aF5.469704804392439
aF5.704438494981012
aF5.312537981461923
aF5.32249969933691
aF5.104353230789161
aF5.0620069964484875
aF5.301865670402158
aF5.880729652452997
aF6.1784199440768255
aF6.032721567098644
aF6.4732536170365576
aF6.75855905049908
aF6.7813554277655745
aF6.918399139868585
aF7.048392978912761
aF7.309386194627288
aF7.4034944107608025
aF7.79659904866133
aF8.508996025776357
aF8.984914513856952
aF8.454122084200227
aa.