(lp0
(lp1
F8.331502873241794
aF7.813450266745114
aF7.434431697070832
aF7.400406517023795
aF7.126518514723088
aF6.676808925680367
aF7.447228891687731
aF7.4165497282085235
aF7.214439068840231
aF8.319943118283197
aF8.809895206433898
aF9.903303740000649
aF10.031201878601332
aF9.450551230995902
aF8.990789473290196
aF7.689192915503718
aF7.039661982673765
aF7.291469432808893
aF7.592678420485516
aF7.86074675372628
aF8.231239362422395
aF8.886437131440173
aF9.35779636188248
aF8.7972254743304
aa(lp2
F9.790451755228311
aF9.655442488452039
aF9.019586301623661
aF7.527899807171187
aF7.257145921898107
aF7.04376731126255
aF8.04381252815826
aF8.101120874091247
aF7.8450570386760825
aF8.40256542579955
aF9.088209012220766
aF9.619705993475716
aF9.674456079540889
aF9.427167032149777
aF9.0170906862121
aF8.151382309689815
aF7.139229996918879
aF7.38166498716832
aF7.583074694521615
aF7.767803595558428
aF8.420973382271669
aF8.887595344801655
aF9.276971127559928
aF8.80282313142119
aa(lp3
F10.472140062439404
aF10.50310603455517
aF9.972039602448424
aF8.303557583303638
aF8.307370228787125
aF8.061127689685964
aF9.181360696087054
aF9.22038554508742
aF8.702180522276041
aF8.94560786527217
aF10.06766577780593
aF10.38963980754899
aF9.553004509859363
aF8.60153403949028
aF8.835108560460977
aF8.218056864428302
aF7.218331423683359
aF7.423529296746397
aF7.773071794306318
aF8.010007371359935
aF8.519252166236454
aF8.858188504960202
aF9.17493538017701
aF8.706602982955454
aa(lp4
F10.66223715882023
aF10.779317742114623
aF10.386173753757415
aF8.83597897233488
aF8.628581744997653
aF8.534682677636404
aF9.472421548970194
aF9.418608625081944
aF9.406268219084334
aF9.666072289399297
aF10.379934874938934
aF10.472718586207588
aF9.164029234691794
aF8.653932364770137
aF9.359195943072473
aF8.883475474172242
aF7.158508115041151
aF7.463264017893775
aF7.755935267681931
aF8.011023603238325
aF8.503085283040662
aF8.912699195054406
aF9.219911943604544
aF8.69506424939181
aa(lp5
F10.610240155156736
aF10.77214602768346
aF10.40890890815964
aF8.869953270797138
aF8.663500123206182
aF8.741499126080562
aF9.360814950411465
aF9.22654111076594
aF9.380951988934548
aF9.587081275887385
aF10.155828902617413
aF10.311953156026664
aF9.213069425209294
aF8.019164775217723
aF9.210722990304063
aF8.995020816136329
aF7.085870266609571
aF7.301522587161134
aF7.703315884936085
aF7.945462341661795
aF8.624202671701873
aF8.943265275393681
aF9.175108136044894
aF8.718439332975217
aa(lp6
F10.471653953777215
aF10.514699170392216
aF10.142318884971505
aF9.02380298880395
aF8.637270262831002
aF9.105746655939663
aF9.519193571655547
aF9.073182561806428
aF9.056276720720101
aF9.300824574503029
aF10.14631442247507
aF10.28487026285343
aF9.037017900653833
aF7.8645415421287765
aF8.650748455226527
aF8.316554619468299
aF7.012020489997186
aF7.452888342691683
aF7.6477366696569415
aF7.9710383856921165
aF8.666464008596106
aF8.984086914911911
aF9.193140356896768
aF8.671952283075775
aa(lp7
F10.218149103348672
aF10.360467291901694
aF10.074218534928637
aF8.938352637543048
aF8.444550398071053
aF9.57549067381381
aF9.81592236455225
aF9.076546506015916
aF9.096343183264405
aF9.27733037817511
aF9.956029520409661
aF10.112413188668718
aF8.980837045415438
aF7.496334271679005
aF8.564932746336789
aF8.418312069881475
aF7.192765711275328
aF7.431354262195331
aF7.5975854273299825
aF7.755576864030644
aF8.33756093589477
aF8.830181936033265
aF9.243170197621215
aF8.767715199267482
aa(lp8
F9.586731271262002
aF10.11554680858751
aF9.958798134246377
aF8.518603301568158
aF8.069197111069139
aF9.244716140380346
aF9.471795470625054
aF8.66255085098244
aF8.852916907626543
aF9.06485457572558
aF10.0337742244057
aF10.215793519828589
aF9.061491765504734
aF7.765502155829795
aF8.381293602533354
aF8.074189565578962
aF6.8753737608435515
aF7.23667660802123
aF7.672480143909148
aF7.928642182194256
aF8.428048838822058
aF8.829418531384798
aF9.142107001487682
aF8.630744698386797
aa(lp9
F8.999672042882034
aF10.016422251045798
aF9.928837590984104
aF8.307075104897429
aF7.807087449787852
aF8.655735696626321
aF8.741464665570025
aF7.754036217983267
aF8.147405046267123
aF8.30017242770072
aF9.152760598821853
aF9.44978139639995
aF8.469598586477039
aF7.0408435514304415
aF7.751072749018553
aF7.669784509496463
aF7.227305415479006
aF7.45107261185266
aF7.681706119133639
aF7.96356571140167
aF8.32049631392932
aF8.625902724997582
aF9.112919177357176
aF8.692893303056385
aa(lp10
F5.921721053844994
aF8.219148782587713
aF8.26936150781218
aF6.246286557355618
aF5.416396531514204
aF6.726496846319325
aF6.973554667475688
aF6.338089555751987
aF6.070439782351195
aF6.145623259068191
aF6.9363580219439225
aF7.145535030935299
aF6.574090312231904
aF6.267113870423874
aF6.833619871001359
aF7.059728509957142
aF7.11306169128814
aF7.412650236432654
aF7.7762244730192585
aF8.003407843331079
aF8.306364955856512
aF8.757756933512423
aF9.199744664728772
aF8.698898582222672
aa(lp11
F5.8205471519514305
aF6.328913919233381
aF6.097072652914465
aF5.542482300838741
aF5.138387810494204
aF5.323740048127078
aF5.941327042933811
aF5.976471135602454
aF5.9020697120231995
aF5.833138739392511
aF5.971329880242276
aF6.361971286745709
aF6.492759888654385
aF6.687659099260704
aF6.764618148493196
aF7.017141748294322
aF7.221796186041378
aF7.24682567926611
aF7.496327861253746
aF7.76398746775795
aF8.04715864158654
aF8.659200477177286
aF9.157246138424766
aF8.620661576572383
aa(lp12
F5.423694216422127
aF5.412242548773546
aF4.6761293346816855
aF5.167439268387673
aF5.203746183177095
aF5.276766384053497
aF5.186226519233629
aF4.812586440950454
aF5.730420462269829
aF5.790045192881242
aF6.269169905388161
aF6.585341639436257
aF6.411211822005781
aF6.613901075315001
aF6.774560928929666
aF6.8415007419144445
aF6.961581423115823
aF7.2937188662803125
aF7.340621848531096
aF7.3390577066940645
aF7.972174617576768
aF8.375900103732562
aF9.048263890836248
aF8.725330812266607
aa.