(lp0
(lp1
F7.034615301529701
aF6.067444586921142
aF5.6960092410119945
aF5.911726395284794
aF5.926525347895746
aF6.199817352477318
aF6.744169728429703
aF6.829580257128852
aF7.017135621313283
aF7.3985000750468135
aF8.253797093928883
aF9.061079933121556
aF9.094870571370203
aF8.475958998838973
aF7.97600830256782
aF7.442302366985477
aF7.068145781990404
aF7.3962892349199
aF7.575633967742555
aF7.86173276361701
aF8.320574128813217
aF8.816786907927073
aF9.24564577163749
aF8.744761940349361
aa(lp2
F8.030742046041976
aF7.222988321526331
aF7.005363439165029
aF6.50920219247194
aF6.78640755642081
aF6.9921456749722575
aF7.614339898300833
aF7.712659348465998
aF7.684371822526968
aF7.918303275324055
aF8.820227816432071
aF9.724970221056921
aF9.939151582730169
aF9.641271078370895
aF9.33723160269085
aF8.723951727470364
aF7.296698179682204
aF7.501119275530815
aF7.716593403133643
aF7.942575377776354
aF8.307677948799869
aF8.785354190386665
aF9.188284524297215
aF8.652593843473117
aa(lp3
F9.803700836800818
aF8.930532374658016
aF8.09512999797003
aF7.056571580661513
aF6.608858963993074
aF6.846270083425874
aF8.149790112817081
aF8.293461296748887
aF7.888437870838757
aF8.03802778820614
aF8.955507312761345
aF9.364874188933268
aF9.053800811258672
aF8.864740872073058
aF8.745444713069988
aF8.000696977138157
aF7.2478234035568185
aF7.443413339206373
aF7.537676346897575
aF7.70267575706867
aF8.313157475461574
aF8.928596946020834
aF9.30707534003543
aF8.748001531293308
aa(lp4
F10.368773698627665
aF9.991691579552008
aF9.362528064862639
aF7.947478257368766
aF7.706712339425958
aF7.624384584805188
aF8.568823410757656
aF8.451001983205504
aF8.141214732936124
aF8.25772714555279
aF8.994604547396074
aF9.035846719770454
aF7.898721764415238
aF8.66882326578764
aF8.891115496588613
aF8.064624614331313
aF6.953983754441218
aF7.44012821923166
aF7.775849978805463
aF7.9395711887191025
aF8.38959026993341
aF8.801115667409322
aF9.210887264026395
aF8.735394976831362
aa(lp5
F10.4243042648141
aF10.30051553759176
aF9.66090801596976
aF7.957108186077102
aF7.880519222662409
aF7.8276649542555825
aF8.637802491023972
aF8.53040480547027
aF8.706076410097133
aF8.830661983584092
aF9.30741504786839
aF9.302470818368398
aF7.63716057926876
aF8.694675719929828
aF9.213115391006745
aF8.591819779053399
aF7.411227425527414
aF7.600894529563619
aF7.674544768503901
aF7.862431107654164
aF8.520615590019698
aF8.87713579614374
aF9.201531722994545
aF8.732585160979575
aa(lp6
F10.402249173895411
aF10.383588853340557
aF9.83390180873011
aF8.223939315232979
aF7.966661951854935
aF8.013488342266715
aF8.73994314483039
aF8.67899746926772
aF8.914632753490313
aF8.9759046242573
aF9.683925071627955
aF9.630585519650662
aF7.767402448983984
aF8.945265394294866
aF9.389665890777277
aF8.628632364608094
aF7.006509233178807
aF7.289541922716349
aF7.840574159596615
aF8.04602011114816
aF8.46734802257881
aF8.854967303162685
aF9.224042894246432
aF8.761308013099367
aa(lp7
F10.293435022261663
aF10.203992010392207
aF9.679789916276745
aF8.549383969543515
aF8.239123705200829
aF8.716960775144216
aF9.157215474618187
aF8.938417045812042
aF9.016937814240455
aF9.085238172315982
aF10.095923149950627
aF10.033926080624655
aF7.546116598993622
aF9.380390042321809
aF9.620279945088283
aF8.326042023496115
aF7.081537469588369
aF7.407809035967667
aF7.803515111653839
aF7.9488501114907795
aF8.33379570546597
aF8.837468005904856
aF9.256528742560953
aF8.753914788097457
aa(lp8
F9.997084109010533
aF10.036878466580973
aF9.618978988411616
aF8.262881728078172
aF7.572145231514875
aF8.572866175555896
aF9.13602069601969
aF8.767548752603254
aF8.945690588934513
aF9.094189523144793
aF9.756509946898554
aF9.704273247616873
aF7.581257903826754
aF8.526638660617417
aF8.7991179279787
aF7.810239394779903
aF6.785358493382091
aF7.394203763884997
aF7.7747578565685
aF7.965252072352071
aF8.461847590425277
aF8.894152461384541
aF9.19973812361017
aF8.649151470669596
aa(lp9
F9.346977651096374
aF9.65632061259996
aF9.387190670626802
aF7.669278746210746
aF7.398891914157146
aF7.874519785266877
aF8.241484909958888
aF7.955310845562021
aF8.010537140026601
aF8.196078271621992
aF8.78001570833893
aF8.711691245647883
aF7.094478845284145
aF7.820590967356022
aF8.131127461052426
aF7.487466533685672
aF7.162919799673441
aF7.386309854137802
aF7.849953458167478
aF8.094652101276395
aF8.294868885599145
aF8.720951635068435
aF9.142240930728109
aF8.630906248152035
aa(lp10
F8.226545705374594
aF9.13017038108071
aF9.068420286325427
aF6.975298170918116
aF6.3900831896131445
aF7.539733534582883
aF8.021351705313055
aF7.54517080527175
aF7.84876331604334
aF7.961748528069394
aF8.655041927391977
aF8.750712794405139
aF7.389777954773902
aF7.532921842789781
aF8.031229342583085
aF7.57852229305496
aF6.950715500817664
aF7.317074082507072
aF7.549814314334958
aF7.925703410259635
aF8.311901069088483
aF8.759725246090547
aF9.182726911024124
aF8.64298859595534
aa(lp11
F8.010104744171228
aF8.601640641421778
aF8.209563252184916
aF6.257215758228401
aF5.967634769358198
aF6.576672325199772
aF6.901277124993263
aF6.66808257012123
aF6.821976979839256
aF6.848517556738312
aF7.151443327452164
aF7.159138486147463
aF6.3950814551395245
aF7.042277681635833
aF7.1926305584957815
aF6.902006716991922
aF7.0516327487128025
aF7.463180417388582
aF7.734890416769114
aF7.874975830081036
aF8.243621410522682
aF8.806759896167828
aF9.2152268153556
aF8.653406284839422
aa(lp12
F7.026391243107653
aF7.949394648875969
aF7.846274174013781
aF5.821976210151897
aF5.327842507916791
aF6.2188547939012375
aF6.433916555311971
aF6.133587363104381
aF5.785898386614868
aF5.790864157554372
aF6.611224741708223
aF6.722700722237394
aF6.353057681902464
aF6.77497201986816
aF6.950465956835089
aF6.771513383428948
aF6.793177869420558
aF7.335475473859363
aF7.756237510306681
aF7.918536418446391
aF8.358835107594846
aF9.027734001586204
aF9.329602117613197
aF8.657481587376559
aa(lp13
F6.532033597155482
aF6.612006273853333
aF6.8656618797609665
aF6.669436577472596
aF4.901390001450669
aF5.0656905810080195
aF5.85208671339632
aF5.947841804530572
aF5.7149319139289725
aF5.821844110163034
aF5.725310062665581
aF5.889735849713423
aF5.9917558467544225
aF6.4901505447585395
aF6.782397215363756
aF7.079548207178145
aF7.228144735478694
aF7.332832839158839
aF7.786885557385716
aF8.067501430461238
aF8.384664428910638
aF8.746544131699027
aF9.25427674842139
aF8.828485479858655
aa(lp14
F5.378325553749589
aF5.252508757895185
aF5.2076081859082635
aF5.172443243509473
aF4.57324407259648
aF4.872377583771645
aF5.556399142173037
aF5.5430497795595235
aF5.144790843145098
aF5.404995543048674
aF5.748268959893644
aF6.094661417355674
aF6.411282511042776
aF6.56232575349032
aF6.872234876882923
aF7.044708341031991
aF7.153338719357174
aF7.3381424968966495
aF7.404521410884023
aF7.4968710517690775
aF7.882436030125839
aF8.576804506756448
aF9.216107283843087
aF8.77024791931706
aa.