(lp0
(lp1
F7.400302996962282
aF7.008174426410293
aF6.311069268153202
aF7.236084264299876
aF7.468950501528602
aF7.291391902875906
aF7.8216387001856
aF8.18473380617652
aF8.196195119642407
aF8.471625584445732
aF9.226854565376494
aF9.640402535976584
aF9.29527955256028
aF8.233191158166997
aF7.59642703965227
aF7.296451871500755
aF7.115399407045609
aF7.537233173915731
aF7.889139123090551
aF7.973025963783823
aF8.17021375049877
aF8.583139331998746
aF9.060810816127814
aF8.592678509554219
aa(lp2
F9.170561610051154
aF8.703797642319097
aF8.143558583277013
aF7.388801125278318
aF7.329630780037802
aF6.8987166522899095
aF7.631803613646186
aF8.112013067870585
aF8.002687098081193
aF8.294751203115654
aF8.859238002391981
aF9.529292115214954
aF9.568498088968346
aF9.102700446549802
aF9.077224926747796
aF8.605004154644572
aF7.279667829402656
aF7.5037679912971695
aF7.800818558904827
aF7.948277106549317
aF8.333454065410573
aF8.810637760497583
aF9.202471628896351
aF8.659819185201206
aa(lp3
F10.116297235048783
aF9.90479569761853
aF9.392157069441
aF8.126815615476751
aF7.770885284199711
aF7.550237663934029
aF8.891418097180935
aF8.953648477884032
aF8.378457030424029
aF8.690889962873552
aF9.710606587416526
aF9.9852110497052
aF9.222993042016265
aF8.44989221710905
aF8.61232677879623
aF8.160190250400102
aF7.400765948751222
aF7.571228609833303
aF7.720543944991771
aF7.856300905719973
aF8.49909137995421
aF8.949718561848224
aF9.352527250073553
aF8.893844166942664
aa(lp4
F10.19516538962834
aF10.407013663197805
aF10.213384323389382
aF8.80189582733663
aF8.467133371432196
aF8.385872643057766
aF9.158187703944362
aF9.097755799896209
aF9.016970075267404
aF9.309624460285754
aF10.297286412643464
aF10.361224952416796
aF8.996259892176962
aF8.23015383487177
aF8.881027247268163
aF8.575449980989536
aF7.207746064048155
aF7.417769890682618
aF7.6220660614575095
aF8.061001511741464
aF8.698294664527957
aF9.015130247480018
aF9.345046804986078
aF8.887848785282838
aa(lp5
F10.18407615136956
aF10.635930468634971
aF10.354549070001026
aF8.825197266383674
aF8.521088925067609
aF8.592494586561461
aF9.199726414166438
aF9.083370743805755
aF8.933506738527287
aF9.156624286035806
aF10.036226284890777
aF10.126713344704978
aF8.887807767336504
aF7.859349007290309
aF8.812207858157457
aF8.660575914526724
aF7.184650826130815
aF7.411694556415855
aF7.7129283547213126
aF8.041054458581232
aF8.552899636906002
aF8.958760857874921
aF9.152612946133802
aF8.528938570784392
aa(lp6
F10.272064836970017
aF10.534620773077656
aF10.159124508107267
aF8.772370614910892
aF8.332253070486477
aF8.212803200867672
aF9.130042464926682
aF9.141692384930026
aF8.938500184355258
aF9.066879000865443
aF9.823963788020803
aF9.947415190861015
aF8.866237798486331
aF7.777489119147347
aF8.61606499551574
aF8.41378376936945
aF6.9409825060264465
aF7.327393472743975
aF7.646615862959278
aF8.036313890126845
aF8.57994499089067
aF8.983979616360921
aF9.231435772295884
aF8.653997819732107
aa(lp7
F10.186220586845742
aF10.395191785072013
aF10.120547241138889
aF8.985774784805452
aF8.443364103290463
aF8.79445476588661
aF9.35574755667976
aF9.114182749292077
aF8.965335398804719
aF9.17455119218024
aF9.94559005052785
aF10.058208876841015
aF8.86176752309236
aF7.436309897117755
aF8.760810139164557
aF8.669927778454587
aF6.945278088489223
aF7.291620313962516
aF7.57571891181572
aF7.836736228654685
aF8.451277314175993
aF8.876950844721803
aF9.296970792765055
aF8.84321368786215
aa(lp8
F9.869422350610094
aF10.437752133809235
aF10.28984150414593
aF8.920724077996109
aF8.282274455975362
aF8.327019246713986
aF9.227815808495956
aF9.078796574520968
aF8.84230782444095
aF9.030073487514075
aF9.90640390469515
aF10.12679391262483
aF9.10742410008409
aF7.56520867599066
aF8.563009378113728
aF8.45560462906825
aF6.998365100908156
aF7.364612875099019
aF7.630365110164469
aF7.889160257872878
aF8.46323309503204
aF8.913850096915622
aF9.278244281083191
aF8.765245522941639
aa(lp9
F9.221859394758752
aF9.99539054038235
aF9.95226002488894
aF8.579789975504841
aF7.993978787098471
aF8.389392101886633
aF8.951156633932104
aF8.672068809498379
aF8.594657114568168
aF8.769592131141115
aF9.902557406974339
aF10.08650840018414
aF8.905852341239465
aF7.170757198130492
aF7.622501937096723
aF7.718390350833629
aF7.193248688462178
aF7.450982131848709
aF7.719013739167268
aF7.927559861524014
aF8.284110179856103
aF8.723863214159339
aF9.30171625617232
aF8.890264742196754
aa(lp10
F8.974122641582271
aF9.618063155048649
aF9.568143725548815
aF8.561600445609455
aF7.8200837649306845
aF8.273396498832595
aF8.454356375864794
aF7.826464549191595
aF7.8480361618499135
aF7.984889122556128
aF9.24936414077443
aF9.618305102958383
aF8.695014919189278
aF6.552014811472095
aF7.3250533365245865
aF7.3625150255134875
aF7.039269790488463
aF7.336288317807189
aF7.7016470237212635
aF7.9161895144295125
aF8.410268477061729
aF8.927181056309749
aF9.239132062668276
aF8.673369681966419
aa(lp11
F6.730283056153502
aF7.699462912953052
aF7.745951250997918
aF6.640430541147068
aF5.848981817850927
aF6.144030211569857
aF6.3973751728604675
aF5.840261737782057
aF5.745378558987032
aF6.162482410727446
aF6.643344749179354
aF6.839204703079748
aF6.6842332099249955
aF6.571012297588915
aF6.726514884914031
aF6.887155533788632
aF7.042030640840129
aF7.305961075473863
aF7.619315982172529
aF7.9973984422443145
aF8.427103493174215
aF8.836324824528846
aF9.206259630103839
aF8.678931344797803
aa(lp12
F7.144865513581025
aF7.299207576574297
aF6.979751299478867
aF6.5149864855360695
aF5.717246320000184
aF5.88783914450722
aF5.967115599876165
aF5.586652609731212
aF6.123125164925038
aF6.122064031094714
aF6.338405069206931
aF6.634438473507876
aF6.535180087063439
aF6.379137769653485
aF6.433063841327481
aF6.925504290447024
aF7.234617502905986
aF7.518224126420916
aF7.681083059280903
aF7.721288295276074
aF8.09889266065561
aF8.761612115638638
aF9.223442194783715
aF8.678156803065583
aa(lp13
F5.6152039756445085
aF5.504447962828584
aF5.748788431932999
aF5.862312608462259
aF4.749488983386125
aF5.599266519221428
aF5.701915101347766
aF5.295222569850587
aF5.535867805666612
aF5.41199662211665
aF5.4364142199211685
aF5.6679599598111166
aF6.041185989895553
aF6.428431006444438
aF6.647865037253291
aF6.87823617409278
aF7.057390415837251
aF7.045434524036922
aF7.114598700526757
aF7.446975146698441
aF7.771888141521944
aF8.283056277221073
aF9.04135263605087
aF8.672786386796703
aa.