(lp0
(lp1
F5.993945895422239
aF5.6499768014447
aF5.982661745041485
aF6.3492136449568655
aF6.567847032478994
aF6.693484895385781
aF7.4241655110344675
aF7.800886212691193
aF7.45121947646958
aF7.168798125477278
aF8.792115331329104
aF9.128173648019215
aF8.462073377172226
aF7.839493901774229
aF7.621869847439073
aF7.3097015417448485
aF7.110817844059609
aF7.307092105839956
aF7.571392336360167
aF7.789743231165617
aF8.225921042497806
aF8.779313352417136
aF9.20650681295486
aF8.680184669444792
aa(lp2
F8.695061288415632
aF8.520302589923654
aF7.870008939019771
aF8.140671347757142
aF8.012173858419002
aF8.093244600735623
aF8.329231114669598
aF8.318229430506126
aF8.365440674009516
aF8.542611425091213
aF9.548711291050207
aF9.9718044013992
aF9.651479148614875
aF9.14571220103414
aF9.229190544993909
aF8.820456398478667
aF7.199063839579372
aF7.3388085862915045
aF7.5506756020830315
aF7.882024278228041
aF8.368685767362606
aF8.810007043546861
aF9.211757100698966
aF8.70443909645143
aa(lp3
F8.69592411796
aF8.362409934546163
aF7.750618612493602
aF7.7443570728522335
aF7.67996651683636
aF7.988264441337729
aF7.791204796333226
aF7.07150591091065
aF6.961870083858704
aF8.129596348106112
aF8.45628253655677
aF9.120501104579827
aF9.40533189089017
aF9.606940930044487
aF9.51746805010271
aF8.384733172768414
aF7.310577167754413
aF7.474149593631467
aF7.551136490958667
aF7.727305327717501
aF8.282690689602534
aF8.805375472456934
aF9.27113666351651
aF8.785060134030449
aa(lp4
F7.98249558453861
aF7.585321927810734
aF7.57188857942304
aF7.880044948317184
aF8.169503038401926
aF8.171629509398784
aF7.747915340130931
aF7.046362787775576
aF6.989401200155884
aF8.613591538374234
aF8.981736090490939
aF9.541859219477747
aF9.61416450697825
aF9.359905408813747
aF9.523097339817415
aF8.866621358591182
aF7.140937655992726
aF7.272693082560647
aF7.636045740990207
aF7.90236941549186
aF8.109403900204622
aF8.82364564290654
aF9.396102379820869
aF8.865032421784347
aa(lp5
F9.060141079618779
aF8.483311329899031
aF7.808125360657492
aF8.534814663848323
aF8.579006420506548
aF7.785229022019691
aF7.093648105675821
aF6.298498508732656
aF6.859683186865552
aF7.3858311704451545
aF7.6854035777213126
aF9.228163707505583
aF9.455807268068288
aF9.423809128892772
aF9.45184054882706
aF8.54483397674897
aF7.286895807023036
aF7.347790481198512
aF7.637612053753562
aF7.927253802520571
aF8.356040910328375
aF8.88405727645511
aF9.294726551458533
aF8.7393963913438
aa(lp6
F7.045495759807655
aF7.1501115890954505
aF7.469505750909847
aF8.357444680861274
aF8.329657544409558
aF7.608589753553529
aF6.880606180895021
aF5.84307537662526
aF7.0382431513831305
aF7.835317000743691
aF7.776579337273451
aF8.813803201545742
aF9.171599278082072
aF9.667913597197922
aF10.041032462928209
aF9.423130961389536
aF7.6864016287368955
aF7.42499907672313
aF7.608308905840716
aF7.756378027564611
aF8.165448592016618
aF8.78062059967527
aF9.171026483442295
aF8.571748177358367
aa(lp7
F8.927909455040325
aF8.033658869447574
aF7.48900135026743
aF7.776063888062543
aF7.797017884094762
aF7.241612987392149
aF6.216082288292758
aF5.779768751858586
aF6.181624689228812
aF7.515488067093543
aF7.58359129211593
aF8.857817857364973
aF9.22813295857679
aF9.1477561407683
aF9.482380878605607
aF9.02761760654717
aF7.347205988114011
aF7.338771250224551
aF7.6452185403774875
aF7.84030953132975
aF8.138126061513962
aF8.810890036913246
aF9.23333786625662
aF8.61566145808336
aa(lp8
F8.492428644492499
aF7.87009017513634
aF7.670291960897067
aF8.027408316804912
aF7.855671694545294
aF7.146858125796008
aF6.503444862753657
aF5.785623945873969
aF5.687043880012669
aF7.55571096607419
aF7.766726277990262
aF8.655183743060263
aF8.923315398379035
aF9.275923542377166
aF9.498558107198656
aF8.798057568135887
aF7.680582242438109
aF7.399241612548201
aF7.677742108612977
aF7.950100258960957
aF8.49316629008563
aF8.882113648157206
aF9.311383846449178
aF8.855524196781136
aa(lp9
F9.481241038468461
aF9.201195819768843
aF9.523668958392593
aF9.411367448558234
aF8.529706311969084
aF7.267426645238034
aF6.21800632267075
aF5.310830953898438
aF5.740643585014032
aF7.5118038180841475
aF7.680804679874882
aF9.191668221740098
aF9.329182911804452
aF9.471479158640133
aF9.70330568246366
aF8.870854592501804
aF7.775267111226112
aF7.447741605222342
aF7.623476937593165
aF7.886562488648635
aF8.286093984676443
aF8.771934280461318
aF9.202508918405615
aF8.660008526148593
aa(lp10
F10.270825583475345
aF10.303919484055374
aF10.712152190140225
aF10.811028774831913
aF10.274161154561584
aF8.676227945851304
aF7.007403883876459
aF5.736463545750579
aF6.014834584859349
aF8.673711386083308
aF9.058268384328795
aF9.644793386649795
aF9.551200139601624
aF9.014498562086892
aF9.357126084662832
aF8.674040885801132
aF7.463438458884036
aF7.418462083137237
aF7.603976363566049
aF7.978802855867922
aF8.650814050187275
aF9.06824292961148
aF9.29636283517516
aF8.740047712176896
aa(lp11
F10.331595892628195
aF10.077540953657785
aF10.435812369165598
aF10.544844960114666
aF10.018638950361654
aF8.699856971572064
aF7.0848235389449465
aF6.196562906970413
aF6.182511291670953
aF8.339379488751804
aF8.884132725912444
aF9.439350735716324
aF9.245073894816976
aF8.60549974549863
aF9.139864439274113
aF8.655143594937725
aF7.327821766861987
aF7.263040527353245
aF7.535650310334963
aF7.968062132103113
aF8.689740408291994
aF9.084390726807822
aF9.349762650759171
aF8.830408832002142
aa(lp12
F10.411556935381824
aF10.281908417805855
aF10.788224207860024
aF11.003672561289045
aF10.528434354075657
aF9.100416360350875
aF7.397645029032058
aF6.075137046848533
aF6.2246311678978214
aF9.12256864282467
aF9.954980309842208
aF10.320381261871743
aF9.879057542868887
aF9.03366089589156
aF9.614489890973639
aF9.05724145445979
aF7.165381051601987
aF7.3462031137259665
aF7.603065236235549
aF8.021932432998064
aF8.656537712793673
aF8.961041904472715
aF9.275280533560872
aF8.809942021766624
aa(lp13
F10.389519467283256
aF10.138022305196833
aF10.743493411422552
aF10.973168450494889
aF10.55348525108954
aF9.469603934038606
aF7.681023055034574
aF6.435404865556086
aF6.239202349604982
aF9.123614545489962
aF9.915213046517808
aF10.286404782197293
aF9.856122910815639
aF8.808730155110398
aF9.629968778064942
aF9.241498338546235
aF7.268501056372892
aF7.44749745587219
aF7.636814030269984
aF8.121415484789576
aF8.787295771595137
aF8.954034255496609
aF9.12916090956449
aF8.659618627660885
aa(lp14
F10.344095398648898
aF10.099213335223945
aF10.771396108474676
aF11.068968304390353
aF10.803679389089965
aF9.958265299965653
aF8.077118417665172
aF6.369795298669078
aF6.2846626764538716
aF9.32495076920853
aF10.219920666416312
aF10.49990797849638
aF9.951660573799513
aF8.847095681329536
aF9.330978695454702
aF8.76027237806387
aF7.400115429301978
aF7.411393463205997
aF7.6560996144610165
aF8.09151852755094
aF8.667780619993215
aF8.993339712849693
aF9.246496276900553
aF8.7303232601131
aa(lp15
F10.291948082605968
aF9.982238937849274
aF10.696862955858382
aF11.056437175359807
aF10.967510119888175
aF10.336798071979063
aF8.279567902855257
aF6.486211181397912
aF6.891051880535342
aF9.41456289661219
aF10.366039926260806
aF10.697831435564442
aF10.122207185141198
aF8.650760008676231
aF9.463488339541964
aF9.058590934657602
aF7.260989896085574
aF7.568772003930102
aF7.637670069155611
aF8.020028219976048
aF8.679874078427053
aF8.988547929725945
aF9.223431596851066
aF8.69379968109103
aa(lp16
F10.150770919148346
aF9.794018850157665
aF10.65578222641905
aF11.096123774117078
aF11.142095844030543
aF10.609813141843063
aF8.463108917451438
aF7.170597694229584
aF7.398197021513581
aF9.539384181651876
aF10.51183862140463
aF10.848999641154135
aF10.252462504748378
aF8.994346706798252
aF9.527260073962433
aF8.868201869328624
aF7.201668639234299
aF7.49075919691739
aF7.687881773461982
aF8.046649446433152
aF8.74235594915331
aF9.012540089168047
aF9.172895701875039
aF8.643781015559197
aa(lp17
F9.93966209467714
aF9.4582180633199
aF10.518977385186155
aF10.920142219936603
aF10.992876855162818
aF10.620312790576294
aF8.796080054925326
aF7.332960068454241
aF7.021256450073845
aF9.747866491381014
aF10.59175171519304
aF10.705340827299635
aF10.006317528604947
aF8.592208401423788
aF9.004408907193067
aF8.345094805936842
aF7.023866562070252
aF7.34319787312021
aF7.703312907799588
aF8.056319543168101
aF8.747071320649894
aF9.014168952369127
aF9.20104704784165
aF8.706127221488803
aa(lp18
F9.575660943397446
aF9.135999953524102
aF10.21149773707334
aF10.76201938650587
aF10.930224698296088
aF10.511814555180985
aF8.660195877477248
aF6.963172786214866
aF6.672989836459256
aF8.985840075785825
aF9.74162165676904
aF9.903037434065201
aF9.327127489488834
aF8.172879970945548
aF8.662098043888191
aF8.103645806458795
aF6.9670770544350535
aF7.339782143565233
aF7.651807564572717
aF8.120930870346307
aF8.654020821793909
aF8.9283341822491
aF9.357232599926778
aF8.936547177739229
aa(lp19
F8.956023659728425
aF8.402426671265433
aF9.160163986309776
aF9.601060601779913
aF9.640500143060473
aF9.160981591535307
aF7.313923732790657
aF6.043585497831065
aF5.755301581711494
aF7.499541398997114
aF8.131114135193414
aF8.448204778879091
aF8.111502053685424
aF7.826067671721746
aF8.140832256535708
aF7.4834186919440615
aF7.024877395282922
aF7.42717052512804
aF7.798696384751469
aF8.107374364709585
aF8.363898857806445
aF8.6976157934503
aF9.217164768683197
aF8.7787823846313
aa(lp20
F8.179507187812428
aF7.9808131331682555
aF7.251668957834681
aF7.708811780191557
aF8.667332753971989
aF8.480271707686324
aF6.708556941689362
aF5.8016732462895275
aF5.6342308695475225
aF6.19361332042836
aF6.850935475575574
aF7.381812765842408
aF7.2288222171036844
aF6.857067172802374
aF7.069662266738928
aF6.952344579511659
aF7.042909321297391
aF7.318874166864242
aF7.481921452853094
aF7.944279012653549
aF8.385516763196703
aF8.865789153532415
aF9.29355914924568
aF8.749109188200523
aa(lp21
F5.279254157572795
aF5.438739017408879
aF5.583681471708922
aF5.752074314837632
aF5.772624879979055
aF6.112499828770609
aF5.885651440032573
aF5.106201228761115
aF5.2976492023342985
aF5.700503878336896
aF5.906491100387869
aF6.1727666373437
aF6.441632394961685
aF6.867417320336573
aF7.142039768371423
aF7.010719754716966
aF7.131958399102462
aF7.292214326838058
aF7.428868820071094
aF7.8735828678881115
aF8.22807742328765
aF8.781469714405116
aF9.303455699089632
aF8.790552144243573
aa.