(lp0
(lp1
F7.300048998255726
aF6.863468560690465
aF6.26995285591633
aF6.62895293618016
aF6.859817033258864
aF6.7860771928615495
aF7.442182745161501
aF7.682544623677611
aF7.227811240967298
aF8.266688044977606
aF9.427715823779334
aF9.559848440062284
aF9.044203008475781
aF8.535559808758341
aF8.155094270046853
aF7.698228796254521
aF7.05292694284982
aF7.51263718580469
aF7.604378033152047
aF7.8809416261724
aF8.321509800963957
aF8.799704808893063
aF9.333744305410285
aF8.859493232728358
aa(lp2
F8.822901812055575
aF8.566140592670257
aF7.9402662298092705
aF7.282378048183974
aF7.234302556490673
aF6.837210458039593
aF8.194045270846345
aF8.441160792349468
aF8.068300251143349
aF8.644396125608354
aF9.084252260167538
aF9.585774215359667
aF9.516465954937088
aF9.48565036181632
aF9.653470344374936
aF8.88177974002559
aF7.308210043392314
aF7.394256012116699
aF7.485693673298767
aF7.939416720372692
aF8.402363089146219
aF8.913561403034771
aF9.315034358152351
aF8.720195262397487
aa(lp3
F9.989071232366465
aF9.939891368892592
aF9.279754535861645
aF7.881335792480041
aF7.559374658203218
aF7.17256374847574
aF8.053901416572073
aF8.14688837474451
aF7.681765666245068
aF8.534079082103101
aF9.427341189093823
aF9.774369995869685
aF9.249739743358539
aF8.22616601492166
aF8.417233896709043
aF8.014617353349811
aF7.202730767206586
aF7.452738733902762
aF7.719876722521755
aF7.824016474357215
aF8.353758868943393
aF8.823041464584175
aF9.248334151827518
aF8.775291451775379
aa(lp4
F10.201961722797925
aF10.397993292242074
aF9.934708718466448
aF8.254003588383933
aF8.297000403833557
aF8.041078038399213
aF8.884966820016418
aF8.808491673793895
aF8.175116153762975
aF8.702516785134485
aF9.860885517421211
aF10.064467679245608
aF9.055947633666827
aF8.174472644729512
aF8.550184346182986
aF7.98694732078783
aF7.139527933538686
aF7.382425135414486
aF7.548250989421585
aF7.802416098649027
aF8.456772372484462
aF8.876524840064649
aF9.29373806576632
aF8.850599742362677
aa(lp5
F10.284208855967144
aF10.56398771711076
aF10.229404168990408
aF8.492254535637853
aF8.088350473451356
aF8.32343443980751
aF8.99992155685848
aF8.854918408158005
aF8.529137733360615
aF8.78083355739285
aF9.811097258420117
aF9.93001114386892
aF8.697945344189524
aF7.64143603924317
aF8.846322516266
aF8.682760153934856
aF6.957483132113135
aF7.312451773023256
aF7.479365904594835
aF7.773410409177461
aF8.432071293841084
aF8.882419495495014
aF9.193491813293122
aF8.661633919303153
aa(lp6
F10.262355738458906
aF10.50625465252659
aF10.185725426882529
aF8.637697748929842
aF8.120333211579887
aF8.1164787806317
aF8.974454507379297
aF8.833521839187549
aF8.126480765766921
aF8.621621605328977
aF9.86540764676059
aF9.996566191571286
aF8.821758050596348
aF7.661890138820398
aF8.704283070073208
aF8.54900912825832
aF6.944411630386684
aF7.466869766814783
aF7.875690571912002
aF8.101787027628724
aF8.524290770631392
aF8.926733917835033
aF9.25933106965168
aF8.732093199553972
aa(lp7
F10.15093951738684
aF10.366234996865735
aF10.060860969457343
aF8.8786389629573
aF8.506764375661028
aF8.79392949985873
aF9.190223531265863
aF8.867311000397672
aF8.686402421354734
aF8.990709540813155
aF10.135074028944077
aF10.295927325341646
aF9.129977890571618
aF7.87483732256452
aF8.6645563840536
aF8.425088361349228
aF6.917885341819523
aF7.343460121486601
aF7.638046512000606
aF7.852069624071851
aF8.40605325191907
aF8.919643767893009
aF9.370883055244487
aF8.89778287285217
aa(lp8
F9.844102753866569
aF10.326736965118512
aF10.147204292738142
aF8.736843627654753
aF8.172917567676144
aF8.50505299152792
aF9.141927279738276
aF8.8841577247303
aF8.670942299975962
aF8.974902099786888
aF10.01814379152207
aF10.16963107272435
aF8.97558719786265
aF7.351825136034933
aF8.017779654358092
aF7.87601275876394
aF7.057041338284237
aF7.488374743934698
aF7.790607435146015
aF8.062826482943827
aF8.466435735828659
aF8.823745854203576
aF9.213649598423316
aF8.725483596843036
aa(lp9
F9.168876878845301
aF9.948491960313904
aF9.91790210782944
aF8.52724328710338
aF7.851131949574661
aF8.407139886040103
aF8.725067345879394
aF8.167015604789999
aF8.160630187397174
aF8.364597607677137
aF9.53769838224468
aF9.731564250362533
aF8.51394504552596
aF6.90490670916236
aF7.808109552541505
aF7.878145670668172
aF7.215201325666735
aF7.544742242304333
aF7.713739930798665
aF7.870218212521577
aF8.464001998559533
aF8.872718882816192
aF9.193693965926125
aF8.671795242388068
aa(lp10
F8.529508668941531
aF8.967902745490052
aF8.78845688148305
aF7.419511260734912
aF7.0089276835872685
aF7.417367033614908
aF7.642341567049238
aF7.170390987452557
aF7.260832333907105
aF7.5228694076356835
aF8.310544486628112
aF8.501427972301427
aF7.570765959346901
aF6.501374627148807
aF7.014334499539912
aF7.141741665402482
aF7.030233372467416
aF7.297072372545589
aF7.7731068795412845
aF7.988939533883347
aF8.220889333158992
aF8.787346867994101
aF9.32316369474778
aF8.847709827110855
aa(lp11
F7.324148697544684
aF8.732641377836968
aF8.755350750785635
aF6.850537628376141
aF6.316672057216961
aF7.291807791004805
aF7.589984907139775
aF7.015517833316573
aF6.720844508254466
aF6.913722275090179
aF8.165036265716072
aF8.40212428911805
aF7.463795336066821
aF6.621658715824626
aF7.081502187879775
aF7.131088192464419
aF7.094094154007257
aF7.532167629150305
aF7.778417364063474
aF7.9541450790757775
aF8.24593456358409
aF8.654857985604831
aF9.130469261539398
aF8.64876591107697
aa(lp12
F5.817316170631011
aF6.784306329081648
aF6.764613023141525
aF5.747177035170756
aF5.370877771155883
aF5.728480530715962
aF5.799626245550153
aF5.735968709853917
aF5.899481615026723
aF5.814024587684519
aF6.144401498879571
aF6.662809776750864
aF6.72523914265768
aF6.624729750699883
aF6.967561218932948
aF7.120015541631696
aF7.190576393841736
aF7.43241540950701
aF7.697115973622577
aF7.864043605359994
aF8.108460985110385
aF8.632001857606998
aF9.16398720094145
aF8.688195597310605
aa(lp13
F5.677016141276146
aF5.896279797290414
aF5.471218746631968
aF5.206380051921074
aF4.7552799531828525
aF5.370871710705111
aF5.7982441315343385
aF5.927286618696765
aF5.958126602894067
aF6.00387776565056
aF6.150574312326717
aF6.323892398174871
aF6.538287628203723
aF6.626537085429152
aF6.831548866430814
aF7.100249612183126
aF7.2563863088077865
aF7.285592842337568
aF7.608587202689278
aF7.8469080507353
aF7.954875855522846
aF8.511331438435748
aF9.148938657118947
aF8.702737315018373
aa.