(lp0
(lp1
F7.147843600975591
aF7.207012914811356
aF7.195638117135249
aF6.689087587337749
aF6.3191111909628015
aF6.246048656529435
aF5.9019424363066655
aF6.215900741580199
aF6.8459095155964205
aF7.061444031577549
aF7.074702946369053
aF7.534541613466363
aF7.871849014702509
aF7.998653496581966
aF8.069221663095929
aF8.112133903902583
aF8.186508325329587
aF8.162612543660796
aF8.134116521721127
aF8.575096903087532
aF8.892971610468004
aF9.035181386776554
aF9.29547991118806
aF8.743626478024504
aa(lp2
F6.795917771347752
aF7.272547995820325
aF7.2238723031417535
aF6.814125361951447
aF7.139556954824555
aF6.962302361853403
aF6.536235299393211
aF6.811387956563189
aF7.662597474741335
aF7.818636488030383
aF7.786448044059004
aF8.35745368196616
aF8.508184373808025
aF9.272413432602043
aF9.450819469825712
aF8.983262783021608
aF9.097226438784904
aF9.077510376820214
aF8.672117455692248
aF8.53304427799368
aF8.919228758781589
aF9.095293626224672
aF9.274841601626033
aF8.774676643917251
aa(lp3
F7.416477292528801
aF7.651151986927268
aF7.834361278099223
aF7.745624575029662
aF7.670521534764506
aF7.392749432114392
aF7.271173095655103
aF7.610165998565212
aF8.351502251974729
aF8.521027672281871
aF8.406833478365549
aF9.480475776388632
aF10.129359367718838
aF10.205158343400344
aF10.660271143194768
aF10.814069441454318
aF10.34244377545439
aF9.832961530218556
aF9.667510683788851
aF10.007354869923123
aF10.038970112949318
aF9.851737287084946
aF9.749141506389549
aF8.896235514950158
aa(lp4
F7.344342128132425
aF7.896959031356739
aF8.172203268603518
aF8.168773265165562
aF7.973538893147571
aF7.32745035581752
aF6.37406935209592
aF6.9418019939994835
aF7.593172478465799
aF7.3938615350267325
aF7.004888508630286
aF7.22810220109826
aF7.776543552397476
aF8.259971326365237
aF8.318372944113232
aF8.269711617414359
aF8.183695204353205
aF8.158871993961636
aF8.293163414187465
aF8.425446201791932
aF8.718882743855493
aF9.213146213231521
aF9.549368840805116
aF8.951191172246947
aa(lp5
F7.886942327487804
aF7.831881623511275
aF8.32414570957626
aF8.491499520191509
aF8.307101396017798
aF7.611581842583006
aF6.501766981448642
aF6.474220316707569
aF7.189139241143637
aF7.229886252653841
aF7.318839742609595
aF7.468102883676684
aF7.314698610362582
aF7.35418936822137
aF7.41168561937909
aF7.9826307931923335
aF8.099435013748762
aF7.906299432391106
aF7.953757613849158
aF8.336425748721995
aF8.84710906561023
aF9.207035425216299
aF9.377408360181212
aF8.723068622152509
aa(lp6
F7.83742452633973
aF7.854270431757442
aF8.268146864846411
aF8.55463620228908
aF8.345645363739013
aF7.530677341410451
aF6.214675295471567
aF6.299985893388677
aF7.250575138515565
aF7.308021331770135
aF7.0855807528629935
aF7.336404867795352
aF7.431538026730896
aF7.818090229066771
aF7.887827836520079
aF8.010409720614245
aF7.955626258299937
aF7.989571124093713
aF8.272795975785387
aF8.467272230050776
aF8.782830485885757
aF9.035533698119712
aF9.281447623205992
aF8.712767532344818
aa(lp7
F8.199855747754794
aF7.837862868626177
aF8.03119761494254
aF8.416940062263235
aF8.37469558113836
aF7.650435251260425
aF6.377766096417831
aF6.386035153198204
aF7.254475609420204
aF7.365825725993265
aF7.20631734406973
aF7.308632915197904
aF7.168252758330288
aF7.632764217929136
aF7.987589374706307
aF8.244885367549209
aF8.214328087202293
aF8.307430209630418
aF8.396439287927327
aF8.553815245821491
aF8.847285563595571
aF9.132835865058125
aF9.350859303988685
aF8.682426238305723
aa(lp8
F8.323962110404176
aF7.8887282623383275
aF7.778496464993309
aF8.327944796851241
aF8.390304024064237
aF7.706420415582989
aF6.544873291837276
aF6.471385439291503
aF7.411590699889865
aF7.554295177362729
aF7.346826505165727
aF7.4627098641771505
aF7.950591181067789
aF8.64156726974121
aF8.84278364276914
aF8.581828289748852
aF8.141295978146442
aF8.090113501360985
aF8.157540769772417
aF8.32660581422518
aF8.836365739579058
aF9.090413074227154
aF9.26407776877662
aF8.715047940605098
aa(lp9
F8.35570422156453
aF8.174084656076973
aF8.042129203209209
aF8.422287138514754
aF8.479094020556463
aF7.799953873529763
aF6.536981704820585
aF6.728920010111036
aF7.521021336734519
aF7.744583547366915
aF7.612082157429456
aF7.751260065273131
aF8.009332023973238
aF8.71690880098719
aF9.208326761701105
aF9.118531755036454
aF8.829564098972952
aF8.730075804494025
aF8.500058129582525
aF8.58660512424118
aF8.859444440341075
aF9.071533539753462
aF9.292118015341
aF8.679692635935593
aa(lp10
F8.479668953274034
aF8.17395813071067
aF8.354738902515503
aF8.677418490822685
aF8.584935337660719
aF8.044383113739695
aF7.393681427502349
aF6.797034109354058
aF7.645778624512839
aF8.09983470706106
aF8.015637479765317
aF8.072754788063435
aF8.533816600003494
aF8.93834827935662
aF9.15047292169899
aF9.186912909457234
aF9.054957589420964
aF8.781107455777615
aF8.501536447397894
aF8.569963191879433
aF8.76468730561336
aF9.226188144502128
aF9.451026162247707
aF8.719111138485706
aa(lp11
F8.493639288477565
aF9.075915950800704
aF9.079026854240489
aF8.719342255652677
aF8.65563086392255
aF8.362206556367711
aF7.820689349159174
aF6.971394802196189
aF7.748949612474593
aF7.944586695673071
aF8.170961432661928
aF8.143270691915884
aF7.721688824106198
aF8.428418335829805
aF8.570110521911584
aF8.49898234887469
aF8.563676777402033
aF8.601630588763003
aF8.547384627919833
aF8.560560545005064
aF8.798700433587575
aF9.07065589417817
aF9.378680069120751
aF8.805706353050526
aa(lp12
F8.783077978944409
aF9.12854584062173
aF9.17559007712867
aF8.868356639956577
aF8.599851799998417
aF8.536378335038487
aF8.290547827930745
aF7.423786789413516
aF8.061329740502499
aF8.33241214668656
aF8.108893638625375
aF7.848060269674963
aF7.5495124554380775
aF8.131310592827822
aF8.553816257414514
aF8.534013497084187
aF8.415687327635608
aF8.480412915963255
aF8.49010390102941
aF8.657006992019722
aF8.953417835990551
aF9.145847986640955
aF9.244194772924237
aF8.590595643854616
aa(lp13
F8.78021876302131
aF8.872514996924572
aF9.22135919337084
aF8.978193882462309
aF7.990159149642288
aF8.033585975318012
aF7.991139008023689
aF7.3900379013762985
aF7.976730775684322
aF8.166616000023263
aF8.454494586529831
aF8.434769436967162
aF7.864817581147405
aF7.810178975511951
aF7.968466192462332
aF8.278719685641796
aF8.343609719456676
aF8.387213817020537
aF8.34793946715739
aF8.455086325120545
aF8.809022000908802
aF9.084960782453738
aF9.224874254721868
aF8.585685799947681
aa(lp14
F8.575334700809432
aF8.747031176917258
aF9.336526213649492
aF9.038107297557723
aF7.07016021566912
aF7.340002862607056
aF7.412888256540104
aF7.144721490433372
aF8.06366482628545
aF8.60753619933138
aF8.523514615502824
aF8.021094300629333
aF7.712065807708786
aF7.882085739094554
aF8.166029416748252
aF8.358109124238311
aF8.218828828973384
aF8.198360956759666
aF8.37058060070071
aF8.525215192216058
aF8.777828545443368
aF9.133317050621537
aF9.387551149132486
aF8.781223148267872
aa(lp15
F8.756594602528171
aF9.14978740743548
aF9.309514032340156
aF8.614525673152633
aF7.145986487412124
aF7.134449922129857
aF7.387885031157944
aF6.934315824657016
aF8.344290565912967
aF8.654308756759841
aF8.291465601446518
aF8.03974993394077
aF7.684266214188436
aF7.763492408558148
aF7.848269667989689
aF8.222831721851366
aF8.365899950020221
aF8.282224638764594
aF8.17377114145934
aF8.550126981690799
aF8.864807083375792
aF9.084343096068501
aF9.414274896254046
aF8.850760270785933
aa(lp16
F8.609169408082836
aF8.862793814606066
aF8.964000954546236
aF8.370954962535388
aF7.057347598025103
aF7.003078252806889
aF7.375179342893217
aF7.293372020974787
aF8.158943051011343
aF8.494291893829427
aF8.28837950357034
aF8.11941413599815
aF7.981189808583142
aF8.213937254450984
aF8.13967722020148
aF8.17745535582099
aF8.259903538589349
aF8.349148791962959
aF8.405390057733413
aF8.593123418550459
aF8.755139417218775
aF8.989820907358064
aF9.333604092663482
aF8.73468322880516
aa(lp17
F8.50184885927719
aF8.936630485339794
aF9.175732852667062
aF8.551130292018964
aF7.245795801907196
aF7.351521957891199
aF7.597146557952176
aF7.304581709314174
aF7.755002719955937
aF8.336364474350589
aF8.402936484807837
aF8.026062904825483
aF7.497000942588648
aF7.44206486963761
aF7.5112367599216
aF7.901253325700961
aF8.008875158418695
aF8.143303046508395
aF8.430423541618966
aF8.524529415860359
aF8.824465251404222
aF9.29062984311238
aF9.53463184005573
aF8.901459533052176
aa(lp18
F8.797582533800236
aF9.212333757302211
aF9.141918508884405
aF8.202900700772751
aF7.524592146090683
aF7.2168542725109415
aF7.369292181867692
aF7.358506611333745
aF7.390352480457101
aF7.674149436922474
aF7.804794414365711
aF7.604896535714673
aF7.1555390431127845
aF7.345696011100322
aF7.667914324506518
aF7.989830189377305
aF8.031173512283388
aF8.118781300776627
aF8.323283730890545
aF8.456367603804399
aF8.75107196459474
aF9.12237022042966
aF9.380472050336753
aF8.777959515094356
aa(lp19
F8.45860497881055
aF8.871626049727325
aF8.494007760080352
aF7.595320397044331
aF7.426534467274366
aF7.101346925384693
aF8.100433996046732
aF8.401495422883897
aF8.362188305012182
aF8.352149799680328
aF8.034880714720133
aF7.930299297196351
aF9.22184183895592
aF10.144670178282693
aF10.31184992239414
aF9.851386629177147
aF9.266653073474465
aF9.239352580654819
aF9.035469280564259
aF8.767068552116768
aF8.871357046579748
aF9.011509060909704
aF9.219835230292652
aF8.671295366135462
aa(lp20
F8.62142104885149
aF8.254856440423861
aF7.856816706123881
aF7.773551270170322
aF7.055175317053684
aF6.573968295453222
aF8.176924355454926
aF8.244524606911853
aF7.274079071421776
aF7.630622058282329
aF7.817748379258374
aF7.66302634962958
aF7.899758830523592
aF8.252008519233542
aF8.457502666129576
aF8.512965145103871
aF8.157709735131395
aF8.099611590955089
aF8.375076802521559
aF8.525713844637025
aF8.790600347656635
aF8.991580806298636
aF9.350827643638187
aF8.888312614304024
aa(lp21
F8.341831516253082
aF7.606275020336248
aF7.636131787281322
aF7.653025227549996
aF7.000933723769892
aF6.346817619397252
aF7.21042366889063
aF7.441035422631175
aF7.016825777751175
aF7.278846718462055
aF7.762350948375839
aF7.662746081787955
aF7.3308110541537745
aF7.40370236584239
aF7.394059656156436
aF7.944972146529125
aF8.148201251237326
aF8.003401216058267
aF8.183082344856889
aF8.495016167523952
aF8.817880856681567
aF9.177479820016252
aF9.424491505091083
aF8.800225930037524
aa(lp22
F8.015413933665993
aF8.240790152872174
aF7.668330364743522
aF7.177674130136332
aF6.5831579090962276
aF6.096984441199786
aF6.596896620452179
aF7.287391116555719
aF7.394404422019049
aF7.471526189355602
aF7.733046570429989
aF7.4815753347744005
aF7.100152569618948
aF7.292353624951568
aF7.42621166661359
aF7.870790509567639
aF8.106915337998494
aF8.06162962678428
aF8.149916397270061
aF8.391843719680661
aF8.924591643000873
aF9.170413423941552
aF9.387259493282041
aF8.900272198627572
aa(lp23
F8.43653482881111
aF8.17496602216717
aF7.614138169231105
aF7.016091602500475
aF6.104136720896607
aF6.036495577260618
aF6.521838145286337
aF6.9676536163438545
aF7.149246494167956
aF7.209462435595774
aF7.51536487395233
aF7.504326084091477
aF7.223758690850671
aF7.470374583179868
aF7.547056789839761
aF7.891373090978213
aF8.073199970795887
aF8.26052632116869
aF8.449463291620532
aF8.674347492624408
aF8.855156969316711
aF9.11343632399704
aF9.440141446691673
aF8.839882493465707
aa(lp24
F8.251734563671324
aF7.662892208763294
aF7.246822318759936
aF6.965421858452052
aF6.259630445385487
aF5.804353310767732
aF6.008996098438254
aF6.224937544578531
aF7.018237751406232
aF7.296919313787127
aF7.419259962428187
aF7.454694035604047
aF7.337214107702023
aF7.330131451184633
aF7.513654262888044
aF8.033945303588528
aF8.106772682270668
aF7.9216653776277175
aF8.1999001437776
aF8.607965948950937
aF8.769615774770575
aF9.195307364192784
aF9.519608184433238
aF8.855289927848743
aa(lp25
F8.204559220838131
aF8.173944103986598
aF7.383357407815768
aF6.781394449017343
aF6.112526683115337
aF6.188602413837081
aF6.441207662692044
aF6.77516837946265
aF6.936839669136502
aF7.195948864202465
aF7.271508868816307
aF7.315765752148936
aF7.482946342999353
aF7.458417372704221
aF7.808211682791402
aF8.064850839411491
aF8.005433349867271
aF8.037181108916569
aF8.37894540691934
aF8.583316931500383
aF8.730149946137814
aF9.104475012384517
aF9.270922359257746
aF8.54325930643269
aa(lp26
F8.3984280943339
aF8.439987794516966
aF8.203129666930533
aF7.332043564573172
aF6.060410584012448
aF7.008333097042159
aF7.20044327098701
aF7.107622530066741
aF7.201941165361307
aF7.40620892903232
aF7.997391879516989
aF7.947453932493584
aF7.5757741537891965
aF7.516181867430914
aF7.645316158637223
aF7.847680138695526
aF7.862420125027575
aF8.042615333692096
aF8.173349740697756
aF8.41946786403499
aF8.80565036508442
aF9.071443375627686
aF9.264638520793254
aF8.648513684218813
aa(lp27
F8.97557159737502
aF8.955091431818781
aF8.680374785716623
aF8.099522761315244
aF6.962853067901947
aF7.478820572827875
aF7.633892326194053
aF7.2516489855108945
aF7.352556614432134
aF7.563074977740076
aF7.84222061543811
aF7.7351594004725355
aF7.480256453951086
aF7.505387878924803
aF7.561222966001626
aF8.054788096809292
aF8.184722973365778
aF8.118908023742437
aF8.2212271578041
aF8.433679221144203
aF8.832936283255624
aF9.185430553019998
aF9.396022462669908
aF8.7564550938072
aa(lp28
F8.283433023401667
aF8.545733625506342
aF8.723140972681696
aF8.263718645700516
aF6.460098303227922
aF7.897910518707031
aF8.093730694614472
aF7.101423871936997
aF7.257644369125296
aF7.620207792282857
aF7.921876234561639
aF7.8094628989764585
aF7.313931822246803
aF7.303475539885375
aF7.599623811067952
aF8.031925607346977
aF8.080082092637213
aF8.224329006490688
aF8.360637163755763
aF8.497165498992311
aF8.76210355316798
aF9.081688337535605
aF9.42185368100079
aF8.862938314743529
aa(lp29
F8.746114930721507
aF8.719807687558632
aF8.75335946314335
aF8.26426868603086
aF6.479018836835951
aF7.76193479899387
aF7.919969773287915
aF7.490123267566675
aF7.984176162859843
aF8.0064134381593
aF7.721209425886751
aF8.008694478492574
aF8.68235043354288
aF8.906513469614586
aF8.917847143091672
aF9.047407003677906
aF9.138585099491777
aF9.366392594529358
aF9.34351552746576
aF8.97472535707684
aF8.95023597986593
aF9.318656292308154
aF9.439376397105827
aF8.686116863481757
aa(lp30
F8.907700050735663
aF8.960002666039438
aF8.782249252450702
aF7.983019485562165
aF6.3648416355765995
aF7.250936454058567
aF7.547249988761128
aF7.077744629312061
aF7.583887778877837
aF7.8212531123944675
aF7.768157147290282
aF7.791150353291261
aF7.459580926043864
aF7.484237632929397
aF7.830614681159866
aF8.154001758290692
aF8.04398651892986
aF7.952125929556507
aF8.14987446430021
aF8.233866499688336
aF8.72715195926742
aF9.138053754215681
aF9.322633476003015
aF8.713299573129616
aa(lp31
F8.460181498622642
aF8.914358794118458
aF8.596809584374226
aF7.579552360347445
aF5.813476422991773
aF6.414240706117104
aF6.9031734649878285
aF7.0130455248871115
aF7.31429490389662
aF7.511767577047775
aF7.65116377694618
aF7.673414449742017
aF7.49832057871781
aF7.520655747946408
aF7.821285811585429
aF7.963053659909193
aF7.917885321860394
aF8.080231941796715
aF8.255470432176748
aF8.431307693965858
aF8.819917349020523
aF8.984785280149557
aF9.35723487460054
aF8.959021205699
aa(lp32
F8.643394414800424
aF8.298789272539885
aF7.814290300879458
aF7.068377123477047
aF5.899341737996674
aF6.629141156274818
aF6.7817720921903355
aF6.719751746100856
aF7.2344447298392565
aF7.315003278327963
aF7.392530633659218
aF7.388195789747912
aF7.137762061616169
aF7.265682073209898
aF7.692795153731021
aF7.964936531860542
aF7.97521688508291
aF8.042947507429291
aF8.288177827019837
aF8.570195118981848
aF8.811600307842923
aF9.106040287000033
aF9.369413164831874
aF8.780764586440998
aa(lp33
F7.9558912384526606
aF7.79492492499141
aF7.539952600503748
aF6.6415622768461615
aF6.034107686222409
aF6.324286446981434
aF6.532853152880315
aF6.662356768785199
aF6.973926547422749
aF7.56895388303399
aF7.667297668600583
aF7.414500889338104
aF7.5026776676832565
aF7.610935922500075
aF7.8360422077054865
aF8.058161298562126
aF8.08166243712107
aF8.20007065669025
aF8.470923453257516
aF8.626710827301197
aF8.829051593098322
aF9.15444562957598
aF9.387867238673191
aF8.774748240609542
aa(lp34
F8.215578942981152
aF7.98101834445713
aF6.93578341312292
aF6.340316086230782
aF6.1251639816011005
aF6.111304136439233
aF5.87895445911423
aF6.307918629475166
aF6.9279601197595335
aF7.398094784530631
aF7.381633734783817
aF7.299225882431574
aF7.499044000917873
aF7.677032587341018
aF7.731966590435295
aF7.829304436798991
aF7.973544356561346
aF8.11407012530558
aF8.272619628365234
aF8.515927887157455
aF8.762275282547627
aF9.179005757016983
aF9.486887000572153
aF8.841472676227223
aa(lp35
F8.419408177485243
aF8.05068951539159
aF6.861275965151488
aF6.341847608091096
aF6.119442230269047
aF5.782800139026057
aF5.744247854111824
aF6.299691862869088
aF7.148054282482601
aF7.334693400741938
aF7.20396050813816
aF7.201571048845279
aF7.45547299595288
aF7.841096357723185
aF7.992429638842324
aF8.165924844576526
aF8.131724968056279
aF8.131385877616841
aF8.361153313881456
aF8.487394876464212
aF8.68589890141151
aF9.158256652250252
aF9.440244224524124
aF8.765338833462346
aa(lp36
F7.536684691257728
aF7.480884967353995
aF6.688479045291832
aF6.123516840325847
aF6.256159747627778
aF5.996817094039111
aF6.440716232689854
aF6.990594166730053
aF7.652084703922721
aF7.967513335883395
aF8.130814848165604
aF7.973218567522693
aF8.318416552688838
aF8.514161297897008
aF8.325781517637859
aF8.40923431805984
aF8.454500031992538
aF8.477678283779035
aF8.397845801844811
aF8.396534309007613
aF8.772194821533844
aF9.252033296667642
aF9.472340030149077
aF8.806333465353344
aa(lp37
F8.221139085981719
aF8.10323322654125
aF7.166875572135027
aF6.835907536428431
aF6.612448952158611
aF6.319266573703716
aF6.5963398771855655
aF7.0232222983778225
aF7.928881524854615
aF8.091754163644302
aF7.879352796187773
aF7.849441030300932
aF7.9974062850346535
aF8.446306253582495
aF8.69811575260274
aF8.714879057468286
aF8.428532220352997
aF8.152806247875816
aF8.278022246554638
aF8.501399208133064
aF8.852126895821048
aF9.21285192515027
aF9.430631377596914
aF8.804213113187977
aa(lp38
F8.5445627901522
aF8.238881117549536
aF7.687082676785912
aF7.595249947440297
aF6.995025588012523
aF6.873386951124662
aF7.418732846906878
aF7.662611644398507
aF8.402461667687733
aF8.492058494638119
aF8.390294967588943
aF8.422198427207977
aF8.200948536451612
aF8.32183233716428
aF9.001007490930462
aF9.699670917731028
aF9.491270155495185
aF8.875147755943381
aF8.81630141910807
aF8.554624263788341
aF8.876288078269786
aF9.17041567232531
aF9.331790261463729
aF8.727665519074005
aa(lp39
F8.101202940667536
aF8.16763336325311
aF8.275157982160552
aF7.887445452670222
aF7.041000970601058
aF6.8515438413115
aF7.50833928142736
aF7.441497287597489
aF7.4323686767564014
aF7.7289116115278595
aF7.9686536219804545
aF7.862935152912189
aF7.555597293914751
aF7.904045168307843
aF8.17703590363192
aF8.219475585656802
aF8.121186573465831
aF8.00462871339347
aF8.152233948532672
aF8.425572691649167
aF8.716213358123447
aF9.044458680936454
aF9.299372141746126
aF8.700379412230175
aa(lp40
F8.51722014280895
aF8.791071439542089
aF8.686820225226237
aF8.266257774384451
aF6.783510696020109
aF6.711476635827024
aF7.286118529351893
aF7.25158331685683
aF7.700987561064593
aF8.226637646808358
aF8.677802220172719
aF8.866979728511023
aF9.123108844583866
aF9.045451974574409
aF9.073430626051813
aF9.33870062984668
aF9.047709852100478
aF8.53562036357155
aF8.275566319995805
aF8.534852292809552
aF8.828505161983324
aF9.113709296207453
aF9.4262878241257
aF8.879174818504815
aa(lp41
F8.463536642787833
aF8.51991098731235
aF8.88917849432173
aF8.481020085984706
aF6.892640715599013
aF7.053184413605495
aF7.266749723362183
aF6.707837539926706
aF8.089610214460576
aF8.309301537749564
aF8.007427502858603
aF7.992382273379046
aF7.743711555795361
aF7.936025635314835
aF8.128656017918052
aF8.137441325870252
aF8.091228392125634
aF8.103134028492436
aF8.303424967672912
aF8.587252841445782
aF8.781370742048164
aF8.975337625221421
aF9.202597121484196
aF8.62900995196166
aa(lp42
F8.841951005981402
aF8.733927698471946
aF8.928198065309768
aF8.640225936903004
aF7.117394514709769
aF7.190523691612239
aF7.3423085364325695
aF6.69434993818165
aF8.100467616061302
aF8.338047188399948
aF8.126223843869592
aF8.13456686194555
aF7.501172102831606
aF7.480911483254865
aF7.9622233872973
aF8.040937677135085
aF7.989928847520679
aF8.157431391438147
aF8.415260120668746
aF8.638665060173633
aF8.84059892248392
aF9.090847697895082
aF9.308674099382896
aF8.697267742703714
aa(lp43
F8.159891154058107
aF8.181083703204905
aF8.864899661279017
aF8.632761122517836
aF7.283586275072298
aF7.3946087536835226
aF7.441985323731406
aF7.153637597415148
aF8.474677794470768
aF8.568129920542225
aF7.767303300731093
aF7.637282787808937
aF7.536134803286293
aF7.870569187193012
aF7.868554864005638
aF8.167886037223468
aF8.25478636353473
aF8.084819113328518
aF8.262106016214569
aF8.504291209750374
aF8.936614994015619
aF9.206828253577333
aF9.345935405483214
aF8.735568050813919
aa(lp44
F8.528851326712681
aF8.689430083184636
aF8.84598171951836
aF8.489804168078544
aF6.934152061890556
aF6.661470631431526
aF7.024633100658956
aF6.976940767468466
aF7.862149429251317
aF8.086346738763195
aF7.857757640801244
aF7.8441180999908715
aF7.8139180372039485
aF8.086642084516482
aF8.108096705923733
aF8.176510126824057
aF8.170774538197186
aF8.081239938895408
aF8.253200551000141
aF8.57292471748929
aF8.8823825842411
aF9.156875454608537
aF9.41610339700931
aF8.830821196919793
aa(lp45
F8.574544264506953
aF8.344137302412681
aF8.392802607038679
aF7.924402778966413
aF6.452224146535022
aF6.235805477915846
aF6.885785083227835
aF6.729843662706631
aF7.888055950289965
aF8.020139611783815
aF7.199351348948681
aF7.049582290825086
aF7.1600484150622306
aF7.835102134798172
aF8.023772388910075
aF8.157472557019412
aF8.222607762902099
aF8.188811034635178
aF8.367929398034837
aF8.446977759341515
aF8.814060260217051
aF9.137296809679214
aF9.301673858977333
aF8.708577099084659
aa(lp46
F8.563310115201999
aF8.172411394571515
aF7.765308933698102
aF7.529584443835074
aF6.677090718317059
aF6.113250598160083
aF6.651445322257938
aF6.668160332184731
aF7.364304443584582
aF7.5973312011643035
aF7.1718080189270506
aF7.053022562640305
aF7.366516350812402
aF7.928861130205468
aF8.126359023286573
aF8.06384748993827
aF7.966203848257531
aF7.9122028450827475
aF8.211832759533099
aF8.393762011727713
aF8.694338907183734
aF9.31457486572173
aF9.469925911653709
aF8.645031728909833
aa(lp47
F8.382840166528958
aF8.25335549394967
aF7.544561085897897
aF7.394440145954635
aF6.698534127106063
aF6.426110483963797
aF6.850000500251294
aF6.8961075255329956
aF7.573594317738228
aF7.5203540317161925
aF6.963599587174597
aF7.1166385077943985
aF7.367499702404006
aF7.883468784328038
aF8.074972412836571
aF8.126627985171536
aF8.179253604994615
aF8.239682958358637
aF8.187342775278507
aF8.338970830121415
aF8.705378092909857
aF9.1821294072959
aF9.460265751474603
aF8.795622993914623
aa(lp48
F7.856724269623991
aF7.488709505958731
aF7.349924043363667
aF7.4594654666339615
aF6.972501687369829
aF6.158637801304253
aF6.404085333206738
aF6.74297158486431
aF7.641290722105026
aF7.649170271872784
aF7.2511718779791
aF7.407831513482469
aF7.46418811020952
aF7.824123142939365
aF8.25432020008662
aF8.397267450790405
aF8.070080640616228
aF7.9123422823096625
aF8.091125304888568
aF8.267693302623208
aF8.643358441030284
aF9.088845658829925
aF9.383858853607723
aF8.785860964591352
aa(lp49
F8.497884586418756
aF8.03934201704611
aF7.29764781898107
aF7.210956252824687
aF6.931451107240894
aF6.400322289815371
aF6.578021499822731
aF6.413953845968204
aF6.986598088132871
aF7.055370197616226
aF6.6229535270775495
aF6.874399965724519
aF6.98791939043826
aF7.335624467549604
aF7.745889807543848
aF7.9990672992610765
aF7.97204373285817
aF7.988354245625373
aF8.236706325089752
aF8.62147635013712
aF8.940440329381897
aF9.269452865464313
aF9.403595148973501
aF8.658138526382315
aa(lp50
F8.366879606189375
aF7.854686692946712
aF7.344697495720476
aF7.201017239931959
aF6.763110751566303
aF6.338644751347969
aF6.933551751795644
aF6.665634645861204
aF6.866170590549566
aF7.057397733235669
aF6.906429849842662
aF6.889845775322361
aF6.892642991018047
aF7.496569238885404
aF7.6557013088240256
aF7.754894457403165
aF8.000219895482589
aF7.9908622695474785
aF7.985447308001128
aF8.380813700155377
aF8.828961878367442
aF9.130706356084142
aF9.434978205806805
aF8.899757816064005
aa(lp51
F8.125560194901675
aF7.842007458864393
aF7.395022730694453
aF7.197405351550045
aF6.6488146321896435
aF6.470506175429209
aF7.0484995845988525
aF6.712680374808001
aF6.946535527452501
aF7.268847045677526
aF7.095492915783446
aF7.0801048022276705
aF7.249360306224247
aF7.547901909305278
aF7.650434926686897
aF7.870041158989882
aF7.888512831982121
aF8.109008850846367
aF8.334041103849067
aF8.311581128577457
aF8.619071660234649
aF9.142237780453605
aF9.41387416367317
aF8.761266274073066
aa(lp52
F8.309771574386039
aF8.704017707533902
aF8.346741545686669
aF7.46205864054041
aF6.620239370140998
aF6.887780902536862
aF7.229818954647343
aF6.982386768928161
aF7.437631384814243
aF7.57940747377518
aF7.405973739770067
aF7.259422135293132
aF7.722110699116005
aF8.039547974896998
aF7.987392779550983
aF8.19349239391449
aF8.165786934434
aF8.11102834201694
aF8.205797430119905
aF8.478216721169535
aF8.82506917894913
aF9.115150794121845
aF9.41595568184766
aF8.858841833753784
aa(lp53
F8.481147807832594
aF8.794803722526822
aF8.975700269834634
aF8.446686451079954
aF6.826562897330273
aF7.244474319677917
aF7.3157215636784025
aF6.60533286797833
aF7.531146041419016
aF8.199597845535118
aF8.535324725244207
aF8.234061454087696
aF7.171443641007076
aF7.384828029302583
aF7.738282815501985
aF8.101695285827494
aF8.04736308718745
aF7.871495213463509
aF8.281987742943263
aF8.584085890857974
aF8.849871759386273
aF9.165097416976199
aF9.408762811942953
aF8.80757248300557
aa(lp54
F8.77167643290381
aF8.85767888451013
aF9.102657946674723
aF8.624354744606125
aF6.954762344836074
aF7.37328832091174
aF7.454935034656495
aF6.606216891930617
aF7.941688682653894
aF8.343039420962187
aF8.509483195351514
aF8.20884606349722
aF6.9591314365805435
aF7.312888406659904
aF7.490717414824858
aF7.836561005517474
aF7.990176216987671
aF8.074880545650027
aF8.411745365227214
aF8.574070668990064
aF8.78216332535813
aF9.11081794686451
aF9.298046141164134
aF8.659530456483477
aa(lp55
F8.851653650103108
aF8.915300388617792
aF8.98818428838047
aF8.474871524165653
aF6.404171720751766
aF6.330233362149652
aF6.750362661302374
aF6.676801756655431
aF7.960721790390444
aF8.463426103977849
aF8.524424395297709
aF8.163806554244754
aF7.368619802979546
aF7.499754535514172
aF7.707982503918466
aF8.183956319204862
aF8.124060876824608
aF7.9338494867430684
aF8.296342757798875
aF8.560622087182455
aF8.869886312964887
aF9.275695471844843
aF9.485671180436476
aF8.823994720970987
aa(lp56
F8.184363926641268
aF8.38879170849031
aF8.907742042180246
aF8.576460242353551
aF7.147683295057973
aF7.468885774347044
aF7.431229670664706
aF6.426477028692548
aF7.328355019538193
aF7.960107785982886
aF8.451641282614748
aF8.294243970668207
aF7.5235020062601246
aF7.460904687670903
aF7.647768756744526
aF8.010038657899521
aF7.958618632262691
aF7.965419418722293
aF8.333501349365335
aF8.509456895780323
aF8.907409882170969
aF9.194779001209351
aF9.357582739769393
aF8.799208985845691
aa(lp57
F8.525955502299478
aF8.889399677611358
aF8.799511434046579
aF8.198498739504547
aF6.622329733018685
aF7.142177229477965
aF7.290982127634952
aF6.717472209219364
aF7.235788016686869
aF7.3147860505388556
aF7.9857647199052835
aF8.042878502840844
aF7.069281260803636
aF7.172715431173819
aF7.6635881508278985
aF8.016610205316466
aF8.08171099652383
aF8.12874912426843
aF8.164733897434836
aF8.53369014327831
aF8.88752346434231
aF9.133347985707534
aF9.42413060887116
aF8.852966868735363
aa(lp58
F8.152594662119446
aF8.306316060721198
aF8.582859177862007
aF8.17512460864538
aF7.128382947415073
aF6.84172628144894
aF7.1557741041034655
aF6.717137519469678
aF7.077615943344142
aF7.315539261085672
aF7.846073091275833
aF7.983337876833643
aF7.3351776460347375
aF7.045704346517717
aF7.454765059414826
aF7.920640736985922
aF7.965286044750482
aF8.035169939496505
aF8.225117342000067
aF8.447537531894934
aF8.836548213585568
aF9.208767686814598
aF9.463910222796953
aF8.858219538448889
aa(lp59
F8.5924220614079
aF8.800425025019441
aF8.745209755945906
aF8.579159209447484
aF8.207098637957003
aF7.205151247832576
aF6.369985913249533
aF6.744937358356097
aF6.946360429345369
aF7.193919073572938
aF7.419835328140775
aF7.672434888003846
aF7.394982483528618
aF6.8969982663504705
aF7.503277079129626
aF8.077464333604683
aF8.123551008679101
aF8.037431131538916
aF8.29467054142255
aF8.436675828222226
aF8.841859293930426
aF9.260030140634932
aF9.34476351802302
aF8.615302131834579
aa(lp60
F8.32362011009715
aF8.524849368499135
aF8.510619105129628
aF8.614850360092516
aF8.507724929969488
aF7.988055980293885
aF6.611029397094248
aF6.814304779731413
aF6.831812402341242
aF6.84906214038211
aF7.040785612778989
aF7.37194753012109
aF7.315209698136312
aF7.2802751493115325
aF7.650958075505484
aF7.899756683535165
aF7.942109004176841
aF8.226380239933073
aF8.43375816034633
aF8.5429952856825
aF8.990957875206814
aF9.30857719480487
aF9.437584469699502
aF8.803027497800866
aa(lp61
F8.355248333937888
aF7.8111607413127695
aF8.232698205898757
aF8.471040380209736
aF8.30964762428518
aF7.784953420744119
aF6.687980960381034
aF6.492028584725332
aF6.9868904856268435
aF7.150348234930957
aF7.321943123533454
aF8.129210005704842
aF7.963252285199011
aF6.978362403593011
aF7.064571988211553
aF7.6617562735254285
aF8.01238406639222
aF8.054868613026326
aF8.172613432538187
aF8.505103845326119
aF8.785665124540143
aF9.033826254329156
aF9.430264982239766
aF8.926035398870907
aa(lp62
F8.774776814491576
aF8.278502613967813
aF8.22079200848873
aF8.801636396822397
aF8.808925842736704
aF8.245632074813699
aF7.080228823660842
aF6.678435045555767
aF7.1387781343931
aF7.403131017061933
aF7.695973687137716
aF8.373037111668811
aF8.11252018650825
aF7.225596110305473
aF7.488590056536254
aF7.768067053593522
aF7.944395552819268
aF7.838403322484323
aF8.198262467914489
aF8.592906507154257
aF8.845855330881532
aF9.129042664166956
aF9.356136921042548
aF8.742669371266382
aa(lp63
F8.159081932132107
aF7.974752832172057
aF7.912308068137587
aF8.50381997419508
aF8.691961296412881
aF8.337380397082972
aF7.677363527579693
aF7.026796067700051
aF6.984543493278006
aF7.53478704208669
aF7.680300155516783
aF8.53380158622018
aF8.502947847135475
aF7.370682609019304
aF7.580466945985993
aF8.02326065738801
aF8.017115595969795
aF7.979600688505891
aF8.146200037939378
aF8.378353110672462
aF8.802478688452759
aF9.080832021292418
aF9.311402385327087
aF8.746969805504946
aa(lp64
F7.991061441632185
aF7.947354197161422
aF7.723638172958744
aF8.345522015262477
aF8.503265731818127
aF8.340019444944339
aF7.928410432833745
aF6.813254622102536
aF6.74781791279617
aF7.211273712757813
aF7.572804327373128
aF8.582017042177084
aF8.504209183387356
aF7.348040760785979
aF7.406846756572949
aF7.809166987661689
aF7.978702944372911
aF7.98662106477937
aF8.218633860952801
aF8.40136733969613
aF8.856805282832804
aF9.22712446116549
aF9.399294779379327
aF8.770781707676782
aa(lp65
F7.900321592454108
aF7.563957604923976
aF7.485273834386464
aF8.035468062633138
aF8.228683567847819
aF7.949932074483495
aF7.654828894445989
aF7.236547342032772
aF6.652112764940662
aF7.212545057636406
aF7.566009535644759
aF8.53550074911571
aF8.441924175491485
aF7.253226714749764
aF7.526920234546896
aF7.845454743318166
aF8.053856601052159
aF8.027798397517271
aF8.195439271155541
aF8.52494330433855
aF8.856821008273489
aF9.189522820383774
aF9.499541644548366
aF8.94143785919623
aa(lp66
F8.109510838729886
aF8.129968073843965
aF8.102048998025262
aF8.023162735374271
aF7.840595566179144
aF8.105732033004957
aF7.941270090342801
aF7.029950606890687
aF7.175933343865204
aF7.666173901252892
aF8.001245918859539
aF8.299188887614177
aF8.510826365160318
aF8.226740666166801
aF7.705862435501402
aF7.765485324716948
aF7.994198528411177
aF8.115743507374804
aF8.303765383341721
aF8.480381375371481
aF8.740666724531975
aF9.155629870021292
aF9.436855622010372
aF8.825291241097254
aa(lp67
F8.481063744898615
aF8.875071198465971
aF8.806497761263808
aF8.26326321445328
aF7.928672400116627
aF8.089387152491499
aF8.185408033064364
aF7.561008773387371
aF7.3296762153964625
aF8.026436565414693
aF8.308846174922381
aF8.939196227650205
aF8.763762280710651
aF7.323918766457302
aF7.329133224769558
aF7.863289688389748
aF8.059024927104918
aF7.989502855205478
aF8.16282905757342
aF8.443831094464185
aF8.746331828361264
aF9.087167365464593
aF9.428408334162409
aF8.875372875870802
aa(lp68
F8.502763783323916
aF8.595076064024122
aF9.046304769466703
aF8.911899166497072
aF7.949915909247395
aF8.094000239582767
aF8.25368673996964
aF7.809125522005827
aF7.9060062112234935
aF8.196327501202576
aF8.363657799548598
aF8.757620816435077
aF8.443014785405659
aF7.227312796592269
aF7.488232282832315
aF7.988607982971027
aF8.159671715512097
aF8.156838171725083
aF8.287102130887892
aF8.588362495370909
aF8.915108223505191
aF9.20113138305821
aF9.345290366466765
aF8.664572527908044
aa(lp69
F8.366147001822194
aF8.63763068193946
aF9.240060465931473
aF9.026791198664132
aF7.674952895575865
aF8.114197598079059
aF8.25115403910915
aF7.7398388851449536
aF8.317526308861463
aF8.67293686139533
aF8.438669134595209
aF8.832909083091778
aF8.710868904437154
aF7.65617670297903
aF7.532152134090986
aF7.96731538779005
aF8.133532349905813
aF8.114581559059127
aF8.307205633915926
aF8.425780936712476
aF8.668415589536755
aF9.081429976929293
aF9.395963834534491
aF8.80303309680025
aa(lp70
F8.606434871929107
aF8.782009770895044
aF8.980503877290673
aF8.50432630689714
aF7.290436896813941
aF8.377435591622728
aF8.501113280303503
aF7.622143041396342
aF7.862807158836488
aF8.383103905973574
aF8.706457024018222
aF9.063601184473365
aF8.841958231667597
aF7.926020780395877
aF7.638342582969994
aF8.215146622538864
aF8.525978789986057
aF8.364626316856421
aF8.356102286802408
aF8.656812119364462
aF8.982543288108115
aF9.257570863760321
aF9.542452644614047
aF8.99823067980375
aa(lp71
F8.509057347999796
aF8.500957874540298
aF8.600116439703298
aF8.276793979739404
aF7.026372650416531
aF7.95225864240157
aF8.149855608872365
aF7.550346952687659
aF7.730186598514303
aF8.26263259081479
aF8.67315516734233
aF8.990356148872632
aF8.715506130309599
aF7.722591012481749
aF7.70172227150798
aF8.132183029526773
aF8.187022791786577
aF8.174722831909676
aF8.397625660329785
aF8.612983215195577
aF8.915248363969152
aF9.126195070262836
aF9.27373978782556
aF8.688169363258709
aa(lp72
F8.614833481683181
aF8.880843398468864
aF9.015916478532887
aF8.497626017915112
aF6.950389533700424
aF8.311935873430103
aF8.558273449935287
aF7.593892539665597
aF8.047977549319212
aF8.623183866504647
aF8.6583083367419
aF8.838537304135745
aF8.716800541249528
aF8.06025199286217
aF7.944892341282141
aF8.341929577429564
aF8.48594720951929
aF8.337361792775113
aF8.285162137324663
aF8.44241568903398
aF8.781131487517909
aF9.138469206739098
aF9.306971946928085
aF8.66173557732379
aa(lp73
F8.73158306903388
aF8.871073761581732
aF8.851857534355272
aF8.296077744212164
aF7.208551256654556
aF7.886497933614371
aF7.844933749752373
aF6.657214066408037
aF8.100262340712174
aF8.330543163374108
aF7.959714479876149
aF8.104003582968462
aF7.92884015027013
aF7.870234233974949
aF8.07454255701633
aF8.290224016706068
aF8.394120530416576
aF8.354689215087957
aF8.301170100925384
aF8.485626456115835
aF8.906090129665513
aF9.143043137346028
aF9.291801506710057
aF8.70519396368657
aa(lp74
F8.62047171438018
aF8.753454931294188
aF8.428392066050996
aF7.483089424646475
aF6.844274499018067
aF7.017475809066307
aF7.158525818586441
aF6.655802131794745
aF7.329332727812392
aF7.908542600756167
aF7.752721385419152
aF7.709488260918199
aF7.945454887729289
aF8.099326493656324
aF8.238006811254309
aF8.16951749820593
aF8.306515583426817
aF8.325390696251093
aF8.16662372645698
aF8.489541573550603
aF8.894586623206887
aF9.10041198485457
aF9.342474946828094
aF8.81906356206189
aa(lp75
F8.032417802403105
aF7.723529022278553
aF6.69963096763625
aF6.7195779661520785
aF6.610695156202105
aF6.366361359072208
aF6.514690430793095
aF6.65782505836501
aF6.768158439677129
aF6.897968567156805
aF7.050337845257174
aF7.599146138906609
aF7.833659768666206
aF7.9560606973852614
aF7.947457226171361
aF8.04160225994122
aF8.197482767885177
aF8.296650247303806
aF8.370796235403976
aF8.539469092570458
aF8.821842080620913
aF9.241105092313894
aF9.396337057319059
aF8.617392213292707
aa(lp76
F8.336570884100913
aF7.920325899398431
aF7.150835748636617
aF6.539540168412367
aF6.296640085674541
aF6.218965336847104
aF6.074925292494455
aF5.9161498630374
aF6.351816674048816
aF6.7187428142923205
aF6.747465654338292
aF7.173522039441659
aF7.8431789614614535
aF8.066249569930555
aF7.894112295928577
aF8.153750497403424
aF8.299320602085865
aF8.126367710826685
aF8.20951070493527
aF8.376564463257262
aF8.870644285326
aF9.161666603786085
aF9.326503934724846
aF8.779113528757309
aa(lp77
F6.726089197218755
aF6.455266720639793
aF5.699658450905452
aF5.329576164349053
aF5.310805038045936
aF5.375711531889549
aF5.183051124526762
aF5.382255355835074
aF6.1123503289033945
aF6.280637615454822
aF6.293352589897642
aF6.577506676165238
aF7.461039777297559
aF7.5653302030544385
aF6.87586236005985
aF7.0849455879849925
aF7.183079196272231
aF6.929210167498546
aF7.0444349150074395
aF7.380244314201912
aF7.66809067140722
aF7.874769844089848
aF8.282468177536536
aF7.820833495413668
aa.