(lp0
(lp1
F7.356384797571935
aF5.546267468585843
aF4.818294751365433
aF5.0275376215609695
aF5.170659572735754
aF5.379899803567753
aF5.403274839391363
aF5.541866763595881
aF5.635611172473146
aF5.9705504937348355
aF6.451955659238709
aF6.63675679379242
aF6.598402078816705
aF7.02042189288294
aF7.366149501646907
aF7.292575647861085
aF7.231818389547351
aF7.392457670688158
aF7.693495045484586
aF7.7218319703530245
aF8.166194761518193
aF8.801537709333378
aF9.155847060401324
aF8.588704216513612
aa(lp2
F8.583723985272426
aF8.278701436102308
aF8.083354644148484
aF7.612897086458855
aF7.552004760914143
aF7.722205157292511
aF7.806726177690358
aF8.024275980715785
aF8.36487213372301
aF8.913800300194593
aF8.75580963531936
aF9.296547547016901
aF10.285884325060312
aF10.374946190620241
aF9.775736662366324
aF8.743293258917344
aF7.273470453235687
aF7.34735195728623
aF7.565023497353355
aF7.833688169369765
aF8.231793751789763
aF8.657321407227295
aF9.057988254573788
aF8.54242293483055
aa(lp3
F10.124608510634925
aF9.864084342984977
aF9.422949582414786
aF8.426771908356958
aF7.400308404654087
aF7.632223934525414
aF8.847367096095681
aF9.025704018849263
aF8.388144070063117
aF8.164215605341482
aF9.292179672136925
aF9.49518920354767
aF9.883812570870223
aF10.161526050062898
aF9.606521127823177
aF8.553095220583552
aF7.38093540919208
aF7.535056959637156
aF7.719143216407291
aF7.9108496462247055
aF8.465048250740272
aF8.879066944107803
aF9.250052760385172
aF8.767907810236878
aa(lp4
F10.526733856191859
aF10.678294154170276
aF10.248332216805393
aF8.694779966631605
aF8.607476076810665
aF9.079083702325036
aF9.808051866423762
aF9.683746407048174
aF9.264998607831554
aF9.510850407779406
aF10.33689652647525
aF10.335468920198416
aF9.000545203316122
aF8.873298958788391
aF9.258748960800075
aF8.659834494789726
aF7.038296745607245
aF7.3695061632563785
aF7.658435700983175
aF7.874395896858263
aF8.481815069940186
aF8.917166204948582
aF9.26869771607301
aF8.775706067706821
aa(lp5
F10.626106005469252
aF10.897799191616429
aF10.607958591175219
aF9.178656955347071
aF8.610204438218934
aF9.152144487925833
aF9.925007326102948
aF9.710441658609394
aF9.317884042784533
aF9.631734980851197
aF10.58446618391195
aF10.604001548584536
aF9.190116635968167
aF8.622793300554958
aF9.112809732438347
aF8.605649800786843
aF7.137958696335256
aF7.472816479836577
aF7.7265301669088515
aF8.063574186026248
aF8.66421192053868
aF8.97580151785841
aF9.195917371416856
aF8.664222509558465
aa(lp6
F10.607722937149003
aF10.833621063836974
aF10.530822418877186
aF9.311938017500454
aF8.853186564096669
aF9.527924862209346
aF9.95569606419349
aF9.535667609786797
aF9.52492023586524
aF9.71416731226922
aF10.277411995838678
aF10.283207741441702
aF8.790485056689143
aF8.532352262713466
aF9.153576037646632
aF8.584771996155407
aF6.905020760688247
aF7.3463261065012135
aF7.717095045914855
aF7.957156424982306
aF8.620814880395281
aF8.990654330656588
aF9.196748886767217
aF8.667892093962124
aa(lp7
F10.426108504393166
aF10.510678316013331
aF10.239416513777725
aF9.332378223250691
aF8.65605801424743
aF9.796266692986578
aF9.855469128031396
aF8.797583687763781
aF9.381400393273287
aF9.579221280349497
aF10.046723416463458
aF10.015058001895994
aF8.424577950093854
aF8.486160026128081
aF9.193277983972822
aF8.666953652260391
aF6.998881876996807
aF7.473105765105353
aF7.639708268362603
aF7.872540521632822
aF8.60365218520278
aF8.963885158064686
aF9.2392919951169
aF8.75336790407676
aa(lp8
F10.164516849715234
aF10.17526145979564
aF9.865694481230719
aF9.04418641573456
aF8.645923703651953
aF9.410088061973605
aF9.323803887783285
aF8.504512513363279
aF9.214606825336922
aF9.390712858565061
aF9.924477447052904
aF9.942016397603
aF8.410629459246278
aF8.545063444529308
aF9.080817568562185
aF8.39601523707103
aF7.058189118138907
aF7.456405100401493
aF7.722859712039766
aF7.898821600721447
aF8.454323948832734
aF8.90659542014196
aF9.148395606295098
aF8.565123592357187
aa(lp9
F9.710616518890204
aF9.773306533700042
aF9.513865316765443
aF8.597042268952874
aF8.279826195415458
aF9.299171043912343
aF9.27212006088247
aF8.083028449150369
aF8.835164353392537
aF8.944134165528752
aF9.351745967100294
aF9.454529795243017
aF8.109154141523092
aF7.707325788611525
aF8.274034964586454
aF7.825193892040421
aF7.105988824754427
aF7.292452725702373
aF7.718177487536253
aF7.969758177690705
aF8.404668818701643
aF8.851031660689175
aF9.186076141805811
aF8.660973784873711
aa(lp10
F8.4056577265996
aF9.187551964133245
aF8.933335352330706
aF6.795053947558357
aF6.320977669322545
aF8.094809701844957
aF8.091770967256025
aF6.013239949103634
aF7.263821587732185
aF7.413541348301973
aF7.108146169500037
aF7.156442109047406
aF6.541309755212882
aF7.074570061916374
aF7.492202594132374
aF7.259516246889369
aF7.134462128531526
aF7.343958416788381
aF7.573831147740484
aF7.954933795449537
aF8.352245929550469
aF8.674915056847142
aF9.217690422722255
aF8.806675652994535
aa(lp11
F7.319646692989518
aF8.20516695304031
aF8.030209216310002
aF6.690032376554164
aF6.164682591057717
aF7.103754819221027
aF7.087825550044767
aF5.5438059349537046
aF5.942970892371515
aF6.301206687857731
aF6.419164074703418
aF6.499830326257683
aF6.263663412151059
aF6.476321205587088
aF6.8501964029908144
aF6.928937298976215
aF6.993969463773994
aF7.333207775621398
aF7.7498025219653455
aF8.052895314095556
aF8.35599750981889
aF8.661225901436511
aF9.158053594444187
aF8.734799928239774
aa(lp12
F5.4605147344002605
aF6.7658217956274616
aF6.789838659228993
aF5.50210669839523
aF5.1199892563258045
aF6.156529049096458
aF6.186311115361337
aF5.013821103547333
aF5.600250256897746
aF5.9252574951802215
aF6.118918375792435
aF6.133117216667655
aF5.761158442294482
aF6.579558035883367
aF7.039428166281628
aF7.016321198440046
aF7.082689827824823
aF7.512172282639226
aF7.7099971534254745
aF7.827128976795707
aF8.2608981376047
aF8.80789455042665
aF9.152038584904172
aF8.54588403950647
aa(lp13
F4.464406439526831
aF4.808628184213173
aF4.693007760843418
aF5.016945749095454
aF5.072294939741719
aF4.997898749620252
aF5.093198291899678
aF5.195684691954343
aF5.449783148554778
aF5.824987722717315
aF5.87961268542603
aF6.190004117371918
aF6.442979951269167
aF6.606425141589424
aF6.929767693041353
aF7.000125315606737
aF6.93172068028091
aF7.049710711390953
aF7.285810362178174
aF7.407754678774763
aF7.771527395685375
aF8.542144612219031
aF9.106631926759034
aF8.597561570279636
aa.