(lp0
(lp1
F5.069114460624093
aF5.052795545490072
aF4.664260844255333
aF4.813847748841848
aF5.116857655419062
aF5.581575608912589
aF5.6796148837992035
aF5.4875305922225355
aF5.657828006988561
aF5.791305935152782
aF6.526302071750224
aF6.825030397419218
aF6.787115767396374
aF6.797664293072877
aF6.726207682456236
aF6.923562492992105
aF7.172836509898915
aF7.472368623826988
aF7.665217644947419
aF7.766832534445502
aF8.067381400044301
aF8.611252326508511
aF9.185575091217215
aF8.72612703360192
aa(lp2
F8.018568236943024
aF8.187696165808077
aF7.979867413552842
aF7.925936502536587
aF8.10620826412789
aF8.909951296718083
aF9.046887334857159
aF8.773964191058472
aF8.708969355075707
aF9.122897555571736
aF9.964829462596748
aF10.319680298829667
aF9.889755592211891
aF8.800138020496023
aF8.436684026772037
aF7.939468149490629
aF6.894477655891308
aF7.246797955468479
aF7.553491801814888
aF7.833243944447306
aF8.429905003174461
aF8.922677934830356
aF9.33613113486255
aF8.851030821597014
aa(lp3
F8.910442905975888
aF8.552301886479277
aF8.213854635452932
aF7.922924407864045
aF7.817403792436705
aF8.282593292423092
aF8.108554306153483
aF7.148355161766307
aF7.163813503644475
aF7.649113794854717
aF8.533401405344206
aF9.064211646282997
aF9.383166765508639
aF9.269734765828854
aF8.680620662890114
aF7.914263759256608
aF6.8504240293273755
aF7.106379772576771
aF7.5185667832518
aF7.865984074164903
aF8.293000049584656
aF8.867956142641438
aF9.287397951100239
aF8.736753556042563
aa(lp4
F7.68421593812522
aF6.907470564016738
aF6.771701041309069
aF7.418712699938128
aF7.8048379482312935
aF7.760068414952709
aF7.509691589939555
aF6.8394341674596495
aF6.627074587753091
aF7.629460641454107
aF8.32544051035454
aF9.247049875674909
aF9.300580219135545
aF9.286409632558321
aF9.43630969762577
aF8.621979660329023
aF7.241189207892694
aF7.360877393317254
aF7.622591522582214
aF8.118434339545468
aF8.418011463965458
aF8.87905555296627
aF9.407345556549938
aF8.900708298625837
aa(lp5
F9.657206562784568
aF8.99216746246985
aF8.338588715151268
aF9.174454024942692
aF9.051825454122772
aF7.941273774866615
aF7.346010725344064
aF6.282088313607503
aF6.653960652016112
aF7.42703913766768
aF7.988939645325088
aF9.118619490007099
aF9.170026632029122
aF9.143524339912284
aF9.5738278837485
aF9.037342486937334
aF7.5010424709743795
aF7.428535783490883
aF7.594372148043928
aF7.874975113025248
aF8.40881527363547
aF8.698488379989227
aF9.121022726488064
aF8.709950160996362
aa(lp6
F8.769392527106232
aF8.450429074910451
aF7.833371831681538
aF8.064447801076005
aF8.335570609479376
aF8.21891034626921
aF7.386330090307319
aF6.204835521058518
aF6.1323807788709015
aF7.726432186854575
aF8.126371376274545
aF8.78770207107583
aF9.02524867343106
aF9.35697040117613
aF10.113975336341833
aF9.772443519164673
aF7.558830472772483
aF7.477173057679881
aF7.684268466142109
aF7.858340369156877
aF8.36069640813339
aF8.77991022183987
aF9.188659380969836
aF8.712147307770998
aa(lp7
F9.439383312239634
aF9.3607810526078
aF8.875324313218089
aF9.185681033545665
aF8.842493564338463
aF7.202770405704697
aF6.334761306232848
aF5.719825802102204
aF6.392472304223631
aF7.467109218190942
aF7.632143747761608
aF9.110550463268764
aF9.36301788448055
aF9.756724376465336
aF10.232995435809945
aF9.683260979459932
aF7.980163628414114
aF7.545215295450281
aF7.752701570211578
aF7.922101503131375
aF8.367811063149132
aF8.81417312688216
aF9.231352186787966
aF8.74798528970564
aa(lp8
F9.679763065714074
aF9.52784393763116
aF9.224470087615625
aF9.41854167647279
aF8.803756859066969
aF7.395243118896595
aF6.840883534111189
aF5.823122158508833
aF6.147393142542405
aF6.613495606318301
aF7.1091652475391545
aF9.053685473757026
aF9.366100042648132
aF9.470872898777886
aF10.196194358842847
aF9.881356687966615
aF7.796126319593985
aF7.322404348176824
aF7.607243365926844
aF7.771335266977613
aF8.289777455469663
aF8.853271586252797
aF9.18796271588276
aF8.629269323888202
aa(lp9
F9.686403521879186
aF9.204560598956006
aF8.757716331292357
aF8.886218630847202
aF8.292740078991601
aF6.92738816671645
aF6.3108445415968095
aF5.758142483208161
aF6.055742009623222
aF6.7749371881521645
aF7.294912308186816
aF9.148333841702696
aF9.6987030877475
aF9.902818201380441
aF10.18952726721522
aF9.73755467184922
aF8.038482545229874
aF7.402795617478744
aF7.760236057292154
aF7.9737104274678865
aF8.341045177412477
aF8.869193401633058
aF9.220454884527587
aF8.624243437102018
aa(lp10
F9.085861286665244
aF8.415453688634658
aF7.721512828685063
aF8.224321931613774
aF8.282969219148944
aF7.723703555674625
aF7.233169004842373
aF5.881519470860204
aF6.102533685024122
aF7.583042703528774
aF7.798772769111345
aF9.36514880522583
aF9.886377430711674
aF10.167129628410812
aF10.379263816488718
aF9.736621010290241
aF7.8596177349185075
aF7.428208311943145
aF7.844262535426481
aF8.041218102066091
aF8.456350752241578
aF8.868530404319772
aF9.17642236627774
aF8.63683498114076
aa(lp11
F8.552169473542211
aF8.180866489581135
aF7.727377262426564
aF8.056965047736812
aF7.873387885214562
aF6.973288880836095
aF6.20078826272312
aF5.213767859518226
aF5.816763148325229
aF7.7844010434066595
aF7.835166472067273
aF9.193540938686809
aF9.66705374136086
aF9.88370533191751
aF10.145973640333507
aF9.542894667897516
aF7.780836782312219
aF7.265751582738192
aF7.692250395439108
aF7.97540645574991
aF8.251500134290739
aF8.80985405873535
aF9.176176974973684
aF8.577771728816755
aa(lp12
F9.390646000780647
aF9.674685840360398
aF10.025310488395524
aF10.02652736767694
aF9.382610653897656
aF8.162642563344695
aF6.05708068165764
aF5.664821008479767
aF5.943510422708751
aF7.88319827678692
aF8.25421399828798
aF8.902220414549012
aF9.451767832238081
aF9.711856295572778
aF9.86475484369893
aF9.274290018504956
aF7.487910213711557
aF7.3417576972899
aF7.55804057854365
aF7.8376610173798875
aF8.25335436846529
aF8.7370130981129
aF9.239156342378589
aF8.763965097347745
aa(lp13
F10.110162142675184
aF9.897191341654791
aF10.575886512467696
aF11.003870347140307
aF10.648718559412002
aF9.514781393668942
aF7.60302626973524
aF6.2208471152456
aF6.675546516775161
aF9.149779525171844
aF9.633055654378328
aF10.141627916097287
aF10.045071209873939
aF9.370892414910244
aF9.495046352907517
aF8.719939725994802
aF7.165109698438046
aF7.526833094145494
aF7.648936259756999
aF8.068802741025923
aF8.71700039003874
aF8.9484862775445
aF9.33264989011033
aF8.925872918782767
aa(lp14
F10.255368580421553
aF9.878246045444683
aF10.461103228950217
aF10.978115803307121
aF10.767297439009141
aF9.670033373326572
aF7.757209733410849
aF6.390159719092858
aF6.878443943389829
aF9.52636191264124
aF10.105019244616877
aF10.423973519960063
aF10.150205230123373
aF9.461135757878152
aF9.609155256935374
aF8.735001878284619
aF7.318622561698835
aF7.371992644497802
aF7.601626212604424
aF8.019080137371036
aF8.623931842958278
aF8.988375536779577
aF9.114891536468495
aF8.460935863890082
aa(lp15
F10.270397908866316
aF9.805157337843397
aF10.415528387017492
aF11.056120070579672
aF10.98711010764926
aF10.100522684725252
aF8.248969303047845
aF6.658791154313593
aF7.266964583475845
aF9.720021917202688
aF10.377977596661877
aF10.59417341833969
aF10.18252745454174
aF9.84872660336697
aF10.118257245118002
aF9.149158452290065
aF7.270179735226415
aF7.472709186054548
aF7.6435534119179085
aF7.944973760418949
aF8.688432081130852
aF9.049429878906905
aF9.272650570499732
aF8.769861444507404
aa(lp16
F10.168487140509336
aF9.814470292265254
aF10.55941545826973
aF11.179216607235267
aF11.145912998417899
aF10.372831135873065
aF8.557110277313614
aF6.883710217949918
aF7.543842237120377
aF9.959152493832104
aF10.62824708700107
aF10.474028962615
aF9.63780596413501
aF9.1193402303742
aF9.476545938938509
aF8.682889371356325
aF6.96569316775437
aF7.29438732404394
aF7.662270818476582
aF8.118114083944263
aF8.842749637641315
aF9.074997793837452
aF9.201804986679596
aF8.687279527833313
aa(lp17
F10.052588029341635
aF9.705020421862622
aF10.5573269524995
aF11.1741822703321
aF11.187064776954863
aF10.471629501280614
aF8.57741486108757
aF7.366249585162785
aF7.605700194061565
aF10.016625213501138
aF10.648458972887939
aF10.575593090818725
aF9.872526511422684
aF9.078925103503767
aF9.351391530603145
aF8.395591951154012
aF7.018578024438592
aF7.429747464193326
aF7.6824151171975235
aF8.22774809738177
aF8.871094683253949
aF9.082354110073144
aF9.263268043049028
aF8.74629526435007
aa(lp18
F9.978418046690352
aF9.564538444556703
aF10.430401931279004
aF11.129368139190312
aF11.166054208678824
aF10.441740384703898
aF8.66686775524121
aF7.570051637711892
aF7.857803888804648
aF10.01468838668373
aF10.686906707872305
aF10.537425154587446
aF9.677254343986998
aF8.813570441098367
aF9.203552663058964
aF8.521536132982474
aF6.996917850560789
aF7.284437553947574
aF7.6296459605370215
aF8.065762581628043
aF8.734204778422317
aF9.050590424171023
aF9.308899894642664
aF8.810565099303835
aa(lp19
F9.914419895428134
aF9.443304427558573
aF10.323047222838543
aF11.062958543564216
aF11.132359172875672
aF10.430364842924327
aF8.682158903239847
aF7.5477312759029695
aF7.765563798282879
aF9.980562505653774
aF10.586389331515104
aF10.303822493914721
aF9.353151808359964
aF9.104402713115139
aF9.595626929699334
aF8.900544705311177
aF7.063442684554436
aF7.437031949623818
aF7.710101289533001
aF8.12613985243301
aF8.669258509264516
aF8.982891895593976
aF9.374038202089306
aF8.912439245499913
aa(lp20
F9.779078662917822
aF9.237972019951163
aF10.134518151262908
aF10.980619369790064
aF11.119747960645112
aF10.473316943211723
aF8.823382166570376
aF7.472870322800164
aF7.752941352070915
aF9.628637762200597
aF10.484854692815064
aF10.365943205130696
aF9.30509107622364
aF8.452469208228408
aF8.905650389765569
aF8.429432658389436
aF7.105011630654422
aF7.309246282644433
aF7.583747458127709
aF7.914882647802798
aF8.495123922162483
aF8.92090846723106
aF9.35997119988625
aF8.902563522321692
aa(lp21
F9.615921386557261
aF9.089720725604288
aF9.908291457678455
aF10.742056613082122
aF11.16913403307301
aF10.808968431234463
aF9.143779642658886
aF7.55340963366916
aF7.445363578699453
aF9.59477534688684
aF10.29183809648083
aF10.099489716665767
aF9.118704822968024
aF8.252909940448875
aF8.921483229101057
aF8.487870916342015
aF7.187672343619716
aF7.440995506357271
aF7.563306105872907
aF7.9424695415919055
aF8.647381283851947
aF9.017291836842649
aF9.237628439593594
aF8.68433718063501
aa(lp22
F9.196298933957207
aF8.686166242326006
aF9.447256653841206
aF10.384132069989537
aF10.795708744879542
aF10.454920008196794
aF9.115329761318804
aF7.4701419381876235
aF7.119208725333876
aF9.13119778181221
aF9.828607467644995
aF9.68748353267222
aF8.811443604092208
aF8.083720353543358
aF8.885628759603453
aF8.530443568754137
aF7.028483677664402
aF7.445262767860868
aF7.720996538318387
aF8.020807948231662
aF8.548713289829598
aF8.964265523478108
aF9.238553189961001
aF8.67079738391867
aa(lp23
F8.58687871196007
aF8.031995434444841
aF8.71255025367523
aF9.513247357790343
aF9.687210306809018
aF9.193744587629906
aF7.8954722733723095
aF6.041622896810696
aF6.048074407709073
aF7.038205909828208
aF7.745722852187943
aF7.907583097828318
aF7.4563724566899845
aF7.124672605507399
aF7.375604711510124
aF7.24049491052063
aF7.141802142324245
aF7.280963917755858
aF7.4994028160658095
aF7.935107060013685
aF8.35614218563092
aF8.65684454472679
aF9.172897494792723
aF8.756656983458734
aa(lp24
F7.846625597572741
aF7.332368850898722
aF7.141698557050337
aF8.171129976444494
aF8.689471431559923
aF8.374786642826853
aF6.961870248897579
aF5.144360654041394
aF5.266517370476488
aF6.287075099799606
aF6.890302224115473
aF7.346783823720124
aF7.1539691571923365
aF6.975446478044648
aF7.156440850950803
aF6.994506073488004
aF7.0559283266789325
aF7.391608139014948
aF7.687873485544204
aF7.878594574587815
aF8.291414428822593
aF8.712575440364047
aF9.198812316895035
aF8.748981848907448
aa(lp25
F5.681222801782965
aF5.555101696925631
aF5.7469531401193485
aF6.064711221224174
aF6.221533047167676
aF6.019737729864614
aF5.365841671624505
aF4.785973710699543
aF5.046128114167709
aF5.77315429312447
aF6.2658972596077795
aF6.652300551949466
aF6.67472856655603
aF6.768280374805616
aF7.066859230812321
aF7.102746337479425
aF7.109720041505052
aF7.365080210822562
aF7.607320747658304
aF7.783196580128788
aF8.265726772272217
aF8.780359811354668
aF9.211749840186291
aF8.710958699771107
aa(lp26
F5.447525853987563
aF4.487934918716956
aF5.529843486788754
aF6.0570492099817015
aF5.859443756890656
aF5.581439694496249
aF5.183077226278954
aF4.947349428491293
aF5.111313148585686
aF5.444938269554099
aF5.953792562253568
aF6.358741809589327
aF6.528233974899085
aF6.859054493676053
aF7.023844809642987
aF6.991995840827275
aF7.306248018870499
aF7.504825536723828
aF7.580694387217829
aF7.736025245333948
aF8.030991487209327
aF8.568807211973427
aF9.02382106598668
aF8.491932270606643
aa(lp27
F4.642424559567743
aF4.085552545585859
aF3.4278159906352985
aF3.9850788411266547
aF4.004390429238399
aF4.17742746328719
aF4.21038142040115
aF3.954276376069151
aF4.160925626158669
aF4.602608349480212
aF4.953766204016322
aF5.343193777366055
aF5.3015175180899865
aF5.234838427299054
aF5.637083251133863
aF5.799656408164944
aF5.939032110763112
aF6.017360027469072
aF5.9964936493780785
aF6.238331980952121
aF6.840883991122187
aF7.674696519342879
aF8.09845004776496
aF7.470471180697847
aa.