(lp0
(lp1
F4.464069396658128
aF4.2845533752280325
aF4.282199286697111
aF4.592597635173679
aF4.630454222573074
aF4.213172135903561
aF4.318030508119769
aF4.815029559944223
aF5.06337134518988
aF5.1823998306433525
aF5.680436966439676
aF6.105452409184034
aF6.250993129037398
aF6.307919349292231
aF6.532359657098411
aF6.669682767192492
aF6.716662772963802
aF6.91845224005741
aF6.990257971984177
aF7.145096859224014
aF7.72569241082311
aF8.40780029621321
aF8.952941721450077
aF8.46808589295578
aa(lp2
F4.790564660510426
aF4.147811913385783
aF3.815333321836056
aF4.815711128179793
aF4.977192698242706
aF4.620619796631673
aF4.8788119442835125
aF4.944055502803662
aF5.294742520008346
aF5.780787239997447
aF6.075626464419364
aF6.481073127245122
aF6.566013702058317
aF6.510430243092425
aF6.6500010166401635
aF6.863473216890806
aF6.894958945032626
aF6.930306083867514
aF7.303591499138364
aF7.500899745803248
aF7.801675898090551
aF8.562424245866863
aF9.035307846931733
aF8.454894721731604
aa(lp3
F5.258842363782852
aF4.799866297204762
aF4.607050147499537
aF5.408666553653307
aF5.7904445918135705
aF5.7421457024322065
aF5.921014108282015
aF6.231047798162158
aF6.810787631194284
aF7.295509604668504
aF8.456508390544027
aF8.60580918985608
aF7.785705882779568
aF7.145903937237732
aF7.071958870506116
aF7.118391198195809
aF7.263825314933272
aF7.465945261526202
aF7.573189176967047
aF7.726394391213292
aF7.940822115612923
aF8.667158700124755
aF9.210075740951957
aF8.672554127878199
aa(lp4
F8.483404178565946
aF8.132557073106646
aF7.019728584684557
aF7.1513828245555855
aF7.28982577638143
aF7.868443708705021
aF7.870053236259285
aF7.5455947386623095
aF7.954015811955132
aF8.329096017464234
aF9.752772033798626
aF10.049606092349617
aF9.355630710075472
aF8.572876175685016
aF8.652909440553929
aF8.384261739933702
aF7.09047453286554
aF7.26711435868428
aF7.717641941064352
aF7.92975716098567
aF8.16029047183538
aF8.731250688218463
aF9.201280378931116
aF8.678608574799705
aa(lp5
F8.364195121684258
aF7.677147913112222
aF6.452235425800748
aF6.942198969182581
aF7.661095911305812
aF7.555916993668132
aF6.509204194142596
aF5.82595531164392
aF6.134391946829544
aF7.030371422352909
aF8.295752469617124
aF8.88999309294936
aF9.008315529037668
aF8.970206603354976
aF8.728296536575407
aF8.022949723280298
aF7.305269779085928
aF7.446565074271604
aF7.709177763746893
aF7.89315321187681
aF8.31293563350248
aF8.910696560968896
aF9.287160785253022
aF8.713202867486494
aa(lp6
F6.476231857851188
aF6.241911869387433
aF6.449532246342256
aF7.497286844671119
aF7.801041541898942
aF7.477647949645974
aF6.81944116268658
aF6.165244700260465
aF5.9058300692011745
aF6.940382488887182
aF7.621946439037315
aF8.712241338111653
aF8.935652021330199
aF8.779726606488213
aF9.140179375367271
aF8.724810440395236
aF7.120437324173905
aF7.310386309563774
aF7.688490298210261
aF7.990880058718425
aF8.35764770701589
aF8.890669704214318
aF9.346486133741092
aF8.824304619129066
aa(lp7
F6.993052274647514
aF5.977098476723427
aF5.781747977121316
aF7.0941510346897845
aF7.651315457106384
aF7.316722132209966
aF6.251519142672646
aF5.629707998138341
aF5.56192790792794
aF6.843384221630076
aF7.549183541434031
aF8.760124415183363
aF8.902764790259617
aF8.933331493665001
aF9.765632680475795
aF9.467933782088181
aF7.487885699391085
aF7.37604042928569
aF7.540632805028222
aF7.905492707288502
aF8.431909098179622
aF8.869801244337504
aF9.280996858984427
aF8.786816868468563
aa(lp8
F7.099406091445179
aF6.2551841559611825
aF6.743751409246425
aF7.158588107262943
aF7.052143665888983
aF6.560681433550802
aF5.726288191968843
aF5.455535125815057
aF5.204697723385721
aF7.286260235999389
aF7.710859369828078
aF8.766949159007693
aF8.996908144124287
aF8.955470475413414
aF9.778671611488159
aF9.500521671064384
aF7.401495324067325
aF7.387734982984683
aF7.657723412320648
aF7.84477445260132
aF8.212018310189125
aF8.766412042593268
aF9.31049745992483
aF8.84412228868771
aa(lp9
F7.164231991840075
aF7.152076454262569
aF6.836234299623666
aF6.786992381636148
aF6.879457050709194
aF6.6779108637117615
aF5.804920791847001
aF5.670716283124745
aF5.51143827003441
aF6.627659420926466
aF7.322131342540335
aF8.569788565813742
aF9.012834179059228
aF9.95633735818366
aF10.19275944692692
aF9.274607074120095
aF7.544177337536795
aF7.439141507314194
aF7.738424951654048
aF7.900643090682378
aF8.247951308081081
aF8.805028285977212
aF9.364434297621905
aF8.901306039623273
aa(lp10
F7.776914878494233
aF7.508749830234166
aF7.134579449599378
aF7.263934207934504
aF7.111000496644177
aF6.390015360114007
aF5.655367912185643
aF5.498831406630419
aF5.294507996923446
aF7.059468594000486
aF7.669682176048265
aF8.647217864312552
aF8.786297511875798
aF9.465361787152794
aF9.673657703504839
aF8.681453469099768
aF7.394180451484087
aF7.374974767688052
aF7.589909814595912
aF7.860160165107392
aF8.335932159148438
aF8.840236289913763
aF9.272132743675261
aF8.751364586308878
aa(lp11
F8.424132156055668
aF8.480874591754517
aF8.713203771367883
aF8.797798327526177
aF8.191850980739744
aF6.680784842071915
aF5.007710129952213
aF5.0396771862380545
aF5.136942222570253
aF7.087349455983293
aF7.792800244761524
aF8.005566456860738
aF7.80713158157554
aF8.383282179350557
aF8.618859139541833
aF7.834530555589891
aF7.316452697619317
aF7.534865263879625
aF7.75205845818743
aF7.976253982759197
aF8.34917037172967
aF8.832505376763269
aF9.290785520984668
aF8.80096879076214
aa(lp12
F9.342139712053799
aF9.411846856638618
aF9.92350931678195
aF9.909393869172481
aF9.084551698273916
aF7.438783488959782
aF5.506726399140636
aF4.991247593307098
aF5.2845974665664786
aF7.676268135208756
aF8.611690389313468
aF9.375578573738354
aF9.181652128827812
aF8.38735982332618
aF8.469561996369377
aF7.7788960436251555
aF7.186960986770602
aF7.280438106060374
aF7.57082184841235
aF7.85021368842421
aF8.257904821201464
aF8.849619182966276
aF9.230636754449822
aF8.646657403193345
aa(lp13
F9.510419533706946
aF9.18995474664799
aF9.69761339968196
aF9.707314886897407
aF8.956340242607329
aF7.685073377621793
aF5.5637084059024975
aF5.245026781095728
aF5.212697317868663
aF7.785855763946069
aF8.908579416963029
aF9.372672701655272
aF8.923235822451794
aF7.851971551006977
aF8.245491839076584
aF7.85693273276176
aF7.027060451677165
aF7.391476737158093
aF7.631359112075961
aF7.727847441586004
aF8.281518067488337
aF8.706619834871786
aF9.220401194285632
aF8.823338115198096
aa(lp14
F9.407761445779697
aF9.103606048488386
aF9.704821463475191
aF9.812576403016893
aF9.188366558860297
aF8.051749591894868
aF5.93398172872968
aF5.245457805731974
aF5.160779036505484
aF7.591140473308847
aF9.018861694294483
aF9.631615120542717
aF9.212495915287528
aF7.9217342324919295
aF8.022737714635218
aF7.630705118823926
aF7.285388522295486
aF7.496390995855748
aF7.543159284643718
aF7.923468327357229
aF8.372995938368827
aF8.810548384447708
aF9.301522107463486
aF8.815253156451513
aa(lp15
F9.327415997535185
aF9.01888683330292
aF9.740111626281797
aF9.986333132316679
aF9.635466388617695
aF8.7782636586673
aF6.602392133773848
aF5.190350724210098
aF5.044637452367141
aF7.792484578756221
aF9.311212320530617
aF9.651792787692884
aF8.968455234634826
aF7.747566973018222
aF8.003798133915817
aF7.671632560800386
aF7.051702509770674
aF7.592309832077115
aF7.832209986733707
aF7.946407611611546
aF8.418183028764489
aF9.005734478128733
aF9.316515129674665
aF8.683998145437931
aa(lp16
F9.2511245176147
aF8.896702298017953
aF9.699539515723275
aF9.975675841178642
aF9.747620704442403
aF9.057559173311079
aF6.820300139755685
aF5.273093308661188
aF5.16582911881615
aF7.739947937260146
aF9.374488238676628
aF9.704534142974909
aF8.9210314759838
aF7.574111632976776
aF7.97185874190808
aF7.715299389215237
aF7.152737015675754
aF7.406323287712393
aF7.634745102895873
aF7.849098820343306
aF8.29003142092365
aF8.883384182824077
aF9.257305261695784
aF8.664296282794574
aa(lp17
F9.155847127044577
aF8.7147099078732
aF9.660490878346714
aF10.029452091962753
aF9.785805850327154
aF9.051142090675722
aF7.118591177299179
aF5.641409592168379
aF5.310871692904641
aF7.71470843828781
aF9.498394610537673
aF9.79035674638312
aF8.898949974038244
aF7.5482414700368485
aF7.991484183111485
aF7.776782465497314
aF7.335604566129384
aF7.339376354741237
aF7.408810986021734
aF7.92621911175171
aF8.427646120007557
aF8.840139904389677
aF9.201534810367441
aF8.66639113211766
aa(lp18
F9.036262430981079
aF8.653944169553272
aF9.707073803665116
aF10.188911507560343
aF10.229541340173347
aF9.669816182190841
aF7.366637298104746
aF6.083024031235036
aF5.233733755541571
aF7.723712434687077
aF9.554061060957553
aF9.84273226486326
aF8.913629878544068
aF7.435235549390655
aF7.719681451975099
aF7.485865773288846
aF7.263477027572982
aF7.475487739810017
aF7.735317007479349
aF8.025704268511733
aF8.406808519438187
aF8.798267634274843
aF9.17342015823853
aF8.64600739588632
aa(lp19
F8.579316011961964
aF7.972832852458547
aF8.797086615911603
aF9.566658184937506
aF9.675220973116064
aF8.962226640786897
aF6.938721724539676
aF5.379697034177349
aF4.776432197954543
aF6.721530323320097
aF8.874930833524767
aF9.148696124526186
aF8.095641427942704
aF6.296991415422656
aF7.036422758401449
aF7.207513814869871
aF7.241719891460209
aF7.443918113451859
aF7.688873479436573
aF7.925989340019659
aF8.231411849053314
aF8.699827019503514
aF9.249726420430472
aF8.815551792172002
aa(lp20
F8.095000721880549
aF8.034834113661471
aF8.700308495042387
aF9.402000329324133
aF9.869471165303976
aF9.46489053544872
aF6.99956290779378
aF5.535643422050524
aF4.772287385099831
aF6.9244774283452
aF9.115069590287566
aF9.432777636561015
aF8.451182894911994
aF6.632792823555507
aF6.67651989295195
aF6.722277231365171
aF7.110398209905999
aF7.323805475777131
aF7.5101033504310415
aF7.864484784576276
aF8.460653260968089
aF8.824096491257482
aF9.174582110506355
aF8.70440407788765
aa(lp21
F6.545567633882537
aF6.78508385244919
aF6.650873874329051
aF7.279671707638388
aF8.104405473347548
aF7.891024756682474
aF5.941676497066022
aF4.8086264301005395
aF5.0616030854947605
aF6.0271583461929445
aF6.5566301376822755
aF7.079271429083455
aF6.920055546627209
aF6.384421953013788
aF6.629809228203643
aF6.844052673672513
aF7.140637066907801
aF7.405568153387011
aF7.698240088915409
aF7.841329156150903
aF8.286733818570502
aF8.723868361792919
aF9.12426962504299
aF8.652203495773588
aa(lp22
F6.398148117512899
aF6.406338624977988
aF6.646782397088051
aF7.79569069051397
aF8.088998366333751
aF7.444145681200246
aF5.812013858707887
aF4.736454457031196
aF4.8811149654573756
aF5.403451582023529
aF6.083335088185089
aF6.765694753105668
aF6.76024132404524
aF6.43867547826885
aF6.57389762649247
aF6.821312322928387
aF7.140798194077743
aF7.299475424394855
aF7.553397995408505
aF7.799547703000587
aF8.313543565006103
aF8.961727752211804
aF9.353391090923704
aF8.784545366239467
aa(lp23
F5.311855535958723
aF5.559413117400825
aF6.062852832172234
aF7.391827773923344
aF7.999601701275045
aF7.564717765617094
aF5.727228652730693
aF4.727640829715838
aF4.6251799938103115
aF4.926801988634074
aF5.942502370353475
aF6.970890568543399
aF6.963384950245127
aF6.542373516004648
aF6.714863391992374
aF6.916006965462637
aF7.038138987703025
aF7.275363987531931
aF7.697106093547376
aF7.824263774235231
aF8.18063538233592
aF8.729809987405222
aF9.159809707021111
aF8.649142138868838
aa(lp24
F4.572342726974206
aF4.611494566031293
aF5.175821400860531
aF5.836263858204373
aF6.1057728961579345
aF5.692019168463015
aF4.604393009380721
aF4.771821080056806
aF4.985882731822777
aF5.491573187493188
aF6.002164964787195
aF6.4087694604872745
aF6.702260151581015
aF6.609861636555624
aF6.509283533213706
aF6.901466241015601
aF7.2284984420365985
aF7.450200994965628
aF7.530229062885249
aF7.588267703152728
aF8.057037639216121
aF8.713879466107505
aF9.07488907904349
aF8.460229362269832
aa(lp25
F4.961393779026318
aF4.457524940790002
aF4.899389401430843
aF5.63516305388141
aF5.530539131506598
aF5.146257264146635
aF5.012966484766779
aF4.8122732569570505
aF4.769101287049876
aF4.988253677005685
aF5.62871599553047
aF6.215373042497122
aF6.318008675210308
aF6.434413350940895
aF6.627715229171623
aF6.8178511569665154
aF7.019357631468786
aF7.197186436323398
aF7.521628756072137
aF7.504070793706879
aF7.711330363305286
aF8.479109753324263
aF9.193045897036171
aF8.78352340229129
aa.