(lp0
(lp1
F6.54196410430518
aF5.364264714888176
aF3.7846953570311928
aF4.27691887520267
aF5.02719718692337
aF5.303849806701829
aF5.384311615569254
aF5.632604961221175
aF5.671581328190127
aF6.04813310193301
aF6.232678435068432
aF6.603538063528466
aF6.937344973512718
aF7.030277723552203
aF6.994790074500285
aF6.93582634003255
aF7.023278087494611
aF7.13313179704989
aF7.508871695857991
aF7.8212016389083425
aF8.05233287010735
aF8.732691721706503
aF9.23107609372062
aF8.664780207150262
aa(lp2
F6.7654561385809115
aF6.790179188958195
aF6.370363941868392
aF6.262346128315307
aF6.781515146485663
aF7.107873313132122
aF7.083889691564809
aF7.086330023800121
aF7.383263375734157
aF7.951429567851032
aF8.656932117076968
aF9.285269572801157
aF9.111416657081017
aF8.400751880831477
aF8.113811849406998
aF7.393796213674441
aF7.158368539490685
aF7.189063909343462
aF7.55782077668263
aF7.823467464735445
aF8.1484297907742
aF8.693067513600665
aF9.248995084974753
aF8.811168172422947
aa(lp3
F8.04786439451637
aF8.198919857244496
aF7.787750142297452
aF6.756370336881362
aF7.08983285599005
aF7.321018127295863
aF7.404926731744489
aF7.4675422290758515
aF7.931916384546986
aF8.330873931592151
aF8.512184990329882
aF9.03855871272295
aF9.325633414478531
aF9.205354776950998
aF8.97728367511884
aF8.357935229027564
aF7.174692949009265
aF7.439756823763264
aF7.767356922993557
aF7.837432207906081
aF8.19432834721533
aF8.8378163978625
aF9.270489756198176
aF8.72401080133516
aa(lp4
F9.917379545232066
aF9.53037091884032
aF8.655854973134353
aF7.47336506239854
aF7.127817833505863
aF6.980652419271589
aF7.9150683997466045
aF7.924506929333527
aF8.511296789600602
aF8.643084111622308
aF8.989489281485863
aF9.131387519052284
aF8.484580838682321
aF8.619537585938845
aF8.582188563382447
aF7.829808785022595
aF7.00376661284862
aF7.335990239272827
aF7.642621052125691
aF7.880704995456924
aF8.504854975032359
aF8.916333810318504
aF9.208054613461178
aF8.706326125738935
aa(lp5
F10.218244042349895
aF10.064690687636109
aF9.470677742475162
aF7.749104492326689
aF7.586724282960982
aF7.756573038266223
aF8.815956998175821
aF8.856693289040876
aF9.076756246529287
aF9.174665143857084
aF9.942244103380258
aF9.9105447435898
aF8.062472610974957
aF8.551898345133043
aF8.880784234553557
aF8.276447427496176
aF7.186853206458191
aF7.301738956032775
aF7.613649284392177
aF7.888907479179033
aF8.324829759200652
aF8.777632738535855
aF9.1367495654336
aF8.604343820843857
aa(lp6
F10.299816629350444
aF10.275522274196936
aF9.71564783132154
aF7.989449303481756
aF7.926503326323165
aF8.392040811054105
aF8.843114056056086
aF8.64847107973815
aF9.172154802588468
aF9.275178343011588
aF9.810062380648
aF9.72683238200551
aF7.533734940156575
aF9.196204192635523
aF9.6926999878791
aF8.901707553228324
aF7.091003769755254
aF7.487142452625391
aF7.689543791211044
aF7.992245105930625
aF8.490986889404455
aF8.936551205863395
aF9.25936394058197
aF8.698174842927827
aa(lp7
F10.264769437850035
aF10.176198404635588
aF9.638217744966282
aF8.468427057772502
aF8.044120706697457
aF8.430685176539608
aF8.919163790354505
aF8.689765439923438
aF9.042690229297385
aF9.111802098986042
aF9.815567525849728
aF9.72201722656248
aF7.400059272673814
aF8.851822684212387
aF9.324007019586098
aF8.57952062209306
aF7.156180519838364
aF7.534648971104186
aF7.794694338345858
aF7.980900266911531
aF8.550451442784578
aF9.030972926858146
aF9.31349940996154
aF8.743425333226622
aa(lp8
F10.150034574914464
aF9.884396360402535
aF9.24301303093202
aF8.31381559143869
aF7.770841306818485
aF8.665479580728917
aF8.994604067747629
aF8.567792978798296
aF8.417847335910801
aF8.497711926235157
aF9.645750433881922
aF9.575685082363005
aF7.171682767692664
aF8.398499599071421
aF8.933488565020593
aF8.26324756055582
aF7.092655143993864
aF7.451692586162891
aF7.675170277789917
aF7.851875393398202
aF8.431192543287173
aF8.882293672450377
aF9.160557312846837
aF8.612752944271518
aa(lp9
F9.749920540329219
aF9.869500382857934
aF9.452989209287653
aF7.980991677596161
aF7.649274183572635
aF8.654045857428935
aF8.891987547382817
aF8.325191076178248
aF8.51914354673474
aF8.637155933575187
aF9.608848447654662
aF9.556909967529098
aF7.192499664928045
aF8.400423026574154
aF9.043312895987526
aF8.470094426954143
aF7.130250022404524
aF7.51953585078378
aF7.748536272235031
aF7.990548722904929
aF8.44760547724804
aF8.913836912805234
aF9.354734176945236
aF8.87180730206198
aa(lp10
F9.12684551111127
aF9.282692677350976
aF8.996919052298729
aF7.69298417745718
aF7.001892523546848
aF7.459959029380432
aF7.720587745961456
aF7.376568149407269
aF7.499686944580103
aF7.534597996046166
aF8.319884473088111
aF8.325215579814929
aF6.927092790056351
aF7.636265154725831
aF8.083608659612636
aF7.584209147731422
aF6.9257581043631475
aF7.130403699999502
aF7.638627752585146
aF8.020966648905677
aF8.396717773954759
aF8.871641122258632
aF9.225580268955419
aF8.659898431334883
aa(lp11
F8.001435291092182
aF9.234446904144082
aF9.14398692922378
aF6.4840254234875445
aF5.900971256849142
aF6.762842838488697
aF6.9945431449264674
aF6.595244034733223
aF6.848885572312089
aF6.7452322880730184
aF6.905149568719715
aF7.154321038420543
aF6.71434924016783
aF7.0856777418335435
aF7.397636798432668
aF7.192195277881082
aF7.093357804038204
aF7.455171692764137
aF7.612334711405685
aF7.768333734910357
aF8.299485785706187
aF8.8227023551422
aF9.254053178490137
aF8.743065916071895
aa(lp12
F7.0436678871239335
aF7.544558649704926
aF7.028620387807462
aF5.75366469685831
aF5.793631229193994
aF6.4430553294838795
aF6.401578533554877
aF5.9978942231426835
aF6.354224277125756
aF6.351387914157523
aF6.844830468185097
aF6.935474951596531
aF6.457569380481408
aF6.769435653983574
aF7.146159982036263
aF7.118409943669373
aF7.083713829349732
aF7.451706046491901
aF7.662142176236555
aF7.855970211212761
aF8.26243873972853
aF8.934862543439483
aF9.288528128199015
aF8.633589559238423
aa(lp13
F5.300568867243502
aF6.261949739935526
aF6.124455189728321
aF5.30378557485704
aF4.9857144340110775
aF4.942061731309799
aF5.435093584035034
aF5.487118666476375
aF5.665266654487753
aF5.833945812552335
aF5.936524229656406
aF6.009675817929537
aF6.2076095357987535
aF6.563756420056377
aF6.623414604854411
aF6.80023324572526
aF7.153041903314266
aF7.323105329198608
aF7.532471056519615
aF7.822161101794032
aF8.200775290452253
aF8.789368010669639
aF9.289161631101184
aF8.78189197028469
aa(lp14
F5.027538693233067
aF5.368544503824768
aF5.098163498796899
aF4.841443942313164
aF5.263491460727673
aF5.368759563650013
aF5.386454474823756
aF5.418249109797117
aF5.165908417555636
aF5.638726194933272
aF5.960494024390186
aF6.238419284081859
aF6.366321467826715
aF6.742444992712735
aF7.08870670199645
aF6.999861838142777
aF6.9182864095646215
aF7.124592691064995
aF7.414771146503759
aF7.590109349921877
aF7.996245767614812
aF8.622911261270005
aF9.140831859758409
aF8.651446622025393
aa.