(lp0
(lp1
F5.627957771527029
aF4.196171752852786
aF3.92239187556744
aF4.779538864994166
aF4.965277700179642
aF4.699603604297348
aF5.3390815612138
aF5.639903395141362
aF5.637690680364095
aF5.9170589998893295
aF6.483235999226739
aF7.050431131046583
aF7.0979236340096366
aF7.061403743420461
aF6.972221390387491
aF6.92208792141898
aF7.131399898387732
aF7.251528190961248
aF7.614626022015212
aF7.797896153716346
aF8.14373650436417
aF8.776867978255757
aF9.209729592624297
aF8.659278890841978
aa(lp2
F8.029794176308805
aF7.835108804913192
aF7.260217500987097
aF7.117412907965724
aF7.820163562114938
aF8.512745729308122
aF8.470140975563353
aF8.241805736628939
aF8.680323249400614
aF8.971095446005423
aF9.641584859396895
aF10.523260748321574
aF10.456964592670905
aF9.811401725910489
aF9.79480349114541
aF9.143665501239235
aF7.2896187045450205
aF7.660065122181207
aF7.729080699343221
aF7.788298914612546
aF8.171054332362512
aF8.847993528691394
aF9.22628471564455
aF8.568115056074747
aa(lp3
F8.558815490257366
aF8.180836414272983
aF7.107995393382189
aF7.585824996658769
aF8.205410854203167
aF8.020927428524447
aF7.263561907527853
aF6.90673102540614
aF7.07409155958602
aF7.758747172651589
aF8.128581951990698
aF9.38875551090756
aF9.822273172905708
aF9.994866927907934
aF10.017112390896667
aF9.22141160359885
aF7.552435417680209
aF7.557382722140345
aF7.743274387255425
aF7.905004169794137
aF8.392474964286484
aF8.971816528402554
aF9.346666381011175
aF8.757771754443452
aa(lp4
F9.046177376999438
aF8.294131402149679
aF7.229744378682874
aF7.522154785122591
aF8.031503470287598
aF8.132899445481781
aF7.680714052287754
aF6.709154899797183
aF7.419425505186835
aF8.121461981270667
aF8.363945045798282
aF9.216908536295687
aF9.467125781554257
aF9.939870217902188
aF10.360125011312919
aF9.804101793764309
aF7.8494985767015235
aF7.36104679004862
aF7.613266413759238
aF7.866649685713053
aF8.334145913772115
aF8.722816301937629
aF9.179019232481982
aF8.719536679634665
aa(lp5
F9.449145948259849
aF8.635128636032501
aF7.61106694942905
aF8.02943668182591
aF8.3304278044955
aF7.980779071504125
aF6.891602949551739
aF5.7963304273369145
aF6.797744116448792
aF7.410327946182774
aF8.015055532916797
aF9.399566264858434
aF9.491630595006228
aF9.602862751372243
aF10.226112970272169
aF9.814626765958689
aF7.9173839177524865
aF7.313092610581009
aF7.677822032237387
aF7.8731565845535405
aF8.365014520309924
aF8.8682411022921
aF9.207670633674441
aF8.664495820164126
aa(lp6
F9.53134592765629
aF8.744830298444317
aF8.017588522668468
aF8.40493370917557
aF8.135311427307418
aF6.960589736808925
aF6.441778999379915
aF5.964673039593153
aF6.341346913209702
aF7.549530711402827
aF7.8530955386129015
aF9.180718574067502
aF9.504624052994725
aF9.61143445814422
aF10.216005833545685
aF9.86939088410682
aF7.879785158156431
aF7.2768801552917
aF7.661337837144816
aF7.890446288353777
aF8.280618741439284
aF8.65631659992923
aF9.094214269647756
aF8.645849047414712
aa(lp7
F9.179554325094827
aF8.617937971979217
aF7.677558371934288
aF7.928323587976601
aF7.693214978024395
aF6.755111776606495
aF6.036214036859606
aF5.756069314101045
aF6.427918655188901
aF7.613607153754688
aF7.786440683145974
aF8.689780722632857
aF9.110985920961935
aF9.531679433306003
aF10.132333576720299
aF9.758506334416323
aF7.8793961018289895
aF7.384141889196595
aF7.5715656287392505
aF7.931220634982509
aF8.318861020489585
aF8.749187988957614
aF9.119464570179025
aF8.545719774122414
aa(lp8
F9.89275220929031
aF9.38515794384088
aF8.7112979917741
aF8.50768774847695
aF7.757931752947294
aF6.838579847999591
aF6.046974677405018
aF5.449908363883634
aF5.893878710353949
aF7.9873128650098355
aF8.286028657301095
aF8.80246611751245
aF9.145792786272038
aF9.701181916419602
aF10.275655255868676
aF9.820724020089038
aF7.718233880364567
aF7.322189524928489
aF7.781934950565713
aF7.9591700805606065
aF8.382877055322608
aF8.79981399001948
aF9.398771829889393
aF9.031545717881729
aa(lp9
F8.843529291960374
aF8.229549713453538
aF7.826896410670862
aF7.6370598182567
aF7.293828819064391
aF6.755648348980966
aF5.917597966680773
aF5.323329107906976
aF5.712630112952256
aF8.038010059174535
aF8.36529834837039
aF8.982939062918085
aF9.283568636076355
aF9.72818258515893
aF10.250622252794143
aF9.750323922322412
aF7.6250389336580096
aF7.373732143502051
aF7.650794891075868
aF7.79406710126699
aF8.347514341901249
aF8.824681667196861
aF9.254769324641465
aF8.79174599204022
aa(lp10
F8.190777250395364
aF7.514866075192862
aF7.043770928047864
aF7.519244195913333
aF7.072856350895042
aF5.978897805582792
aF5.635840763831868
aF5.134285294430814
aF5.512160730781313
aF7.47565057299181
aF7.946798719215665
aF9.266624570633041
aF9.600474480631588
aF9.87939347667561
aF10.317483113919703
aF9.770026965975562
aF7.608835408496566
aF7.423684918432389
aF7.76044526773106
aF7.996886305356782
aF8.362871956370432
aF8.832618982321852
aF9.323367467154794
aF8.856232243461678
aa(lp11
F9.639586120708733
aF9.501148208824032
aF9.859600714018741
aF9.886555318637793
aF9.189357682483783
aF7.530293225337576
aF5.805309031532666
aF5.456428503638361
aF5.533318045213328
aF7.952757099193532
aF8.42334020124204
aF8.988545913465527
aF8.985348656544533
aF8.724244690539969
aF9.220707687153503
aF8.798114963901405
aF7.426804877846226
aF7.333650078860776
aF7.520907259326576
aF8.004250394843375
aF8.469839282961955
aF8.851115403179238
aF9.27965436971091
aF8.799914756649672
aa(lp12
F10.10031531648426
aF10.17858380252339
aF10.511621188618085
aF10.490320850397037
aF9.868885564910828
aF8.151745900308363
aF6.304677273753917
aF5.80651909174034
aF5.825406617651006
aF8.805210563442916
aF9.188402097168627
aF9.443810885436958
aF9.233423163325739
aF8.85256665784349
aF9.338177177944088
aF8.696776553958061
aF7.343675237210352
aF7.508905224228841
aF7.695284988575649
aF7.948531211224479
aF8.566023629584315
aF9.051638548453687
aF9.30015028975833
aF8.70635711600144
aa(lp13
F10.151407485216382
aF10.087534449310771
aF10.483840576713298
aF10.56199207468315
aF9.97977816461119
aF8.473115924071266
aF6.221109284656327
aF5.67389606916849
aF6.195923990149185
aF8.980487659406961
aF9.43490848760271
aF9.552888005919865
aF9.195145524293206
aF8.474378529625229
aF9.045275950499367
aF8.51460273773076
aF7.201485653111406
aF7.335430327251509
aF7.500908819790315
aF7.773298192001268
aF8.52747777803371
aF9.042223646167368
aF9.299641501496916
aF8.728765936753105
aa(lp14
F10.09043366183529
aF10.009803117428651
aF10.540368170757255
aF10.716085962911025
aF10.153097264308876
aF8.643003664607841
aF7.074350327949657
aF5.932952530554198
aF5.888506870474876
aF9.034702132707165
aF9.457496458319026
aF9.16083565476064
aF8.570141388292159
aF8.273239142116969
aF9.105082027371425
aF8.721137258558844
aF7.22011309093861
aF7.385001944275416
aF7.529024577383847
aF7.765874548166645
aF8.63231929173618
aF9.00353608554179
aF9.255414625721121
aF8.786668107698425
aa(lp15
F9.96504116457674
aF9.834928226608522
aF10.55263093694303
aF10.803802039861846
aF10.285792900840345
aF8.97103003257245
aF7.310349645696813
aF6.101861664319888
aF6.280333678720105
aF9.347394776291539
aF9.781622670283355
aF9.324498695855548
aF8.511173285917517
aF8.234020251842686
aF8.961083945016773
aF8.532556549624672
aF7.259246039906392
aF7.390984161227668
aF7.6056381039593015
aF7.966259270870473
aF8.514552635785495
aF8.76918890231315
aF9.00189219445158
aF8.49038453807036
aa(lp16
F9.86156979541713
aF9.707188262798882
aF10.436475707400938
aF10.768978343104726
aF10.38987885754737
aF9.239420710507865
aF7.232695775795856
aF6.078969204040151
aF6.373913981571394
aF9.31331193003104
aF9.801439621875312
aF9.280134593010251
aF8.226744131725704
aF8.27062116062738
aF8.935723166326904
aF8.42291090627803
aF7.004979259319612
aF7.282522065833234
aF7.7680791353129015
aF8.048266980787378
aF8.578850985672599
aF8.956867870192474
aF9.209696642641951
aF8.688970866132816
aa(lp17
F9.757586364000066
aF9.499245936090094
aF10.284740821018032
aF10.727226446997324
aF10.560578138213705
aF9.729103036767995
aF7.566439303307174
aF6.043278202297789
aF6.540481257785305
aF9.099444056865334
aF9.879856276831129
aF9.550205413441114
aF8.133013944170088
aF8.449893982088822
aF9.256279487448671
aF8.823864759136141
aF7.188524506872532
aF7.401899133122178
aF7.691698926690665
aF8.02494379678423
aF8.599043574693274
aF8.876222949962152
aF9.282159111603079
aF8.883567669669429
aa(lp18
F9.659968718446173
aF9.353650218123494
aF10.288938783850194
aF10.827651430177857
aF10.754935115250783
aF10.025742789447044
aF7.984478885775987
aF6.65716137055494
aF6.687776379929508
aF9.511043476739012
aF10.22932969183804
aF9.751359266102247
aF7.9371194874204045
aF8.656666971170228
aF9.170009752489074
aF8.459264627722675
aF7.2626671316288824
aF7.592843256831128
aF7.760049776785009
aF8.094755277652803
aF8.63508398455758
aF8.801003483795562
aF9.095136924167232
aF8.66999065513472
aa(lp19
F9.504972309373851
aF9.127113813095846
aF10.208864229052152
aF10.784459610201132
aF10.790600276184357
aF10.179329995186286
aF8.270196880218837
aF6.861885366680428
aF6.643431387196114
aF9.421322843096275
aF10.210951848738894
aF9.767772790962814
aF7.757648627950826
aF8.055643275395976
aF8.766369975754928
aF8.291312440725138
aF7.062194005514508
aF7.227050317509871
aF7.511614348520159
aF8.055157793783122
aF8.592328918661751
aF9.0350957773336
aF9.256229222685237
aF8.592018094418382
aa(lp20
F9.259689098326435
aF8.866735320100814
aF9.956421652105872
aF10.649370181593168
aF10.84312047728314
aF10.296599389065255
aF8.162985398304029
aF6.870823428041877
aF6.826600798436054
aF9.222598534520182
aF10.104322241165319
aF9.74150017415523
aF7.766098483044711
aF7.638539486271654
aF8.379674369638254
aF8.004770574155007
aF6.9346837399341315
aF7.243540817331498
aF7.533566641217186
aF7.83659234030416
aF8.568949495190749
aF9.013542991214715
aF9.338444434806396
aF8.836975993901893
aa(lp21
F9.018211235072602
aF8.543781540209116
aF9.596501124607316
aF10.306181903780761
aF10.68006391356117
aF10.262069858085628
aF8.11120159373635
aF6.877456408946425
aF6.693075074116378
aF8.388882148287012
aF9.422179679218141
aF9.186045412722702
aF7.384627199029502
aF7.238391277251212
aF7.708112989915795
aF7.428049628799058
aF7.1885895366422385
aF7.415168686661769
aF7.8171918058286405
aF8.157617415195384
aF8.51127962307127
aF8.773119102334222
aF9.29167862742671
aF8.90969023924034
aa(lp22
F8.617697696418444
aF7.954819440069906
aF8.556304349627158
aF9.426799416447905
aF10.047001713665805
aF9.726899815487595
aF7.882357942520976
aF6.535497967698964
aF6.267433374751133
aF7.596363085546382
aF8.67994006337512
aF8.552333140236145
aF7.144535770008635
aF6.754857162947952
aF7.234680538655682
aF7.192491583784826
aF7.257788498592998
aF7.515510387178893
aF7.824726653274263
aF8.012561913331066
aF8.338356501460781
aF8.819778851987754
aF9.208903407245128
aF8.68201863171359
aa(lp23
F7.832311617953266
aF7.454544519598622
aF7.349630896037514
aF8.717596249728095
aF9.482554373123609
aF9.124424260181314
aF7.06034983989562
aF5.947297140103228
aF5.915484314355982
aF6.538846888388136
aF7.857611425896699
aF7.883506262036342
aF6.57641561361492
aF6.547094798270511
aF7.003779778213827
aF7.015365916336576
aF7.100640237586721
aF7.361012011600129
aF7.558614914301563
aF7.87364863137119
aF8.372370295086109
aF8.93622232046639
aF9.306135149423131
aF8.721596141172709
aa(lp24
F7.978764823817342
aF7.953506882672504
aF6.887999148247151
aF7.722283442529141
aF8.29434761054696
aF7.971657533152635
aF6.709364933310637
aF5.28034870100409
aF5.644789641469793
aF6.006282757306116
aF6.554555571727408
aF6.70066408067354
aF6.438083518687689
aF6.586181674339112
aF6.933051745718361
aF6.97635318805777
aF7.063220921124301
aF7.3924172016324725
aF7.589387719157743
aF7.815745023241063
aF8.229196886036116
aF8.833033292119461
aF9.32649824787091
aF8.808114013247229
aa(lp25
F5.585642145671241
aF5.5181234791685
aF5.223250399169766
aF5.900402376164062
aF6.426974113922537
aF6.33946753066728
aF5.671713937340326
aF4.849639341560471
aF5.133451825134574
aF5.826665610983552
aF6.1815464762878864
aF6.268926803346012
aF6.425972509429751
aF6.58016599606886
aF6.916084967645276
aF7.095565410718454
aF7.284305520489337
aF7.325785437360677
aF7.540792673301942
aF7.807762851753496
aF8.025598325732169
aF8.677436581728259
aF9.166837560600648
aF8.620008816311472
aa(lp26
F3.6566945877956
aF4.608666750706635
aF5.050143940498191
aF4.559577689041446
aF4.833570157962461
aF5.054323075871718
aF4.459400227249751
aF3.976781115961673
aF4.32788025539648
aF4.753560905823404
aF5.051945781020571
aF5.2510375271625245
aF5.241826398729432
aF5.549886527112566
aF5.847443053535743
aF5.797777287447055
aF6.103925926915877
aF6.5107075066374485
aF6.488203171522173
aF6.360876767334141
aF6.757226798618358
aF7.384376630358563
aF7.966620825233174
aF7.512194221818583
aa.