(lp0
(lp1
F37.092724237712225
aF-2.3052334745408656
aF0.35654620473069365
aF-1.2892412665807982
aF1.4511656136785898
aF-0.14627733584691782
aF-0.9664778227819835
aF-0.5746283711942193
aF0.16654570818586154
aF0.5262166172753623
aF-0.2031346443271503
aF-0.39332196374997325
aF14.671946364677009
aa(lp2
F48.36504626531737
aF5.531444386469394
aF-0.3745484100190517
aF0.8843272421396349
aF2.2351459029077105
aF-1.6598911594453183
aF-0.41948746191732733
aF2.8481922987289665
aF0.779280300817153
aF0.7694156862290195
aF0.8966041573171185
aF-0.5232900361508388
aF17.888171544194815
aa(lp3
F34.00506975141928
aF-6.484107178525684
aF-0.7834574808527685
aF1.6068737972637996
aF4.829437353827058
aF-1.0392367015717707
aF-0.2913975440787935
aF0.760515138438842
aF-0.8252532336226904
aF-0.6215648366349186
aF1.0615740755719916
aF0.830490459947701
aF17.14885519446719
aa(lp4
F40.85373658397725
aF-1.1667632529426328
aF-0.9772341671377585
aF-1.410106487838204
aF0.7362982792171966
aF-1.1133878563306943
aF-1.7882499453919212
aF0.5542022750560942
aF0.602895860179751
aF2.0633585296244927
aF0.4428522646656006
aF-0.09998933608356919
aF16.86673141364039
aa(lp5
F42.15720475409809
aF0.1222471736696209
aF1.9871930138377463
aF3.665085325645148
aF4.5381160173801725
aF-1.564170677235184
aF-0.26190325375379353
aF1.972854024303343
aF0.18626754864247777
aF0.1446482459063544
aF0.869886308576067
aF-0.202863499288699
aF18.619978142755407
aa(lp6
F39.779115068406
aF-2.405359844291756
aF-2.829887102567964
aF1.1308594161036438
aF1.9884079890757618
aF-2.97246014556703
aF-1.7549125370046101
aF-0.33612550951256626
aF-0.8287739573298005
aF1.2426887200875663
aF1.2321332108222973
aF-0.4870144836736874
aF17.742462677546907
aa(lp7
F40.38276198043346
aF-1.8568258281932866
aF0.729427480684122
aF2.0732205044496945
aF2.5307756722360364
aF-1.254058321708097
aF0.5906353485083415
aF0.683669992815342
aF-0.7535368626772091
aF-0.31947137625436595
aF-1.2970086040398976
aF-1.7751598270261713
aF17.48743891358688
aa(lp8
F43.86227504544177
aF0.79476681169177
aF-1.4253908667810467
aF1.5931490118714156
aF4.5724401207393095
aF-2.4280244610788126
aF-0.9291125810402621
aF1.463498809271932
aF0.10310511451490639
aF1.0146074878054532
aF0.6570796683561035
aF0.55826962397096
aF18.179874623888097
aa(lp9
F40.513026585935755
aF-1.8748999557362922
aF-3.234876634047696
aF0.02806155758328699
aF2.996233168237219
aF-1.9487203246055165
aF-1.9975738398852498
aF0.4689955053144098
aF0.1055324194002406
aF0.1961869315470401
aF2.5921701299598006
aF0.13480458427157396
aF17.62844072915474
aa(lp10
F38.245285619225506
aF-3.4936260531300807
aF1.3639780997122015
aF2.875517009795006
aF3.609688791283932
aF-0.9109133098550097
aF-0.7479372464313232
aF-0.18409877820043508
aF-0.17192634142369373
aF1.2897835603546426
aF-0.7276380015116625
aF-1.1520938973891708
aF17.01222254527521
aa(lp11
F40.28319901349897
aF-3.4137503031997785
aF-4.665154844618248
aF-0.5452008878641642
aF3.25487788432796
aF-1.337612662216911
aF-1.4282376418626135
aF0.028072546065766396
aF-0.529798585108239
aF0.4695260438524856
aF1.1568503414914906
aF0.662178923189816
aF16.012917535271715
aa(lp12
F48.511953863561786
aF10.587537312954993
aF8.727034164348122
aF3.6536725194384165
aF3.4338727117717847
aF-3.0163308106660027
aF-4.864975588754094
aF-2.5779799174895275
aF-1.2651998278200944
aF0.9928963596863267
aF0.8958433589296874
aF-0.3659633389350293
aF20.84276934932724
aa(lp13
F45.09259095778736
aF0.6427657511290774
aF-3.2109561183811346
aF-0.3282989550705582
aF3.1714701054457466
aF-0.7598961305807015
aF-2.4343013601011423
aF0.4225182167865982
aF-0.46859510659042475
aF1.735044269929382
aF0.9826218321827008
aF-1.1437510552445598
aF22.10183135882656
aa(lp14
F43.47946705655753
aF2.6900483828039867
aF2.0634894178646612
aF1.1089859540139297
aF2.737431892977073
aF-2.222573510658482
aF-2.846893962360038
aF-0.7645185993157521
aF-1.2667075717193184
aF0.9856596025832147
aF1.346273062888001
aF0.1122208437814774
aF22.31475139848449
aa(lp15
F45.36044330742089
aF2.505012679090299
aF0.5986316550352446
aF-0.1407277985770179
aF2.46975740575086
aF-1.0129384900111547
aF-1.5141366993988399
aF-1.0807377084266967
aF-0.23290514495660852
aF1.4181843637531233
aF1.4660499710934136
aF-0.0702167194330052
aF22.425839398978397
aa(lp16
F44.33694102103577
aF3.2428608715965552
aF1.9078261517905921
aF0.27866577399523595
aF1.5881533639358496
aF-1.9959837318742764
aF-3.4137708760732406
aF-0.44998995515384166
aF-1.121127563313904
aF2.2533176958048218
aF1.4447922987828983
aF-0.6829782043980352
aF22.57206428444555
aa(lp17
F45.94371328449788
aF3.3718608873272045
aF0.5493736295316396
aF-0.3136447555075052
aF1.8995782554408054
aF-1.9466585871146371
aF-2.187265107240817
aF-1.41671396747009
aF-0.6004549494234451
aF1.774217695307797
aF2.05345792985412
aF-0.6298707979553932
aF22.69647488118098
aa(lp18
F44.39811373642791
aF3.4289685432216257
aF1.4400905491950908
aF-0.604097973344596
aF1.3387981430097018
aF-1.5895891681354335
aF-2.553583163840341
aF0.4328804192064504
aF-1.0776590178415666
aF1.7188013890857108
aF0.6697153158165507
aF-0.42629912405336157
aF22.615239718893136
aa(lp19
F46.71239032175355
aF3.284610381884507
aF0.3175814219728079
aF-1.139452495393044
aF1.9077642484667923
aF-1.9328822025773886
aF-2.1178849167879497
aF-1.1613765136818341
aF-0.8344385589543186
aF2.1299126787084353
aF1.4870889118427473
aF-1.1326763210479251
aF22.68475701330299
aa(lp20
F43.69676599474174
aF3.691421366394689
aF0.5195397103481454
aF-0.14296463409466087
aF0.5583091622477792
aF-1.9461390101328047
aF-3.1174463159581185
aF-0.4186880544437859
aF0.3710962056801662
aF1.8769150052879968
aF1.211918875677394
aF-0.1724834799946664
aF22.664284479796358
aa(lp21
F44.37925060500472
aF2.7818316278964748
aF1.7841088048536684
aF-2.268205921238474
aF0.7449078608693244
aF-2.066980841875938
aF-1.7346552080097992
aF-1.2546100218255538
aF0.09274015771190366
aF1.880707909303005
aF0.6448875218374959
aF0.1625714912771694
aF22.68227341001407
aa(lp22
F39.83177481880233
aF-0.9480031609562909
aF-0.3229090240351492
aF0.34656105355355304
aF1.6393074897846247
aF-1.7421676666317798
aF-2.5642918541737694
aF-0.9822255673980211
aF-0.5193154735383956
aF1.6754455961025956
aF1.7961791601315387
aF-0.9317744196699732
aF20.85745118086716
aa(lp23
F37.46699879764947
aF0.4512270187921086
aF4.0318624513427
aF-1.0463894473180955
aF-0.2981494257982411
aF-1.3752571897868875
aF-2.4073166892937365
aF-1.5420355632182188
aF1.3925569116370544
aF1.8106819383485997
aF0.34562580792582553
aF1.0568889567995237
aF20.097464449096314
aa(lp24
F25.099688109264726
aF-12.001854442907437
aF1.23278516672921
aF-1.2649020948096499
aF-1.941413226021726
aF-2.7196471842139127
aF-0.9492425579704773
aF0.5013928410252436
aF-0.013623812016655135
aF-0.3492648639149014
aF0.7505526192680856
aF1.79591831387895
aF16.00231256590292
aa(lp25
F35.24088948263058
aF-4.1652255862963266
aF0.00849456514151914
aF-0.23244939383166696
aF0.999962174861895
aF0.734760068607613
aF1.5254564257962246
aF0.4273852699737579
aF-0.9075251377657576
aF0.09266998930745896
aF-0.740109222733364
aF-1.27910043150977
aF12.592588635157961
aa(lp26
F17.92179132292113
aF-4.1908347955682785
aF1.1445109469795056
aF0.7065367064158624
aF0.6875622112833127
aF-3.2213413046472734
aF-2.3547847578481926
aF-1.3851116141576112
aF0.3675146178581306
aF1.4322055938272702
aF0.4356936104402529
aF-0.1320362494387739
aF10.637317441608099
aa.