(lp0
(lp1
F37.71402654691799
aF-2.936318261784933
aF-2.0118533371997906
aF-2.3948932243996004
aF1.4276718339950385
aF-0.17868810562837156
aF-1.0309996620137718
aF-0.15379357703079893
aF0.24298779857235123
aF0.34129593457761714
aF-0.3783434915657143
aF0.032139990801489736
aF13.734549459636966
aa(lp2
F56.17795682318651
aF9.328427753332106
aF-1.0513037760026496
aF3.44102157201657
aF4.4410768989086415
aF-3.123933301036331
aF0.9027034504200964
aF3.9560430648811833
aF-0.9652323022008819
aF0.2814068725427116
aF0.8677369319325102
aF-1.8288210414041832
aF18.68185227597881
aa(lp3
F30.91928962260878
aF-7.359333989090494
aF2.3702857614567394
aF1.2559782170293192
aF4.245676362870128
aF0.30159266286607544
aF-1.8273858967352603
aF-0.5637177705201684
aF0.8336492822155839
aF0.7578755612041351
aF0.4743310845592147
aF2.1777359279568804
aF19.070297660708196
aa(lp4
F45.88280431984393
aF0.8389734930942482
aF-4.815396284462772
aF-0.9844793014669959
aF1.3850628816218222
aF-2.8627729871923497
aF-0.6879504231532687
aF0.08225452314100923
aF-0.6492857141855464
aF1.1898713392541398
aF1.0311072925988642
aF-0.6954634225229208
aF18.10433812399884
aa(lp5
F39.26064963320053
aF-1.6136345793218903
aF2.6694399953465826
aF5.142482024642569
aF3.965792288471772
aF-2.7597598590878984
aF-0.23151224710787033
aF3.1026567294236362
aF-0.004927564131290418
aF1.822566162995776
aF2.822495844715414
aF0.878249067076797
aF19.811838369885887
aa(lp6
F40.44106420680575
aF-0.34434878016919046
aF1.9962099354928442
aF3.010082261013946
aF2.7748076826337713
aF-1.7299952908357967
aF-2.2182947035784175
aF-1.5034418185290104
aF-1.6474197348745911
aF-0.28884269854080424
aF-1.4648387248768218
aF-2.006453647700801
aF19.382457137780282
aa(lp7
F42.527030602795485
aF0.9679335316326473
aF1.7869735772729807
aF2.887799735159522
aF4.968361078961026
aF-1.800313271777331
aF-3.0548680760454823
aF-0.8720364834320872
aF0.3368004929269387
aF1.1079916311741065
aF1.3591246649630977
aF1.1770840254966926
aF20.11562224492963
aa(lp8
F39.87056561277817
aF-5.4392453286601725
aF-3.243524305668417
aF5.174182823242818
aF4.145268455535851
aF-3.4522130295132367
aF0.37177225641110834
aF2.3316741407167894
aF-1.016533065325318
aF1.4119321283581854
aF1.9815639105598664
aF0.22341874439991916
aF19.357537273170735
aa(lp9
F39.9852517916431
aF-1.1345991227750016
aF-1.334795459161097
aF0.7965536712367993
aF4.427766981083044
aF-0.6760798764630338
aF-2.1624902943851216
aF-0.7962383226926553
aF0.8335964903674398
aF0.7478017435569407
aF-0.49597297812721997
aF-0.14445027940538535
aF18.705181460897936
aa(lp10
F39.05779770663897
aF-4.668578323536478
aF-0.5073225417859807
aF4.42164358760135
aF3.807064738306231
aF-3.8942262142524036
aF-1.265395243879069
aF1.7390264329204355
aF-1.597377005798113
aF0.36674253626008024
aF1.1258621278189833
aF-0.6589241548205237
aF17.282290605894797
aa(lp11
F37.27548465272541
aF-3.379549392907871
aF-1.8046743268432208
aF-0.09925324948375636
aF2.9299956810635432
aF-1.6021808301977125
aF-3.513686901334052
aF-2.8602054396006236
aF-0.3928130838612685
aF0.1853062477175732
aF1.1237898115384435
aF0.39173973707007337
aF15.644237653875429
aa(lp12
F43.34979276499113
aF1.4629149802155679
aF3.867371481510056
aF4.850191066114538
aF6.132164009871321
aF-0.0733408740860646
aF-1.6723026589627314
aF0.10346897680767198
aF-0.1087758170507035
aF2.3807134179406786
aF1.0414298804414561
aF-0.4405951516589117
aF18.160075903525573
aa(lp13
F44.61131785958469
aF5.087947676323546
aF4.6758089080135585
aF3.197978812090275
aF2.5979988991635574
aF-3.0839456040605198
aF-4.89343064603274
aF-2.397152046108724
aF-1.5932997011374403
aF1.0747943167122869
aF1.2112515792101854
aF-0.7198484882521329
aF21.418330616231792
aa(lp14
F41.15028132055994
aF-0.423723294371662
aF0.8585287792320817
aF1.7141535710237892
aF3.5080398501267767
aF-1.814203442668793
aF-2.466640575542354
aF0.18681732033766796
aF-0.3339711273320976
aF0.9793234397132844
aF0.5251743989146771
aF-0.33001365188756493
aF21.697676205431687
aa(lp15
F45.98864481038761
aF3.0388259687748485
aF-0.04235804872550575
aF2.159339935054789
aF4.281988455406799
aF-2.632108197082087
aF-2.823428696049131
aF-2.533607485347157
aF-1.776425526091663
aF2.6478127059053334
aF2.0299931203152752
aF-0.8998058557867005
aF22.293558493104094
aa(lp16
F44.23095058939387
aF2.888617965234411
aF2.414843545373527
aF0.3853320892366834
aF2.0753412367631734
aF-1.8957972254067064
aF-2.8263222757929047
aF0.1265342283979929
aF-1.2057015211715845
aF1.6662649407289247
aF1.1708455776074884
aF-0.8234768230017641
aF22.59687591434212
aa(lp17
F45.60238367862557
aF3.008043662908182
aF1.095527174479898
aF1.2268221678383888
aF2.2322228118536236
aF-1.9738260204947102
aF-3.140993276108069
aF-1.0002410243686457
aF-0.4369995049173476
aF1.5343124661270442
aF1.4916803210950753
aF-0.18327743806363694
aF22.71166384485388
aa(lp18
F43.14251905044899
aF2.6860389246819296
aF2.147729510910975
aF1.2031904289367021
aF1.5501373158715746
aF-2.047429023735813
aF-2.6916247759015595
aF-1.1165575508656358
aF-0.38229490438809066
aF2.1542954034431543
aF1.163057969505172
aF-1.057417027979457
aF22.567615593470954
aa(lp19
F45.44227573882029
aF3.157853739880618
aF1.1396661134726016
aF-0.969982353899564
aF2.9327413658469346
aF-1.878899281894664
aF-2.7564946624442297
aF-0.930858496536938
aF-0.7108031784163921
aF1.4028994514840043
aF1.5952768690029546
aF-0.6199762782538076
aF22.486014673881044
aa(lp20
F45.334816559066475
aF3.7960917810159565
aF0.5197290194670183
aF-0.585594682961677
aF1.240322949568688
aF-1.5022094282829392
aF-3.6077366583315347
aF-0.7799705331851624
aF0.2848552261458812
aF2.4479649001100725
aF0.6399895924979826
aF-1.0795834274792089
aF22.653984698040972
aa(lp21
F43.539317358705055
aF2.8729810021946935
aF0.5498304576805099
aF-1.5355260390147176
aF2.316141208933618
aF-1.830220628325863
aF-3.0566118112086524
aF-0.6817549749369547
aF0.011098080018582257
aF0.884893011137166
aF0.8681992905039375
aF0.18530383295082975
aF22.375295119980105
aa(lp22
F41.98224004352392
aF0.7467986247514711
aF1.129705004720047
aF-0.016460244925115775
aF0.33116631279630915
aF-2.6368439837301887
aF-2.8988020258356726
aF-1.2915525079634258
aF1.353494110491145
aF2.7651337630243953
aF0.9229321718550286
aF-0.2395776138411182
aF21.85621333100948
aa(lp23
F30.886276114552558
aF-3.5607783618198843
aF6.122436799747497
aF1.0350977679007844
aF-0.24088659104931542
aF-1.575821290535231
aF-1.0624678029440302
aF0.5646332875325855
aF1.9237691667456511
aF-0.23313953798565712
aF-0.7822594410504478
aF0.041703897598064255
aF18.838338518421065
aa(lp24
F32.75529349008753
aF-6.62967950218755
aF1.8271758095800903
aF-1.1363748421872308
aF-0.5470412427489227
aF-1.6245229014494191
aF-0.9932226776126925
aF-0.7030004574352873
aF-1.6787244662327894
aF2.6287284988692914
aF3.319786427199614
aF1.831537967891892
aF16.987981004965224
aa(lp25
F29.973152386601356
aF-7.378132320053508
aF-0.9411682628663862
aF-0.18412044251605436
aF0.6748277456319864
aF-1.1706616542946087
aF-0.25452164765463015
aF-0.55175484842212
aF0.6111626038327123
aF-0.3606586079318983
aF-2.002079162732936
aF-1.3397034764340996
aF12.788412615744758
aa.