(lp0
(lp1
F39.12184302662735
aF-2.4442048095730318
aF-2.8549756669401507
aF-2.76025234646945
aF2.1198791674675515
aF0.05341514325388222
aF-0.9361769748931179
aF0.07400623468292974
aF0.40419643406243977
aF0.3668823043463805
aF-0.3562710177291173
aF-0.35840529463041393
aF13.52621422912522
aa(lp2
F42.439327709011344
aF0.8568582059613796
aF3.0609081142225993
aF5.04007451793069
aF4.920886583633428
aF-1.1799364804920083
aF0.307884225942061
aF2.503969414553591
aF0.39568398512000297
aF0.2921471795882693
aF0.8751400283793472
aF0.494692735880575
aF16.90761267656752
aa(lp3
F36.65502398119947
aF-5.00586305534599
aF-2.8487853261392106
aF-0.7047675963095397
aF0.6059599041097554
aF-2.6307750790643185
aF-0.34837669642299907
aF0.8984217251817073
aF0.6023665180498015
aF2.485487616189989
aF1.775368594156412
aF0.5489703759789453
aF16.99904137215753
aa(lp4
F36.90318297645537
aF-3.6533095134749916
aF-1.7777190542498285
aF-0.8743061678091943
aF2.092781930816667
aF-1.1193270599192982
aF-1.3447807569108066
aF0.6019362906345493
aF0.7947485821654798
aF1.3039985937377492
aF-0.8635083581753313
aF-1.1893675763711251
aF15.199889442291044
aa(lp5
F38.00635721366137
aF-3.3889336191595714
aF1.3896444301526176
aF2.3106952523531827
aF3.314207000178196
aF-2.6761761498899292
aF-1.6113405669436314
aF-0.11314134100598428
aF0.21624696844629637
aF1.7422220956445837
aF2.14861762415681
aF1.3744936064229814
aF15.76359124199317
aa(lp6
F36.597115556682205
aF-5.906219771887763
aF-1.9773131954354395
aF2.360005881712084
aF1.6229166058434519
aF-3.1583350932696446
aF-2.951303921385791
aF0.2545890395329743
aF0.18740002619695784
aF-0.24290812999494937
aF-1.4016609956753694
aF-1.2205453273824558
aF14.837969371810116
aa(lp7
F38.966687940487574
aF-1.8298705834462305
aF1.2373741756608787
aF2.9217394056516373
aF5.5088194061385884
aF0.332977342035937
aF1.4896248671451688
aF0.9548351582107728
aF-0.5042231507116932
aF1.2068387574125574
aF2.551137837358661
aF1.042549216972618
aF16.169881941586578
aa(lp8
F34.65760547988201
aF-8.486850845826048
aF-5.3782697438098745
aF-0.3753887482407021
aF1.0399692857904204
aF-4.871409024862476
aF-4.168795026152364
aF-0.9181688487169883
aF-0.3472330415573872
aF0.7005680655000075
aF-0.10769588626184234
aF0.24470912392843017
aF13.581962482891006
aa(lp9
F36.43860916669366
aF-4.614130692656442
aF1.510514275333065
aF4.832814095529304
aF4.596113058421468
aF-0.38264856422307925
aF-0.5674899315982879
aF0.773381527952707
aF-2.143756043486256
aF-0.6115823420086259
aF0.42348701140041833
aF-0.7753304845888257
aF13.672588734194209
aa(lp10
F39.43523411052774
aF-0.5308016218526803
aF1.338024462828946
aF0.9863865209390374
aF5.016980158185188
aF-0.25219386808492317
aF-0.5377794543166399
aF1.026907053553014
aF2.4613311784344587
aF0.6544950555198736
aF1.6873638413870478
aF1.0019183987830345
aF15.996701432144423
aa(lp11
F41.309138680642995
aF3.415224119281639
aF6.712840275180247
aF4.253645326752833
aF2.4392258158768865
aF-1.911442243298005
aF-6.086382013885954
aF-4.8706800761153755
aF-2.9451302810455444
aF0.30827154759995745
aF0.48286671323506747
aF0.8972289183447173
aF19.46319675435537
aa(lp12
F40.76143524678777
aF-0.4773158985234811
aF-0.23182830347843408
aF0.06402719301437809
aF4.519800340001886
aF-0.3048188274021143
aF-3.429282867243642
aF-1.5878902020971981
aF1.3413530675411671
aF2.771921351837329
aF-0.0033781182876018168
aF-0.7019131859800767
aF20.473746924233463
aa(lp13
F39.15051508687988
aF-0.35030752193893067
aF2.6611530070798444
aF2.207626481969647
aF3.422789170654176
aF-1.131098899468396
aF-3.4861769243670486
aF-1.2229658591944503
aF0.2147693064635362
aF-0.1226015769718457
aF0.598607007394834
aF-0.1498971164917988
aF20.361085667040168
aa(lp14
F39.32865388036872
aF0.7052083074504572
aF3.2528957070486126
aF1.3680279456909608
aF2.7708589973785984
aF-0.21119002137909637
aF-3.0757239855180227
aF-2.0587415031100136
aF0.24587751433250582
aF1.781402070002244
aF-0.4173964195719496
aF0.5304031396984712
aF20.22290527436551
aa(lp15
F42.96883480302612
aF1.5275295988205888
aF1.0854446804465052
aF0.9261134465378937
aF3.6087420427636308
aF-2.0226849301800356
aF-3.5157166726469695
aF-2.3254747513374627
aF-0.16732663627300243
aF1.669975304414372
aF1.1157741134982646
aF-0.39449811626853637
aF20.468463198196293
aa(lp16
F41.791612020421276
aF1.3182319529622513
aF1.6979325794082358
aF1.0702485939631836
aF2.825771986464014
aF-1.6919992926308138
aF-4.206222325624644
aF-1.4299212491207327
aF0.18525404873118279
aF2.531802156161702
aF1.0030325477367408
aF-0.862046132519508
aF20.673282871124886
aa(lp17
F42.33973124244713
aF3.1392104665492555
aF1.7253688064802581
aF-2.0747245972409223
aF1.7673713370164688
aF-0.5375672114831225
aF-3.44911977053404
aF-2.1837338228879917
aF1.2870845329306824
aF1.0940220197562305
aF-0.03830940963012802
aF-0.34141881945232533
aF20.93696896357212
aa(lp18
F40.049225176585296
aF1.038075184796768
aF2.4891480624685114
aF-0.4953650137018689
aF2.1328045844193153
aF-1.2462985028303968
aF-4.017793940918827
aF-1.7224594219400493
aF0.33711170228887033
aF2.874131260478662
aF0.47348977352560906
aF-0.5303171759735935
aF20.89381194817258
aa(lp19
F40.71686638599151
aF0.7451455653822037
aF2.399247631938153
aF-0.040543295713220906
aF0.2750568021467996
aF-1.7981823134020427
aF-3.5152215367834696
aF-1.8378492964453388
aF1.853048039594705
aF1.7308353449263594
aF0.349997178558538
aF-0.027942169971922892
aF20.916385027906642
aa(lp20
F33.97177958463533
aF-2.999867111518812
aF5.3103662059224215
aF0.5462727229523588
aF0.3937013709523962
aF-2.1886143857953924
aF-2.19433741444844
aF-0.052020099923244745
aF1.851657451939331
aF0.9072153595074746
aF-1.5548927926918947
aF-0.3036303427083219
aF18.91906444231465
aa(lp21
F42.27841992790234
aF1.6962381797483055
aF-1.9991443633424568
aF-2.3362452160539355
aF2.0676059824444604
aF-1.1885553125842132
aF-3.802578256751962
aF-1.7554682874814407
aF1.6186339267589434
aF2.7000456130923913
aF1.1870937477695054
aF0.7901766865479545
aF18.836018140984024
aa(lp22
F21.771425658457424
aF-14.252335087532122
aF1.9645099003804845
aF0.13800146578259198
aF-2.1388577686739887
aF-0.8065631446037806
aF0.6864851556987344
aF0.048064047945534316
aF-1.7051619226648271
aF-0.20827856892550622
aF-0.0951859426333939
aF-0.4195466412271042
aF13.915273896807362
aa(lp23
F35.34729773922894
aF-2.6552504561637873
aF0.9088308927323834
aF0.8169942412595871
aF3.506628530694873
aF2.2714672182758924
aF2.305782320191956
aF0.9072863022293866
aF0.8969669950575123
aF-0.3993794305695357
aF-0.894712549731262
aF-0.0932092046880418
aF11.937254646686153
aa(lp24
F31.547115715337636
aF-5.8548991984008065
aF0.8496775356102021
aF-2.4006259274572255
aF-1.4144596973270809
aF-4.452011570069221
aF-3.611806451741955
aF-1.9423404976060588
aF-0.37278738533467426
aF0.6724204334016226
aF-0.2529313217291277
aF0.3764503207451252
aF11.15150041827085
aa.