(lp0
(lp1
F29.54037920885808
aF-6.788753589026145
aF0.849808716025698
aF-0.45506332571327546
aF1.2123641236027627
aF-0.4147195760461275
aF-0.03366874809971988
aF-0.17457523831429422
aF-0.18189738628273672
aF0.20135707025863755
aF-0.24808565738089916
aF0.4205952905996994
aF9.609763343895315
aa(lp2
F32.589134010124155
aF-6.547999850821158
aF-0.6211293876216936
aF-1.4766828227529083
aF0.6126897722718727
aF0.021159523232880006
aF-0.47535028863279816
aF0.2274541862142455
aF0.6950899835328859
aF1.3908468353407806
aF1.0002257568159152
aF0.8334092017041475
aF10.202193221369905
aa(lp3
F41.09787378702747
aF-2.4085919434051473
aF-4.6726884430801325
aF-3.9958538444494005
aF2.8775795850542276
aF1.796791342164766
aF-1.1548004800761746
aF-2.1220904945140027
aF1.06545314678658
aF1.1246945642554251
aF-0.9306004974739208
aF-0.5158640131492044
aF11.794329840390912
aa(lp4
F48.082092532942895
aF5.957567337906829
aF0.9409921230411622
aF2.3311983547964057
aF4.995300416863824
aF-0.9187078564272775
aF-0.026867151249989285
aF3.636141579262629
aF0.7124614089294565
aF1.0456476962508356
aF1.010506911444773
aF-1.6170938024893102
aF17.207763828061296
aa(lp5
F28.56575645624857
aF-9.749644592155967
aF2.6928693338273497
aF3.1703758450370394
aF1.4746712442786318
aF-3.2154045777872176
aF-2.921392668156321
aF-0.40013328150828176
aF1.0924106459058298
aF1.617586179655168
aF1.6570788912815098
aF2.9842063271766213
aF16.70475681447518
aa(lp6
F38.764121712782476
aF-3.696506248484228
aF-3.180858236888309
aF-2.9572937300574664
aF-0.6489568569684336
aF-3.889921578189377
aF-1.8572385047173543
aF-0.2883145806647406
aF-1.7664364982192367
aF-0.5988322157302377
aF-0.45361724007836635
aF-1.9153710865753617
aF14.907391891564004
aa(lp7
F37.654511756182224
aF-4.620650696516881
aF-1.0468002614444174
aF3.4963448548792293
aF3.998639090096489
aF-1.6261897656019637
aF-0.0815126754125508
aF1.23886861301715
aF0.7454697777768808
aF3.512590719616644
aF2.424530013155953
aF0.8549596570939058
aF14.784682525795937
aa(lp8
F37.512093094370464
aF-3.3848733417115615
aF-0.1550048310960932
aF1.830014039273689
aF4.1350995484510005
aF-0.8995200464721531
aF-1.5601002491923937
aF-1.2908488740782433
aF-1.207205068725128
aF-0.905810225719176
aF-0.17991225366392016
aF-1.015852895498227
aF15.142230120914153
aa(lp9
F38.63512734410851
aF-4.096349793882509
aF-0.49057447832947243
aF2.547068544473073
aF2.578286727480069
aF-3.4044290086867255
aF-0.4190396502859083
aF3.2147884016157944
aF0.5055430858340261
aF-0.47965131206651623
aF0.5888841885040983
aF0.45568399927054537
aF14.798538332605885
aa(lp10
F37.28141390924421
aF-1.9322986285159618
aF1.2237869266639667
aF1.3918159704198863
aF3.9489278106113685
aF0.17811306925595272
aF-2.2303518874520227
aF-1.4898337199291085
aF-0.6559735353500415
aF1.7568726824534373
aF0.9241842831755563
aF0.16799839219873686
aF15.652014495629016
aa(lp11
F38.342693847182304
aF0.6323080733628708
aF6.71432795102897
aF2.990910497450009
aF1.9226346793496973
aF-0.7021842463704937
aF-3.0728073391019683
aF-3.8834610956436033
aF-1.7776036744987476
aF0.05301217162369504
aF0.9986988463145116
aF0.5073152207023677
aF17.949096556439347
aa(lp12
F43.52139833312636
aF2.5423640883465177
aF-0.25769536288629524
aF2.10404561853884
aF6.456329942140309
aF-1.5215302485937114
aF-4.727716593448752
aF-1.0371675017020119
aF0.834714484028754
aF1.5910762119869153
aF-0.5185183822098034
aF-0.33401570050887525
aF20.07145753715639
aa(lp13
F37.4939136610289
aF-1.7521467989334687
aF2.6322550824839164
aF1.1358898088413676
aF2.4423985413696156
aF-0.2179740380462818
aF-1.0405288729297342
aF-1.7200420123297173
aF0.07135946558078898
aF1.5291551824765175
aF1.2635735839376783
aF-0.4519959956228604
aF20.3178732215589
aa(lp14
F40.87399827990646
aF0.3118029869709991
aF2.31670511215211
aF1.7296460842570693
aF3.4196198282518893
aF-1.5574602221584328
aF-4.349281017313495
aF-1.6237450139445566
aF0.7324087646927531
aF1.393345556047438
aF-0.46431975691147265
aF0.16897092699834615
aF20.04726102000554
aa(lp15
F41.01154998419323
aF1.215967491115091
aF2.7633103024010435
aF0.7319839460631921
aF1.9772541722678674
aF-1.2090473337842276
aF-3.8134630816383925
aF-1.9803885026273504
aF0.44267504975810035
aF2.5193906488348645
aF1.2893600481880028
aF-0.5967813369629098
aF20.045221987475863
aa(lp16
F39.86819020624168
aF1.044191396802188
aF2.0045841075373843
aF0.9917331986841917
aF3.109539727193415
aF-1.5474537304986073
aF-2.9409472852536687
aF-1.906613813888503
aF0.4298445691300118
aF1.9851833285994749
aF0.21126011397473515
aF-0.501886549880195
aF19.96898261526344
aa(lp17
F40.97523434053151
aF0.7881456155543072
aF1.8613346962314044
aF0.5055575042115803
aF2.3909134328581945
aF-1.2635144403431167
aF-3.2521577054066646
aF-1.5244494929939396
aF0.18813707527022078
aF2.0077520799487014
aF-0.012497584528748273
aF-0.7972225853402956
aF20.010855885978092
aa(lp18
F41.36224949585891
aF1.8861406527324913
aF2.755101240411838
aF-0.13398344568673343
aF1.0119177247166662
aF-1.4525229858404152
aF-4.456028943292493
aF-2.1405601834454746
aF1.812546121509759
aF1.909382499082838
aF0.5079964205330028
aF-0.22733572062563545
aF20.33023325909496
aa(lp19
F33.82514955137255
aF-2.6648365164288235
aF4.610243113081949
aF0.6652241744936385
aF1.2420126220775571
aF-1.0154698449155133
aF-2.1122273730899264
aF-2.569599974539852
aF1.3301428785314098
aF2.8338412507383075
aF0.08470933700063193
aF-0.6709584463606486
aF19.20589605233895
aa(lp20
F41.19070426095854
aF1.7605804691423674
aF1.254969697232911
aF-1.4898790848921655
aF2.1517628023887667
aF-1.4622673037044909
aF-5.592887362595822
aF-1.4722724653902952
aF1.5027422309609173
aF2.291880489850728
aF-0.26258153224894765
aF-0.07055421615662522
aF19.171415265679663
aa(lp21
F26.75463561276127
aF-9.381031873952221
aF3.605721067919341
aF1.2783433509080009
aF-2.3189852527953105
aF-1.2360853103710598
aF2.625008494889155
aF1.0138846541769668
aF-0.9929372978944895
aF-0.588912634773415
aF1.5667252308605861
aF1.7013311359403145
aF15.659804313587022
aa(lp22
F37.44482804525777
aF-0.8835211829436487
aF4.353638321764981
aF0.05633833585143569
aF1.4404795441984886
aF-2.906764547295879
aF-4.247004599349429
aF-1.9001442386780003
aF0.4675056066119899
aF1.5501829555227273
aF-0.7685476404212677
aF0.22610006745699374
aF15.896985572791971
aa(lp23
F32.47591699920616
aF-5.224920976615092
aF0.25380241004338844
aF-0.607497505741541
aF-1.1545690206389565
aF-2.9963960898810145
aF-3.280811118179903
aF-0.706969705302393
aF1.5511364451912426
aF1.0608538433821557
aF0.392139378988149
aF-0.16580154242115075
aF15.104463006445146
aa(lp24
F28.57977950070369
aF-9.099261214881281
aF-0.40241558105077546
aF-0.2670775806717871
aF2.072391594928649
aF2.2014037043906582
aF1.7685946349810047
aF-0.9606218264184153
aF-1.7918212189521612
aF-0.3333187049417079
aF-0.6246871262589095
aF1.5079346850792175
aF12.056471082101204
aa(lp25
F31.484255784261336
aF-4.606238627539561
aF3.625606261600839
aF0.07060693522503639
aF0.35199560609325625
aF-2.6401838886607982
aF-0.43204875557367517
aF0.36885050926539603
aF1.762318873670787
aF0.23504827488275887
aF0.2705365762061246
aF-0.6812779476128281
aF11.682502858192407
aa.