(lp0
(lp1
F31.061509684471133
aF-6.643451879810368
aF0.5899493335120399
aF-0.7994051259965362
aF0.5397518341498466
aF-0.7907865355405825
aF-0.15987336707280284
aF0.003133912912754312
aF0.34017425817751
aF0.45539912393760507
aF0.0005610008939487174
aF0.12361344226324639
aF9.945178329210885
aa(lp2
F55.575150223793194
aF6.682269082015342
aF-7.392977483283686
aF-6.669304834053966
aF3.891540662028544
aF1.3173114108983712
aF-2.523266397803445
aF-0.03894496606674623
aF1.1342179953580471
aF1.4780456636736872
aF-0.5840919172473451
aF-0.6603668634426361
aF14.23511765277011
aa(lp3
F31.915469041516552
aF-3.323754810704253
aF8.691995797534963
aF8.585982833689453
aF2.136777169234394
aF-2.855212422481305
aF0.21575673599846812
aF2.110062028647876
aF0.5560904742455959
aF0.6998864837198683
aF0.43786948702821954
aF-0.035731802336163326
aF17.361114999133243
aa(lp4
F32.51168642690703
aF-7.893526054941323
aF-2.4201238938339875
aF-2.953667625962637
aF2.4797264711112614
aF0.5298599617962685
aF0.15665121793567882
aF0.4394574246278551
aF0.5803443178012226
aF1.1553591410046962
aF1.0883434524460298
aF1.271921124295643
aF16.58488959931358
aa(lp5
F41.419180283937045
aF-0.6448266406379046
aF0.28426790031211535
aF3.4886400779002855
aF1.7685153169684353
aF-3.466475153364505
aF-2.581982745238182
aF-0.28317280157432856
aF-0.7183068422240784
aF0.18553583975730947
aF0.4294794172149257
aF-1.1644543215184977
aF15.747085128896426
aa(lp6
F35.929893456745155
aF-4.972857366706851
aF-0.9364465881223024
aF-1.0256362935777923
aF1.2090416628659966
aF-2.873917515562845
aF-1.2904272683132194
aF-0.007305136073419621
aF0.234886931769795
aF2.0966340682542843
aF1.8936045958484515
aF0.5303574115021378
aF15.07756313541786
aa(lp7
F33.9321735183217
aF-4.575552757499695
aF4.9539511661972
aF5.587846556638576
aF4.199482722142091
aF0.6138711915654307
aF0.992637374213448
aF0.6735379510688344
aF-0.4411653282581821
aF-0.21532501550404848
aF-0.7749332921121111
aF-0.7078427079703691
aF15.400843934720768
aa(lp8
F37.20376168628261
aF-4.680912819413532
aF-1.7960872817739444
aF2.8067103502566053
aF3.9703988634586587
aF-0.9838486414390846
aF1.0259401437089273
aF2.6809668928062775
aF-0.30562404471791826
aF1.4986278840674325
aF1.7883238517998419
aF1.6339152048104295
aF16.780850537196404
aa(lp9
F36.96137306764315
aF-1.7955647260755105
aF3.749004731965524
aF3.425591286672987
aF2.408135389189872
aF-1.509811905273081
aF-1.4041239442322095
aF-0.7550697717427917
aF0.4494541224745966
aF-1.0918081443349994
aF-1.1478115780110543
aF-1.448366215813923
aF17.427775666623457
aa(lp10
F34.4994123022999
aF-5.225823389267048
aF1.4604362964809716
aF0.7474112667415316
aF4.11172595004026
aF0.6112647866445321
aF-0.21504048833509348
aF-0.40482303986756196
aF-1.4577113374321646
aF2.0235531518054994
aF1.2034872095901323
aF0.5395408072361232
aF17.063084029542186
aa(lp11
F35.75505618888563
aF-2.781740648518083
aF2.504519485085809
aF4.783236907752648
aF3.7161529339805677
aF-0.439141563032656
aF-1.3660615808640828
aF0.7934114808773138
aF0.1278817830175833
aF-1.8722015779453172
aF-1.4899086845765253
aF0.23646204198133353
aF16.95378761687466
aa(lp12
F36.75184658611387
aF-0.021237048588970797
aF6.824884629667932
aF1.6936945135038743
aF0.2667444308323259
aF-3.2977954915411276
aF-2.6361868285426335
aF-0.7597894840581217
aF-0.47174592896364215
aF0.9852832649079275
aF1.8792320716783186
aF0.2842854398103587
aF17.677787270948635
aa(lp13
F42.09064033006778
aF0.6103698946568024
aF0.7969078678763473
aF2.4832747911948494
aF5.290580936511931
aF0.6771818030157246
aF-4.355882600082446
aF-4.770731649010882
aF-0.8006461423097837
aF2.5179714841889624
aF-0.22735190062418897
aF-1.6059029319944362
aF19.217820142413455
aa(lp14
F37.5731996785083
aF-0.7318393807931638
aF4.140868141173504
aF2.525661410389539
aF3.2828231871955755
aF-1.3068756429882307
aF-2.0950177651500015
aF-1.0551252201396704
aF-0.38614024200057845
aF1.7014451331225395
aF0.992227144921106
aF-0.22639868662429474
aF19.61225362818723
aa(lp15
F41.782912035891925
aF0.6889395959958684
aF0.2855994214760753
aF0.6047535049041863
aF2.849481068373292
aF-1.1165120590675814
aF-3.2994086892342738
aF-2.400611032298229
aF0.12734438493407052
aF1.683861633747334
aF1.2810356947133075
aF-0.6897577582212326
aF19.799376617462677
aa(lp16
F41.19055006727768
aF1.1257600888129857
aF2.178513767937932
aF0.408912731967656
aF1.929989656981439
aF-2.043675918249642
aF-3.2291920479887857
aF-0.9088149873795377
aF0.11706914111365906
aF2.8020243648884366
aF0.18056581948435324
aF-1.014695474115296
aF19.902191128500732
aa(lp17
F42.59919873160893
aF2.126479211695801
aF0.9903405440822699
aF-0.40168946616808365
aF2.5905636840723774
aF-1.150695269236087
aF-3.4733850160390047
aF-2.351185962019088
aF0.15396746690155821
aF1.4210605680329274
aF0.9569326616496188
aF0.41254119229805775
aF20.397977740675344
aa(lp18
F41.879392136573486
aF0.7295560717412606
aF1.187957731722935
aF0.1392675427639376
aF1.4297782204775058
aF-1.5943178330524743
aF-2.5427790626624676
aF-1.9526215050452813
aF-0.5902438108728745
aF2.448237947659485
aF1.4844047379538752
aF-1.7756297056354917
aF20.559807626260504
aa(lp19
F36.97877913020428
aF-1.0498018770957813
aF4.13724784073307
aF-0.25804932215606124
aF0.3933082433165438
aF-1.031605405524543
aF-4.468285892208012
aF-3.147490358897059
aF1.5699299038957635
aF2.93675446900208
aF0.6007060059334561
aF0.3717842730128008
aF20.03950883163933
aa(lp20
F31.298444243456856
aF-4.411923381001955
aF2.9867758135841544
aF0.25948226589448803
aF1.6170266733971357
aF-1.0502262434279277
aF-0.7282557761515802
aF-0.5586705557203409
aF-0.1478504102772843
aF-0.013858134093784447
aF1.3013803016234857
aF0.5587618964914189
aF17.4212364506908
aa(lp21
F30.63479891767267
aF-8.209145787308183
aF1.3544125599529453
aF-1.425433025055666
aF-2.819684661089388
aF-2.739634266155746
aF0.6338298109416853
aF0.5628190860260304
aF0.12414041771900225
aF1.2046974725982944
aF0.2536907340763622
aF1.5709453800371649
aF14.398526043928156
aa(lp22
F32.23236145997433
aF-5.863046032952509
aF-1.308561519770403
aF0.9030622521926271
aF3.4706737236470726
aF1.7844491703493381
aF0.2002911145613382
aF0.8185606402020082
aF0.9597555875372147
aF0.8125949562780845
aF-0.4369209734208495
aF-0.5549462134056301
aF11.58804199593276
aa.